TN:
SF:/Applications/Xcode.app/Contents/Developer/Toolchains/XcodeDefault.xctoolchain/usr/include/c++/v1/__bit_reference
FN:56,_ZNSt3__115__bit_referenceINS_6vectorIbNS_9allocatorIbEEEELb1EEaSEb
FN:74,_ZNSt3__115__bit_referenceINS_6vectorIbNS_9allocatorIbEEEELb1EEC1EPmm
FN:74,_ZNSt3__115__bit_referenceINS_6vectorIbNS_9allocatorIbEEEELb1EEC2EPmm
FN:404,_ZNSt3__114__copy_alignedINS_6vectorIbNS_9allocatorIbEEEELb1EEENS_14__bit_iteratorIT_Lb0EXLi0EEEENS5_IS6_XT0_EXLi0EEEES8_S7_
FN:453,_ZNSt3__116__copy_unalignedINS_6vectorIbNS_9allocatorIbEEEELb1EEENS_14__bit_iteratorIT_Lb0EXLi0EEEENS5_IS6_XT0_EXLi0EEEES8_S7_
FN:532,_ZNSt3__14copyINS_6vectorIbNS_9allocatorIbEEEELb1EEENS_14__bit_iteratorIT_Lb0EXLi0EEEENS5_IS6_XT0_EXLi0EEEES8_S7_
FN:1112,_ZNSt3__114__bit_iteratorINS_6vectorIbNS_9allocatorIbEEEELb0ELm0EEC1ERKS5_
FN:1112,_ZNSt3__114__bit_iteratorINS_6vectorIbNS_9allocatorIbEEEELb0ELm0EEC2ERKS5_
FN:1115,_ZNKSt3__114__bit_iteratorINS_6vectorIbNS_9allocatorIbEEEELb0ELm0EEdeEv
FN:1118,_ZNSt3__114__bit_iteratorINS_6vectorIbNS_9allocatorIbEEEELb0ELm0EEppEv
FN:1191,_ZNSt3__1miERKNS_14__bit_iteratorINS_6vectorIbNS_9allocatorIbEEEELb1ELm0EEES7_
FN:1216,_ZNSt3__114__bit_iteratorINS_6vectorIbNS_9allocatorIbEEEELb1ELm0EEC2EPKmj
FN:1216,_ZNSt3__114__bit_iteratorINS_6vectorIbNS_9allocatorIbEEEELb1ELm0EEC1EPKmj
FN:1216,_ZNSt3__114__bit_iteratorINS_6vectorIbNS_9allocatorIbEEEELb0ELm0EEC1EPmj
FN:1216,_ZNSt3__114__bit_iteratorINS_6vectorIbNS_9allocatorIbEEEELb0ELm0EEC2EPmj
FNDA:0,_ZNSt3__115__bit_referenceINS_6vectorIbNS_9allocatorIbEEEELb1EEaSEb
FNDA:0,_ZNSt3__115__bit_referenceINS_6vectorIbNS_9allocatorIbEEEELb1EEC1EPmm
FNDA:0,_ZNSt3__115__bit_referenceINS_6vectorIbNS_9allocatorIbEEEELb1EEC2EPmm
FNDA:0,_ZNSt3__114__copy_alignedINS_6vectorIbNS_9allocatorIbEEEELb1EEENS_14__bit_iteratorIT_Lb0EXLi0EEEENS5_IS6_XT0_EXLi0EEEES8_S7_
FNDA:0,_ZNSt3__116__copy_unalignedINS_6vectorIbNS_9allocatorIbEEEELb1EEENS_14__bit_iteratorIT_Lb0EXLi0EEEENS5_IS6_XT0_EXLi0EEEES8_S7_
FNDA:0,_ZNSt3__14copyINS_6vectorIbNS_9allocatorIbEEEELb1EEENS_14__bit_iteratorIT_Lb0EXLi0EEEENS5_IS6_XT0_EXLi0EEEES8_S7_
FNDA:0,_ZNSt3__114__bit_iteratorINS_6vectorIbNS_9allocatorIbEEEELb0ELm0EEC1ERKS5_
FNDA:0,_ZNSt3__114__bit_iteratorINS_6vectorIbNS_9allocatorIbEEEELb0ELm0EEC2ERKS5_
FNDA:0,_ZNKSt3__114__bit_iteratorINS_6vectorIbNS_9allocatorIbEEEELb0ELm0EEdeEv
FNDA:0,_ZNSt3__114__bit_iteratorINS_6vectorIbNS_9allocatorIbEEEELb0ELm0EEppEv
FNDA:0,_ZNSt3__1miERKNS_14__bit_iteratorINS_6vectorIbNS_9allocatorIbEEEELb1ELm0EEES7_
FNDA:0,_ZNSt3__114__bit_iteratorINS_6vectorIbNS_9allocatorIbEEEELb0ELm0EEC1EPmj
FNDA:0,_ZNSt3__114__bit_iteratorINS_6vectorIbNS_9allocatorIbEEEELb0ELm0EEC2EPmj
FNDA:0,_ZNSt3__114__bit_iteratorINS_6vectorIbNS_9allocatorIbEEEELb1ELm0EEC1EPKmj
FNDA:0,_ZNSt3__114__bit_iteratorINS_6vectorIbNS_9allocatorIbEEEELb1ELm0EEC2EPKmj
FNF:15
FNH:0
DA:58,0
DA:59,0
DA:61,0
DA:62,0
DA:75,0
DA:410,0
DA:411,0
DA:412,0
DA:415,0
DA:417,0
DA:418,0
DA:419,0
DA:420,0
DA:421,0
DA:422,0
DA:423,0
DA:424,0
DA:425,0
DA:426,0
DA:428,0
DA:431,0
DA:432,0
DA:433,0
DA:434,0
DA:435,0
DA:436,0
DA:438,0
DA:440,0
DA:441,0
DA:442,0
DA:443,0
DA:444,0
DA:445,0
DA:446,0
DA:447,0
DA:448,0
DA:460,0
DA:461,0
DA:464,0
DA:466,0
DA:467,0
DA:468,0
DA:469,0
DA:470,0
DA:471,0
DA:472,0
DA:473,0
DA:474,0
DA:475,0
DA:476,0
DA:478,0
DA:479,0
DA:480,0
DA:481,0
DA:482,0
DA:484,0
DA:485,0
DA:486,0
DA:487,0
DA:488,0
DA:489,0
DA:491,0
DA:494,0
DA:495,0
DA:496,0
DA:498,0
DA:499,0
DA:500,0
DA:501,0
DA:502,0
DA:503,0
DA:504,0
DA:506,0
DA:508,0
DA:509,0
DA:510,0
DA:511,0
DA:512,0
DA:513,0
DA:514,0
DA:515,0
DA:516,0
DA:517,0
DA:519,0
DA:520,0
DA:521,0
DA:522,0
DA:523,0
DA:524,0
DA:525,0
DA:526,0
DA:534,0
DA:535,0
DA:536,0
DA:537,0
DA:1113,0
DA:1116,0
DA:1120,0
DA:1121,0
DA:1124,0
DA:1125,0
DA:1127,0
DA:1192,0
DA:1217,0
LF:104
LH:0
end_of_record
SF:/Applications/Xcode.app/Contents/Developer/Toolchains/XcodeDefault.xctoolchain/usr/include/c++/v1/__string
FN:208,_ZNSt3__111char_traitsIcE6assignERcRKc
FN:209,_ZNSt3__111char_traitsIcE2eqEcc
FN:217,_ZNSt3__111char_traitsIcE6lengthEPKc
FN:230,_ZNSt3__111char_traitsIcE7not_eofEi
FN:232,_ZNSt3__111char_traitsIcE12to_char_typeEi
FN:234,_ZNSt3__111char_traitsIcE11to_int_typeEc
FN:236,_ZNSt3__111char_traitsIcE11eq_int_typeEii
FN:238,_ZNSt3__111char_traitsIcE3eofEv
FNDA:0,_ZNSt3__111char_traitsIcE6assignERcRKc
FNDA:0,_ZNSt3__111char_traitsIcE2eqEcc
FNDA:0,_ZNSt3__111char_traitsIcE6lengthEPKc
FNDA:0,_ZNSt3__111char_traitsIcE7not_eofEi
FNDA:0,_ZNSt3__111char_traitsIcE12to_char_typeEi
FNDA:0,_ZNSt3__111char_traitsIcE11to_int_typeEc
FNDA:0,_ZNSt3__111char_traitsIcE11eq_int_typeEii
FNDA:0,_ZNSt3__111char_traitsIcE3eofEv
FNF:8
FNH:0
DA:208,0
DA:210,0
DA:217,0
DA:231,0
DA:233,0
DA:235,0
DA:237,0
DA:239,0
LF:8
LH:0
end_of_record
SF:/Applications/Xcode.app/Contents/Developer/Toolchains/XcodeDefault.xctoolchain/usr/include/c++/v1/algorithm
FN:719,_ZNKSt3__16__lessIllEclERKlS3_
FN:719,_ZNKSt3__16__lessImmEclERKmS3_
FN:719,_ZNKSt3__16__lessIPcS1_EclERKS1_S4_
FN:1759,_ZNSt3__113__unwrap_iterINS_14__bit_iteratorINS_6vectorIbNS_9allocatorIbEEEELb0ELm0EEEEET_S7_
FN:1759,_ZNSt3__113__unwrap_iterIPKbEET_S3_
FN:1809,_ZNSt3__16__copyIPKbNS_14__bit_iteratorINS_6vectorIbNS_9allocatorIbEEEELb0ELm0EEEEET0_T_SA_S9_
FN:1835,_ZNSt3__14copyIPKbNS_14__bit_iteratorINS_6vectorIbNS_9allocatorIbEEEELb0ELm0EEEEET0_T_SA_S9_
FN:2644,_ZNSt3__13minImNS_6__lessImmEEEERKT_S5_S5_T0_
FN:2644,_ZNSt3__13minIlNS_6__lessIllEEEERKT_S5_S5_T0_
FN:2652,_ZNSt3__13minImEERKT_S3_S3_
FN:2652,_ZNSt3__13minIlEERKT_S3_S3_
FN:2709,_ZNSt3__13maxIPcNS_6__lessIS1_S1_EEEERKT_S6_S6_T0_
FN:2717,_ZNSt3__13maxIPcEERKT_S4_S4_
FNDA:0,_ZNKSt3__16__lessImmEclERKmS3_
FNDA:0,_ZNKSt3__16__lessIllEclERKlS3_
FNDA:0,_ZNKSt3__16__lessIPcS1_EclERKS1_S4_
FNDA:0,_ZNSt3__113__unwrap_iterIPKbEET_S3_
FNDA:0,_ZNSt3__113__unwrap_iterINS_14__bit_iteratorINS_6vectorIbNS_9allocatorIbEEEELb0ELm0EEEEET_S7_
FNDA:0,_ZNSt3__16__copyIPKbNS_14__bit_iteratorINS_6vectorIbNS_9allocatorIbEEEELb0ELm0EEEEET0_T_SA_S9_
FNDA:0,_ZNSt3__14copyIPKbNS_14__bit_iteratorINS_6vectorIbNS_9allocatorIbEEEELb0ELm0EEEEET0_T_SA_S9_
FNDA:0,_ZNSt3__13minImNS_6__lessImmEEEERKT_S5_S5_T0_
FNDA:0,_ZNSt3__13minIlNS_6__lessIllEEEERKT_S5_S5_T0_
FNDA:0,_ZNSt3__13minImEERKT_S3_S3_
FNDA:0,_ZNSt3__13minIlEERKT_S3_S3_
FNDA:0,_ZNSt3__13maxIPcNS_6__lessIS1_S1_EEEERKT_S6_S6_T0_
FNDA:0,_ZNSt3__13maxIPcEERKT_S4_S4_
FNF:13
FNH:0
DA:719,0
DA:1761,0
DA:1811,0
DA:1812,0
DA:1813,0
DA:1837,0
DA:2646,0
DA:2654,0
DA:2711,0
DA:2719,0
LF:10
LH:0
end_of_record
SF:/Applications/Xcode.app/Contents/Developer/Toolchains/XcodeDefault.xctoolchain/usr/include/c++/v1/initializer_list
FN:85,_ZNKSt16initializer_listIbE4sizeEv
FN:85,_ZNKSt16initializer_listINSt3__16vectorIbNS0_9allocatorIbEEEEE4sizeEv
FN:89,_ZNKSt16initializer_listIbE5beginEv
FN:89,_ZNKSt16initializer_listINSt3__16vectorIbNS0_9allocatorIbEEEEE5beginEv
FN:93,_ZNKSt16initializer_listINSt3__16vectorIbNS0_9allocatorIbEEEEE3endEv
FN:93,_ZNKSt16initializer_listIbE3endEv
FNDA:0,_ZNKSt16initializer_listIbE4sizeEv
FNDA:18,_ZNKSt16initializer_listINSt3__16vectorIbNS0_9allocatorIbEEEEE4sizeEv
FNDA:0,_ZNKSt16initializer_listIbE5beginEv
FNDA:6,_ZNKSt16initializer_listINSt3__16vectorIbNS0_9allocatorIbEEEEE5beginEv
FNDA:0,_ZNKSt16initializer_listIbE3endEv
FNDA:6,_ZNKSt16initializer_listINSt3__16vectorIbNS0_9allocatorIbEEEEE3endEv
FNF:6
FNH:3
DA:85,18
DA:89,6
DA:93,6
LF:3
LH:3
end_of_record
SF:/Applications/Xcode.app/Contents/Developer/Toolchains/XcodeDefault.xctoolchain/usr/include/c++/v1/ios
FN:336,_ZNSt3__18ios_baseC2Ev
FN:653,_ZNSt3__19basic_iosIcNS_11char_traitsIcEEEC2Ev
FN:688,_ZNSt3__19basic_iosIcNS_11char_traitsIcEEE4initEPNS_15basic_streambufIcS2_EE
FNDA:0,_ZNSt3__18ios_baseC2Ev
FNDA:0,_ZNSt3__19basic_iosIcNS_11char_traitsIcEEEC2Ev
FNDA:0,_ZNSt3__19basic_iosIcNS_11char_traitsIcEEE4initEPNS_15basic_streambufIcS2_EE
FNF:3
FNH:0
DA:336,0
DA:337,0
DA:653,0
DA:654,0
DA:690,0
DA:691,0
DA:692,0
DA:693,0
LF:8
LH:0
end_of_record
SF:/Applications/Xcode.app/Contents/Developer/Toolchains/XcodeDefault.xctoolchain/usr/include/c++/v1/iosfwd
FN:117,_ZNSt3__115basic_stringbufIcNS_11char_traitsIcEENS_9allocatorIcEEED0Ev
FN:117,_ZNSt3__115basic_stringbufIcNS_11char_traitsIcEENS_9allocatorIcEEED1Ev
FN:117,_ZNSt3__115basic_stringbufIcNS_11char_traitsIcEENS_9allocatorIcEEED2Ev
FN:126,_ZNSt3__118basic_stringstreamIcNS_11char_traitsIcEENS_9allocatorIcEEED2Ev
FN:126,_ZNSt3__118basic_stringstreamIcNS_11char_traitsIcEENS_9allocatorIcEEED1Ev
FN:126,_ZNSt3__118basic_stringstreamIcNS_11char_traitsIcEENS_9allocatorIcEEED0Ev
FNDA:0,_ZNSt3__115basic_stringbufIcNS_11char_traitsIcEENS_9allocatorIcEEED1Ev
FNDA:0,_ZNSt3__115basic_stringbufIcNS_11char_traitsIcEENS_9allocatorIcEEED0Ev
FNDA:0,_ZNSt3__115basic_stringbufIcNS_11char_traitsIcEENS_9allocatorIcEEED2Ev
FNDA:0,_ZNSt3__118basic_stringstreamIcNS_11char_traitsIcEENS_9allocatorIcEEED1Ev
FNDA:0,_ZNSt3__118basic_stringstreamIcNS_11char_traitsIcEENS_9allocatorIcEEED0Ev
FNDA:0,_ZNSt3__118basic_stringstreamIcNS_11char_traitsIcEENS_9allocatorIcEEED2Ev
FNF:6
FNH:0
DA:117,0
DA:126,0
LF:2
LH:0
end_of_record
SF:/Applications/Xcode.app/Contents/Developer/Toolchains/XcodeDefault.xctoolchain/usr/include/c++/v1/istream
FN:190,_ZNSt3__113basic_istreamIcNS_11char_traitsIcEEEC2EPNS_15basic_streambufIcS2_EE
FN:1461,_ZNSt3__114basic_iostreamIcNS_11char_traitsIcEEEC2EPNS_15basic_streambufIcS2_EE
FNDA:0,_ZNSt3__113basic_istreamIcNS_11char_traitsIcEEEC2EPNS_15basic_streambufIcS2_EE
FNDA:0,_ZNSt3__114basic_iostreamIcNS_11char_traitsIcEEEC2EPNS_15basic_streambufIcS2_EE
FNF:2
FNH:0
DA:190,0
DA:191,0
DA:1461,0
DA:1462,0
DA:1463,0
LF:5
LH:0
end_of_record
SF:/Applications/Xcode.app/Contents/Developer/Toolchains/XcodeDefault.xctoolchain/usr/include/c++/v1/iterator
FN:592,_ZNSt3__110__distanceIPKbEENS_15iterator_traitsIT_E15difference_typeES4_S4_NS_26random_access_iterator_tagE
FN:592,_ZNSt3__110__distanceINS_14__bit_iteratorINS_6vectorIbNS_9allocatorIbEEEELb1ELm0EEEEENS_15iterator_traitsIT_E15difference_typeES8_S8_NS_26random_access_iterator_tagE
FN:592,_ZNSt3__110__distanceIPcEENS_15iterator_traitsIT_E15difference_typeES3_S3_NS_26random_access_iterator_tagE
FN:600,_ZNSt3__18distanceIPcEENS_15iterator_traitsIT_E15difference_typeES3_S3_
FN:600,_ZNSt3__18distanceINS_14__bit_iteratorINS_6vectorIbNS_9allocatorIbEEEELb1ELm0EEEEENS_15iterator_traitsIT_E15difference_typeES8_S8_
FN:600,_ZNSt3__18distanceIPKbEENS_15iterator_traitsIT_E15difference_typeES4_S4_
FNDA:0,_ZNSt3__110__distanceIPKbEENS_15iterator_traitsIT_E15difference_typeES4_S4_NS_26random_access_iterator_tagE
FNDA:0,_ZNSt3__110__distanceINS_14__bit_iteratorINS_6vectorIbNS_9allocatorIbEEEELb1ELm0EEEEENS_15iterator_traitsIT_E15difference_typeES8_S8_NS_26random_access_iterator_tagE
FNDA:0,_ZNSt3__110__distanceIPcEENS_15iterator_traitsIT_E15difference_typeES3_S3_NS_26random_access_iterator_tagE
FNDA:0,_ZNSt3__18distanceIPKbEENS_15iterator_traitsIT_E15difference_typeES4_S4_
FNDA:0,_ZNSt3__18distanceINS_14__bit_iteratorINS_6vectorIbNS_9allocatorIbEEEELb1ELm0EEEEENS_15iterator_traitsIT_E15difference_typeES8_S8_
FNDA:0,_ZNSt3__18distanceIPcEENS_15iterator_traitsIT_E15difference_typeES3_S3_
FNF:6
FNH:0
DA:594,0
DA:602,0
LF:2
LH:0
end_of_record
SF:/Applications/Xcode.app/Contents/Developer/Toolchains/XcodeDefault.xctoolchain/usr/include/c++/v1/limits
FN:213,_ZNSt3__123__libcpp_numeric_limitsImLb1EE3maxEv
FN:213,_ZNSt3__123__libcpp_numeric_limitsIlLb1EE3maxEv
FN:450,_ZNSt3__114numeric_limitsImE3maxEv
FN:450,_ZNSt3__114numeric_limitsIlE3maxEv
FNDA:0,_ZNSt3__123__libcpp_numeric_limitsImLb1EE3maxEv
FNDA:0,_ZNSt3__123__libcpp_numeric_limitsIlLb1EE3maxEv
FNDA:0,_ZNSt3__114numeric_limitsImE3maxEv
FNDA:0,_ZNSt3__114numeric_limitsIlE3maxEv
FNF:4
FNH:0
DA:213,0
DA:450,0
LF:2
LH:0
end_of_record
SF:/Applications/Xcode.app/Contents/Developer/Toolchains/XcodeDefault.xctoolchain/usr/include/c++/v1/memory
FN:977,_ZNSt3__114pointer_traitsIPcE10pointer_toERc
FN:977,_ZNSt3__114pointer_traitsIPKcE10pointer_toERS1_
FN:1095,_ZNSt3__116__to_raw_pointerIKmEEPT_S3_
FN:1095,_ZNSt3__116__to_raw_pointerImEEPT_S2_
FN:1095,_ZNSt3__116__to_raw_pointerINS_6vectorIbNS_9allocatorIbEEEEEEPT_S6_
FN:1095,_ZNSt3__116__to_raw_pointerIKcEEPT_S3_
FN:1501,_ZNSt3__116allocator_traitsINS_9allocatorImEEE8allocateERS2_m
FN:1501,_ZNSt3__116allocator_traitsINS_9allocatorIcEEE8allocateERS2_m
FN:1501,_ZNSt3__116allocator_traitsINS_9allocatorINS_6vectorIbNS1_IbEEEEEEE8allocateERS5_m
FN:1509,_ZNSt3__116allocator_traitsINS_9allocatorImEEE10deallocateERS2_Pmm
FN:1509,_ZNSt3__116allocator_traitsINS_9allocatorINS_6vectorIbNS1_IbEEEEEEE10deallocateERS5_PS4_m
FN:1515,_ZNSt3__116allocator_traitsINS_9allocatorINS_6vectorIbNS1_IbEEEEEEE9constructIS4_JRKS4_EEEvRS5_PT_DpOT0_
FN:1515,_ZNSt3__116allocator_traitsINS_9allocatorINS_6vectorIbNS1_IbEEEEEEE9constructIS4_JRS4_EEEvRS5_PT_DpOT0_
FN:1549,_ZNSt3__116allocator_traitsINS_9allocatorINS_6vectorIbNS1_IbEEEEEEE7destroyIS4_EEvRS5_PT_
FN:1553,_ZNSt3__116allocator_traitsINS_9allocatorIcEEE8max_sizeERKS2_
FN:1553,_ZNSt3__116allocator_traitsINS_9allocatorINS_6vectorIbNS1_IbEEEEEEE8max_sizeERKS5_
FN:1553,_ZNSt3__116allocator_traitsINS_9allocatorImEEE8max_sizeERKS2_
FN:1558,_ZNSt3__116allocator_traitsINS_9allocatorImEEE37select_on_container_copy_constructionERKS2_
FN:1558,_ZNSt3__116allocator_traitsINS_9allocatorINS_6vectorIbNS1_IbEEEEEEE37select_on_container_copy_constructionERKS5_
FN:1597,_ZNSt3__116allocator_traitsINS_9allocatorINS_6vectorIbNS1_IbEEEEEEE25__construct_range_forwardIPS4_S8_EEvRS5_T_SA_RT0_
FN:1597,_ZNSt3__116allocator_traitsINS_9allocatorINS_6vectorIbNS1_IbEEEEEEE25__construct_range_forwardIPKS4_PS4_EEvRS5_T_SC_RT0_
FN:1669,_ZNSt3__116allocator_traitsINS_9allocatorINS_6vectorIbNS1_IbEEEEEEE11__constructIS4_JRS4_EEEvNS_17integral_constantIbLb1EEERS5_PT_DpOT0_
FN:1669,_ZNSt3__116allocator_traitsINS_9allocatorINS_6vectorIbNS1_IbEEEEEEE11__constructIS4_JRKS4_EEEvNS_17integral_constantIbLb1EEERS5_PT_DpOT0_
FN:1681,_ZNSt3__116allocator_traitsINS_9allocatorINS_6vectorIbNS1_IbEEEEEEE9__destroyIS4_EEvNS_17integral_constantIbLb1EEERS5_PT_
FN:1691,_ZNSt3__116allocator_traitsINS_9allocatorImEEE10__max_sizeENS_17integral_constantIbLb1EEERKS2_
FN:1691,_ZNSt3__116allocator_traitsINS_9allocatorIcEEE10__max_sizeENS_17integral_constantIbLb1EEERKS2_
FN:1691,_ZNSt3__116allocator_traitsINS_9allocatorINS_6vectorIbNS1_IbEEEEEEE10__max_sizeENS_17integral_constantIbLb1EEERKS5_
FN:1703,_ZNSt3__116allocator_traitsINS_9allocatorINS_6vectorIbNS1_IbEEEEEEE39__select_on_container_copy_constructionENS_17integral_constantIbLb0EEERKS5_
FN:1703,_ZNSt3__116allocator_traitsINS_9allocatorImEEE39__select_on_container_copy_constructionENS_17integral_constantIbLb0EEERKS2_
FN:1736,_ZNSt3__19allocatorImEC2Ev
FN:1736,_ZNSt3__19allocatorINS_6vectorIbNS0_IbEEEEEC2Ev
FN:1736,_ZNSt3__19allocatorIcEC2Ev
FN:1742,_ZNSt3__19allocatorImE8allocateEmPKv
FN:1742,_ZNSt3__19allocatorIcE8allocateEmPKv
FN:1742,_ZNSt3__19allocatorINS_6vectorIbNS0_IbEEEEE8allocateEmPKv
FN:1749,_ZNSt3__19allocatorImE10deallocateEPmm
FN:1749,_ZNSt3__19allocatorINS_6vectorIbNS0_IbEEEEE10deallocateEPS3_m
FN:1751,_ZNKSt3__19allocatorImE8max_sizeEv
FN:1751,_ZNKSt3__19allocatorINS_6vectorIbNS0_IbEEEEE8max_sizeEv
FN:1751,_ZNKSt3__19allocatorIcE8max_sizeEv
FN:1757,_ZNSt3__19allocatorINS_6vectorIbNS0_IbEEEEE9constructIS3_JRS3_EEEvPT_DpOT0_
FN:1757,_ZNSt3__19allocatorINS_6vectorIbNS0_IbEEEEE9constructIS3_JRKS3_EEEvPT_DpOT0_
FN:1814,_ZNSt3__19allocatorINS_6vectorIbNS0_IbEEEEE7destroyEPS3_
FN:2043,_ZNSt3__122__compressed_pair_elemINS_12basic_stringIcNS_11char_traitsIcEENS_9allocatorIcEEE5__repELi0ELb0EEC2Ev
FN:2050,_ZNSt3__122__compressed_pair_elemImLi0ELb0EEC2IivEEOT_
FN:2050,_ZNSt3__122__compressed_pair_elemIPNS_6vectorIbNS_9allocatorIbEEEELi0ELb0EEC2IDnvEEOT_
FN:2064,_ZNSt3__122__compressed_pair_elemImLi0ELb0EE5__getEv
FN:2064,_ZNSt3__122__compressed_pair_elemIPNS_6vectorIbNS_9allocatorIbEEEELi0ELb0EE5__getEv
FN:2064,_ZNSt3__122__compressed_pair_elemINS_12basic_stringIcNS_11char_traitsIcEENS_9allocatorIcEEE5__repELi0ELb0EE5__getEv
FN:2066,_ZNKSt3__122__compressed_pair_elemINS_12basic_stringIcNS_11char_traitsIcEENS_9allocatorIcEEE5__repELi0ELb0EE5__getEv
FN:2066,_ZNKSt3__122__compressed_pair_elemIPNS_6vectorIbNS_9allocatorIbEEEELi0ELb0EE5__getEv
FN:2080,_ZNSt3__122__compressed_pair_elemINS_9allocatorINS_6vectorIbNS1_IbEEEEEELi1ELb1EEC2Ev
FN:2080,_ZNSt3__122__compressed_pair_elemINS_9allocatorImEELi1ELb1EEC2Ev
FN:2080,_ZNSt3__122__compressed_pair_elemINS_9allocatorIcEELi1ELb1EEC2Ev
FN:2087,_ZNSt3__122__compressed_pair_elemINS_9allocatorINS_6vectorIbNS1_IbEEEEEELi1ELb1EEC2IRKS5_vEEOT_
FN:2087,_ZNSt3__122__compressed_pair_elemINS_9allocatorImEELi1ELb1EEC2IS2_vEEOT_
FN:2087,_ZNSt3__122__compressed_pair_elemINS_9allocatorIcEELi1ELb1EEC2IRKS2_vEEOT_
FN:2102,_ZNSt3__122__compressed_pair_elemINS_9allocatorINS_6vectorIbNS1_IbEEEEEELi1ELb1EE5__getEv
FN:2102,_ZNSt3__122__compressed_pair_elemINS_9allocatorIcEELi1ELb1EE5__getEv
FN:2102,_ZNSt3__122__compressed_pair_elemINS_9allocatorImEELi1ELb1EE5__getEv
FN:2104,_ZNKSt3__122__compressed_pair_elemINS_9allocatorINS_6vectorIbNS1_IbEEEEEELi1ELb1EE5__getEv
FN:2104,_ZNKSt3__122__compressed_pair_elemINS_9allocatorImEELi1ELb1EE5__getEv
FN:2104,_ZNKSt3__122__compressed_pair_elemINS_9allocatorIcEELi1ELb1EE5__getEv
FN:2134,_ZNSt3__117__compressed_pairINS_12basic_stringIcNS_11char_traitsIcEENS_9allocatorIcEEE5__repES5_EC1ILb1EvEEv
FN:2134,_ZNSt3__117__compressed_pairINS_12basic_stringIcNS_11char_traitsIcEENS_9allocatorIcEEE5__repES5_EC2ILb1EvEEv
FN:2140,_ZNSt3__117__compressed_pairIPNS_6vectorIbNS_9allocatorIbEEEENS2_IS4_EEEC1IDnLb1EEEOT_
FN:2140,_ZNSt3__117__compressed_pairImNS_9allocatorImEEEC1IiLb1EEEOT_
FN:2140,_ZNSt3__117__compressed_pairIPNS_6vectorIbNS_9allocatorIbEEEENS2_IS4_EEEC2IDnLb1EEEOT_
FN:2140,_ZNSt3__117__compressed_pairImNS_9allocatorImEEEC2IiLb1EEEOT_
FN:2145,_ZNSt3__117__compressed_pairINS_12basic_stringIcNS_11char_traitsIcEENS_9allocatorIcEEE5__repES5_EC2IRKS5_EENS_12__second_tagEOT_
FN:2145,_ZNSt3__117__compressed_pairINS_12basic_stringIcNS_11char_traitsIcEENS_9allocatorIcEEE5__repES5_EC1IRKS5_EENS_12__second_tagEOT_
FN:2150,_ZNSt3__117__compressed_pairImNS_9allocatorImEEEC1IiS2_EEOT_OT0_
FN:2150,_ZNSt3__117__compressed_pairIPNS_6vectorIbNS_9allocatorIbEEEENS2_IS4_EEEC1IDnRKS6_EEOT_OT0_
FN:2150,_ZNSt3__117__compressed_pairImNS_9allocatorImEEEC2IiS2_EEOT_OT0_
FN:2150,_ZNSt3__117__compressed_pairIPNS_6vectorIbNS_9allocatorIbEEEENS2_IS4_EEEC2IDnRKS6_EEOT_OT0_
FN:2179,_ZNSt3__117__compressed_pairINS_12basic_stringIcNS_11char_traitsIcEENS_9allocatorIcEEE5__repES5_E5firstEv
FN:2179,_ZNSt3__117__compressed_pairIPNS_6vectorIbNS_9allocatorIbEEEENS2_IS4_EEE5firstEv
FN:2179,_ZNSt3__117__compressed_pairImNS_9allocatorImEEE5firstEv
FN:2184,_ZNKSt3__117__compressed_pairINS_12basic_stringIcNS_11char_traitsIcEENS_9allocatorIcEEE5__repES5_E5firstEv
FN:2184,_ZNKSt3__117__compressed_pairIPNS_6vectorIbNS_9allocatorIbEEEENS2_IS4_EEE5firstEv
FN:2189,_ZNSt3__117__compressed_pairImNS_9allocatorImEEE6secondEv
FN:2189,_ZNSt3__117__compressed_pairIPNS_6vectorIbNS_9allocatorIbEEEENS2_IS4_EEE6secondEv
FN:2189,_ZNSt3__117__compressed_pairINS_12basic_stringIcNS_11char_traitsIcEENS_9allocatorIcEEE5__repES5_E6secondEv
FN:2194,_ZNKSt3__117__compressed_pairINS_12basic_stringIcNS_11char_traitsIcEENS_9allocatorIcEEE5__repES5_E6secondEv
FN:2194,_ZNKSt3__117__compressed_pairIPNS_6vectorIbNS_9allocatorIbEEEENS2_IS4_EEE6secondEv
FN:2194,_ZNKSt3__117__compressed_pairImNS_9allocatorImEEE6secondEv
FNDA:0,_ZNSt3__114pointer_traitsIPKcE10pointer_toERS1_
FNDA:0,_ZNSt3__114pointer_traitsIPcE10pointer_toERc
FNDA:0,_ZNSt3__116__to_raw_pointerINS_6vectorIbNS_9allocatorIbEEEEEEPT_S6_
FNDA:0,_ZNSt3__116__to_raw_pointerIKcEEPT_S3_
FNDA:0,_ZNSt3__116__to_raw_pointerImEEPT_S2_
FNDA:0,_ZNSt3__116__to_raw_pointerIKmEEPT_S3_
FNDA:0,_ZNSt3__116allocator_traitsINS_9allocatorImEEE8allocateERS2_m
FNDA:0,_ZNSt3__116allocator_traitsINS_9allocatorINS_6vectorIbNS1_IbEEEEEEE8allocateERS5_m
FNDA:0,_ZNSt3__116allocator_traitsINS_9allocatorIcEEE8allocateERS2_m
FNDA:0,_ZNSt3__116allocator_traitsINS_9allocatorINS_6vectorIbNS1_IbEEEEEEE10deallocateERS5_PS4_m
FNDA:0,_ZNSt3__116allocator_traitsINS_9allocatorImEEE10deallocateERS2_Pmm
FNDA:0,_ZNSt3__116allocator_traitsINS_9allocatorINS_6vectorIbNS1_IbEEEEEEE9constructIS4_JRKS4_EEEvRS5_PT_DpOT0_
FNDA:0,_ZNSt3__116allocator_traitsINS_9allocatorINS_6vectorIbNS1_IbEEEEEEE9constructIS4_JRS4_EEEvRS5_PT_DpOT0_
FNDA:0,_ZNSt3__116allocator_traitsINS_9allocatorINS_6vectorIbNS1_IbEEEEEEE7destroyIS4_EEvRS5_PT_
FNDA:0,_ZNSt3__116allocator_traitsINS_9allocatorImEEE8max_sizeERKS2_
FNDA:0,_ZNSt3__116allocator_traitsINS_9allocatorINS_6vectorIbNS1_IbEEEEEEE8max_sizeERKS5_
FNDA:0,_ZNSt3__116allocator_traitsINS_9allocatorIcEEE8max_sizeERKS2_
FNDA:0,_ZNSt3__116allocator_traitsINS_9allocatorImEEE37select_on_container_copy_constructionERKS2_
FNDA:0,_ZNSt3__116allocator_traitsINS_9allocatorINS_6vectorIbNS1_IbEEEEEEE37select_on_container_copy_constructionERKS5_
FNDA:0,_ZNSt3__116allocator_traitsINS_9allocatorINS_6vectorIbNS1_IbEEEEEEE25__construct_range_forwardIPKS4_PS4_EEvRS5_T_SC_RT0_
FNDA:0,_ZNSt3__116allocator_traitsINS_9allocatorINS_6vectorIbNS1_IbEEEEEEE25__construct_range_forwardIPS4_S8_EEvRS5_T_SA_RT0_
FNDA:0,_ZNSt3__116allocator_traitsINS_9allocatorINS_6vectorIbNS1_IbEEEEEEE11__constructIS4_JRKS4_EEEvNS_17integral_constantIbLb1EEERS5_PT_DpOT0_
FNDA:0,_ZNSt3__116allocator_traitsINS_9allocatorINS_6vectorIbNS1_IbEEEEEEE11__constructIS4_JRS4_EEEvNS_17integral_constantIbLb1EEERS5_PT_DpOT0_
FNDA:0,_ZNSt3__116allocator_traitsINS_9allocatorINS_6vectorIbNS1_IbEEEEEEE9__destroyIS4_EEvNS_17integral_constantIbLb1EEERS5_PT_
FNDA:0,_ZNSt3__116allocator_traitsINS_9allocatorImEEE10__max_sizeENS_17integral_constantIbLb1EEERKS2_
FNDA:0,_ZNSt3__116allocator_traitsINS_9allocatorINS_6vectorIbNS1_IbEEEEEEE10__max_sizeENS_17integral_constantIbLb1EEERKS5_
FNDA:0,_ZNSt3__116allocator_traitsINS_9allocatorIcEEE10__max_sizeENS_17integral_constantIbLb1EEERKS2_
FNDA:0,_ZNSt3__116allocator_traitsINS_9allocatorImEEE39__select_on_container_copy_constructionENS_17integral_constantIbLb0EEERKS2_
FNDA:0,_ZNSt3__116allocator_traitsINS_9allocatorINS_6vectorIbNS1_IbEEEEEEE39__select_on_container_copy_constructionENS_17integral_constantIbLb0EEERKS5_
FNDA:12,_ZNSt3__19allocatorIcEC2Ev
FNDA:0,_ZNSt3__19allocatorImEC2Ev
FNDA:6,_ZNSt3__19allocatorINS_6vectorIbNS0_IbEEEEEC2Ev
FNDA:0,_ZNSt3__19allocatorImE8allocateEmPKv
FNDA:0,_ZNSt3__19allocatorINS_6vectorIbNS0_IbEEEEE8allocateEmPKv
FNDA:0,_ZNSt3__19allocatorIcE8allocateEmPKv
FNDA:0,_ZNSt3__19allocatorINS_6vectorIbNS0_IbEEEEE10deallocateEPS3_m
FNDA:0,_ZNSt3__19allocatorImE10deallocateEPmm
FNDA:0,_ZNKSt3__19allocatorImE8max_sizeEv
FNDA:0,_ZNKSt3__19allocatorINS_6vectorIbNS0_IbEEEEE8max_sizeEv
FNDA:0,_ZNKSt3__19allocatorIcE8max_sizeEv
FNDA:0,_ZNSt3__19allocatorINS_6vectorIbNS0_IbEEEEE9constructIS3_JRKS3_EEEvPT_DpOT0_
FNDA:0,_ZNSt3__19allocatorINS_6vectorIbNS0_IbEEEEE9constructIS3_JRS3_EEEvPT_DpOT0_
FNDA:0,_ZNSt3__19allocatorINS_6vectorIbNS0_IbEEEEE7destroyEPS3_
FNDA:12,_ZNSt3__122__compressed_pair_elemINS_12basic_stringIcNS_11char_traitsIcEENS_9allocatorIcEEE5__repELi0ELb0EEC2Ev
FNDA:0,_ZNSt3__122__compressed_pair_elemImLi0ELb0EEC2IivEEOT_
FNDA:6,_ZNSt3__122__compressed_pair_elemIPNS_6vectorIbNS_9allocatorIbEEEELi0ELb0EEC2IDnvEEOT_
FNDA:0,_ZNSt3__122__compressed_pair_elemImLi0ELb0EE5__getEv
FNDA:0,_ZNSt3__122__compressed_pair_elemIPNS_6vectorIbNS_9allocatorIbEEEELi0ELb0EE5__getEv
FNDA:0,_ZNSt3__122__compressed_pair_elemINS_12basic_stringIcNS_11char_traitsIcEENS_9allocatorIcEEE5__repELi0ELb0EE5__getEv
FNDA:0,_ZNKSt3__122__compressed_pair_elemIPNS_6vectorIbNS_9allocatorIbEEEELi0ELb0EE5__getEv
FNDA:0,_ZNKSt3__122__compressed_pair_elemINS_12basic_stringIcNS_11char_traitsIcEENS_9allocatorIcEEE5__repELi0ELb0EE5__getEv
FNDA:12,_ZNSt3__122__compressed_pair_elemINS_9allocatorIcEELi1ELb1EEC2Ev
FNDA:0,_ZNSt3__122__compressed_pair_elemINS_9allocatorImEELi1ELb1EEC2Ev
FNDA:6,_ZNSt3__122__compressed_pair_elemINS_9allocatorINS_6vectorIbNS1_IbEEEEEELi1ELb1EEC2Ev
FNDA:0,_ZNSt3__122__compressed_pair_elemINS_9allocatorImEELi1ELb1EEC2IS2_vEEOT_
FNDA:0,_ZNSt3__122__compressed_pair_elemINS_9allocatorINS_6vectorIbNS1_IbEEEEEELi1ELb1EEC2IRKS5_vEEOT_
FNDA:0,_ZNSt3__122__compressed_pair_elemINS_9allocatorIcEELi1ELb1EEC2IRKS2_vEEOT_
FNDA:0,_ZNSt3__122__compressed_pair_elemINS_9allocatorINS_6vectorIbNS1_IbEEEEEELi1ELb1EE5__getEv
FNDA:0,_ZNSt3__122__compressed_pair_elemINS_9allocatorImEELi1ELb1EE5__getEv
FNDA:0,_ZNSt3__122__compressed_pair_elemINS_9allocatorIcEELi1ELb1EE5__getEv
FNDA:0,_ZNKSt3__122__compressed_pair_elemINS_9allocatorImEELi1ELb1EE5__getEv
FNDA:0,_ZNKSt3__122__compressed_pair_elemINS_9allocatorINS_6vectorIbNS1_IbEEEEEELi1ELb1EE5__getEv
FNDA:0,_ZNKSt3__122__compressed_pair_elemINS_9allocatorIcEELi1ELb1EE5__getEv
FNDA:12,_ZNSt3__117__compressed_pairINS_12basic_stringIcNS_11char_traitsIcEENS_9allocatorIcEEE5__repES5_EC1ILb1EvEEv
FNDA:12,_ZNSt3__117__compressed_pairINS_12basic_stringIcNS_11char_traitsIcEENS_9allocatorIcEEE5__repES5_EC2ILb1EvEEv
FNDA:0,_ZNSt3__117__compressed_pairImNS_9allocatorImEEEC1IiLb1EEEOT_
FNDA:0,_ZNSt3__117__compressed_pairImNS_9allocatorImEEEC2IiLb1EEEOT_
FNDA:6,_ZNSt3__117__compressed_pairIPNS_6vectorIbNS_9allocatorIbEEEENS2_IS4_EEEC1IDnLb1EEEOT_
FNDA:6,_ZNSt3__117__compressed_pairIPNS_6vectorIbNS_9allocatorIbEEEENS2_IS4_EEEC2IDnLb1EEEOT_
FNDA:0,_ZNSt3__117__compressed_pairINS_12basic_stringIcNS_11char_traitsIcEENS_9allocatorIcEEE5__repES5_EC1IRKS5_EENS_12__second_tagEOT_
FNDA:0,_ZNSt3__117__compressed_pairINS_12basic_stringIcNS_11char_traitsIcEENS_9allocatorIcEEE5__repES5_EC2IRKS5_EENS_12__second_tagEOT_
FNDA:0,_ZNSt3__117__compressed_pairImNS_9allocatorImEEEC1IiS2_EEOT_OT0_
FNDA:0,_ZNSt3__117__compressed_pairImNS_9allocatorImEEEC2IiS2_EEOT_OT0_
FNDA:0,_ZNSt3__117__compressed_pairIPNS_6vectorIbNS_9allocatorIbEEEENS2_IS4_EEEC1IDnRKS6_EEOT_OT0_
FNDA:0,_ZNSt3__117__compressed_pairIPNS_6vectorIbNS_9allocatorIbEEEENS2_IS4_EEEC2IDnRKS6_EEOT_OT0_
FNDA:0,_ZNSt3__117__compressed_pairImNS_9allocatorImEEE5firstEv
FNDA:0,_ZNSt3__117__compressed_pairIPNS_6vectorIbNS_9allocatorIbEEEENS2_IS4_EEE5firstEv
FNDA:0,_ZNSt3__117__compressed_pairINS_12basic_stringIcNS_11char_traitsIcEENS_9allocatorIcEEE5__repES5_E5firstEv
FNDA:0,_ZNKSt3__117__compressed_pairIPNS_6vectorIbNS_9allocatorIbEEEENS2_IS4_EEE5firstEv
FNDA:0,_ZNKSt3__117__compressed_pairINS_12basic_stringIcNS_11char_traitsIcEENS_9allocatorIcEEE5__repES5_E5firstEv
FNDA:0,_ZNSt3__117__compressed_pairIPNS_6vectorIbNS_9allocatorIbEEEENS2_IS4_EEE6secondEv
FNDA:0,_ZNSt3__117__compressed_pairImNS_9allocatorImEEE6secondEv
FNDA:0,_ZNSt3__117__compressed_pairINS_12basic_stringIcNS_11char_traitsIcEENS_9allocatorIcEEE5__repES5_E6secondEv
FNDA:0,_ZNKSt3__117__compressed_pairImNS_9allocatorImEEE6secondEv
FNDA:0,_ZNKSt3__117__compressed_pairIPNS_6vectorIbNS_9allocatorIbEEEENS2_IS4_EEE6secondEv
FNDA:0,_ZNKSt3__117__compressed_pairINS_12basic_stringIcNS_11char_traitsIcEENS_9allocatorIcEEE5__repES5_E6secondEv
FNF:86
FNH:10
DA:979,0
DA:1097,0
DA:1502,0
DA:1510,0
DA:1516,0
DA:1517,0
DA:1550,0
DA:1554,0
DA:1559,0
DA:1560,0
DA:1561,0
DA:1599,0
DA:1600,0
DA:1601,0
DA:1670,0
DA:1682,0
DA:1692,0
DA:1704,0
DA:1736,18
DA:1744,0
DA:1745,0
DA:1747,0
DA:1750,0
DA:1752,0
DA:1759,0
DA:1760,0
DA:1814,0
DA:2043,12
DA:2051,6
DA:2064,0
DA:2066,0
DA:2080,18
DA:2088,0
DA:2102,0
DA:2104,0
DA:2134,24
DA:2141,12
DA:2146,0
DA:2151,0
DA:2180,0
DA:2185,0
DA:2190,0
DA:2195,0
LF:43
LH:6
end_of_record
SF:/Applications/Xcode.app/Contents/Developer/Toolchains/XcodeDefault.xctoolchain/usr/include/c++/v1/new
FN:222,_ZNSt3__110__allocateEm
FN:230,_ZNSt3__119__libcpp_deallocateEPv
FNDA:0,_ZNSt3__110__allocateEm
FNDA:0,_ZNSt3__119__libcpp_deallocateEPv
FNF:2
FNH:0
DA:226,0
DA:234,0
DA:236,0
LF:3
LH:0
end_of_record
SF:/Applications/Xcode.app/Contents/Developer/Toolchains/XcodeDefault.xctoolchain/usr/include/c++/v1/ostream
FN:236,_ZNSt3__113basic_ostreamIcNS_11char_traitsIcEEEC2Ev
FNDA:0,_ZNSt3__113basic_ostreamIcNS_11char_traitsIcEEEC2Ev
FNF:1
FNH:0
DA:236,0
LF:1
LH:0
end_of_record
SF:/Applications/Xcode.app/Contents/Developer/Toolchains/XcodeDefault.xctoolchain/usr/include/c++/v1/sstream
FN:242,_ZNSt3__115basic_stringbufIcNS_11char_traitsIcEENS_9allocatorIcEEEC2Ej
FN:242,_ZNSt3__115basic_stringbufIcNS_11char_traitsIcEENS_9allocatorIcEEEC1Ej
FN:439,_ZNKSt3__115basic_stringbufIcNS_11char_traitsIcEENS_9allocatorIcEEE3strEv
FN:454,_ZNSt3__115basic_stringbufIcNS_11char_traitsIcEENS_9allocatorIcEEE3strERKNS_12basic_stringIcS2_S4_EE
FN:479,_ZNSt3__115basic_stringbufIcNS_11char_traitsIcEENS_9allocatorIcEEE9underflowEv
FN:495,_ZNSt3__115basic_stringbufIcNS_11char_traitsIcEENS_9allocatorIcEEE9pbackfailEi
FN:519,_ZNSt3__115basic_stringbufIcNS_11char_traitsIcEENS_9allocatorIcEEE8overflowEi
FN:561,_ZNSt3__115basic_stringbufIcNS_11char_traitsIcEENS_9allocatorIcEEE7seekoffExNS_8ios_base7seekdirEj
FN:612,_ZNSt3__115basic_stringbufIcNS_11char_traitsIcEENS_9allocatorIcEEE7seekposENS_4fposI11__mbstate_tEEj
FN:900,_ZNSt3__118basic_stringstreamIcNS_11char_traitsIcEENS_9allocatorIcEEEC1Ej
FN:961,_ZNKSt3__118basic_stringstreamIcNS_11char_traitsIcEENS_9allocatorIcEEE3strEv
FNDA:0,_ZNSt3__115basic_stringbufIcNS_11char_traitsIcEENS_9allocatorIcEEEC1Ej
FNDA:0,_ZNSt3__115basic_stringbufIcNS_11char_traitsIcEENS_9allocatorIcEEEC2Ej
FNDA:0,_ZNKSt3__115basic_stringbufIcNS_11char_traitsIcEENS_9allocatorIcEEE3strEv
FNDA:0,_ZNSt3__115basic_stringbufIcNS_11char_traitsIcEENS_9allocatorIcEEE3strERKNS_12basic_stringIcS2_S4_EE
FNDA:0,_ZNSt3__115basic_stringbufIcNS_11char_traitsIcEENS_9allocatorIcEEE9underflowEv
FNDA:0,_ZNSt3__115basic_stringbufIcNS_11char_traitsIcEENS_9allocatorIcEEE9pbackfailEi
FNDA:0,_ZNSt3__115basic_stringbufIcNS_11char_traitsIcEENS_9allocatorIcEEE8overflowEi
FNDA:0,_ZNSt3__115basic_stringbufIcNS_11char_traitsIcEENS_9allocatorIcEEE7seekoffExNS_8ios_base7seekdirEj
FNDA:0,_ZNSt3__115basic_stringbufIcNS_11char_traitsIcEENS_9allocatorIcEEE7seekposENS_4fposI11__mbstate_tEEj
FNDA:0,_ZNSt3__118basic_stringstreamIcNS_11char_traitsIcEENS_9allocatorIcEEEC1Ej
FNDA:0,_ZNKSt3__118basic_stringstreamIcNS_11char_traitsIcEENS_9allocatorIcEEE3strEv
FNF:11
FNH:0
DA:213,0
DA:243,0
DA:244,0
DA:245,0
DA:246,0
DA:247,0
DA:441,0
DA:443,0
DA:444,0
DA:445,0
DA:447,0
DA:448,0
DA:449,0
DA:450,0
DA:456,0
DA:457,0
DA:458,0
DA:460,0
DA:461,0
DA:462,0
DA:463,0
DA:464,0
DA:465,0
DA:467,0
DA:468,0
DA:469,0
DA:470,0
DA:471,0
DA:472,0
DA:473,0
DA:474,0
DA:475,0
DA:481,0
DA:482,0
DA:483,0
DA:485,0
DA:486,0
DA:487,0
DA:488,0
DA:489,0
DA:490,0
DA:491,0
DA:497,0
DA:498,0
DA:499,0
DA:501,0
DA:503,0
DA:504,0
DA:506,0
DA:507,0
DA:509,0
DA:510,0
DA:511,0
DA:513,0
DA:514,0
DA:515,0
DA:521,0
DA:523,0
DA:524,0
DA:526,0
DA:527,0
DA:532,0
DA:533,0
DA:534,0
DA:535,0
DA:536,0
DA:537,0
DA:538,0
DA:539,0
DA:541,0
DA:544,0
DA:545,0
DA:547,0
DA:548,0
DA:549,0
DA:551,0
DA:552,0
DA:553,0
DA:554,0
DA:556,0
DA:557,0
DA:565,0
DA:566,0
DA:567,0
DA:568,0
DA:569,0
DA:570,0
DA:571,0
DA:573,0
DA:576,0
DA:577,0
DA:579,0
DA:580,0
DA:582,0
DA:583,0
DA:585,0
DA:586,0
DA:588,0
DA:590,0
DA:591,0
DA:592,0
DA:593,0
DA:595,0
DA:596,0
DA:597,0
DA:598,0
DA:599,0
DA:600,0
DA:601,0
DA:602,0
DA:604,0
DA:605,0
DA:606,0
DA:607,0
DA:608,0
DA:615,0
DA:876,0
DA:901,0
DA:902,0
DA:903,0
DA:904,0
DA:963,0
LF:122
LH:0
end_of_record
SF:/Applications/Xcode.app/Contents/Developer/Toolchains/XcodeDefault.xctoolchain/usr/include/c++/v1/stdexcept
FN:136,_ZNSt12length_errorC1EPKc
FN:136,_ZNSt12length_errorC2EPKc
FN:222,_ZNSt3__120__throw_length_errorEPKc
FNDA:0,_ZNSt12length_errorC1EPKc
FNDA:0,_ZNSt12length_errorC2EPKc
FNDA:0,_ZNSt3__120__throw_length_errorEPKc
FNF:3
FNH:0
DA:136,0
DA:225,0
DA:230,0
LF:3
LH:0
end_of_record
SF:/Applications/Xcode.app/Contents/Developer/Toolchains/XcodeDefault.xctoolchain/usr/include/c++/v1/streambuf
FN:218,_ZNSt3__115basic_streambufIcNS_11char_traitsIcEEE5sputcEc
FN:236,_ZNKSt3__115basic_streambufIcNS_11char_traitsIcEEE5ebackEv
FN:237,_ZNKSt3__115basic_streambufIcNS_11char_traitsIcEEE4gptrEv
FN:238,_ZNKSt3__115basic_streambufIcNS_11char_traitsIcEEE5egptrEv
FN:244,_ZNSt3__115basic_streambufIcNS_11char_traitsIcEEE4setgEPcS4_S4_
FN:251,_ZNKSt3__115basic_streambufIcNS_11char_traitsIcEEE5pbaseEv
FN:252,_ZNKSt3__115basic_streambufIcNS_11char_traitsIcEEE4pptrEv
FN:253,_ZNKSt3__115basic_streambufIcNS_11char_traitsIcEEE5epptrEv
FN:256,_ZNSt3__115basic_streambufIcNS_11char_traitsIcEEE5pbumpEi
FN:259,_ZNSt3__115basic_streambufIcNS_11char_traitsIcEEE4setpEPcS4_
FNDA:0,_ZNSt3__115basic_streambufIcNS_11char_traitsIcEEE5sputcEc
FNDA:0,_ZNKSt3__115basic_streambufIcNS_11char_traitsIcEEE5ebackEv
FNDA:0,_ZNKSt3__115basic_streambufIcNS_11char_traitsIcEEE4gptrEv
FNDA:0,_ZNKSt3__115basic_streambufIcNS_11char_traitsIcEEE5egptrEv
FNDA:0,_ZNSt3__115basic_streambufIcNS_11char_traitsIcEEE4setgEPcS4_S4_
FNDA:0,_ZNKSt3__115basic_streambufIcNS_11char_traitsIcEEE5pbaseEv
FNDA:0,_ZNKSt3__115basic_streambufIcNS_11char_traitsIcEEE4pptrEv
FNDA:0,_ZNKSt3__115basic_streambufIcNS_11char_traitsIcEEE5epptrEv
FNDA:0,_ZNSt3__115basic_streambufIcNS_11char_traitsIcEEE5pbumpEi
FNDA:0,_ZNSt3__115basic_streambufIcNS_11char_traitsIcEEE4setpEPcS4_
FNF:10
FNH:0
DA:219,0
DA:220,0
DA:221,0
DA:222,0
DA:223,0
DA:236,0
DA:237,0
DA:238,0
DA:245,0
DA:246,0
DA:247,0
DA:248,0
DA:251,0
DA:252,0
DA:253,0
DA:256,0
DA:260,0
DA:261,0
DA:262,0
LF:19
LH:0
end_of_record
SF:/Applications/Xcode.app/Contents/Developer/Toolchains/XcodeDefault.xctoolchain/usr/include/c++/v1/string
FN:508,_ZNSt3__14fposI11__mbstate_tEC1Ex
FN:508,_ZNSt3__14fposI11__mbstate_tEC2Ex
FN:510,_ZNKSt3__14fposI11__mbstate_tEcvxEv
FN:888,_ZNKSt3__112basic_stringIcNS_11char_traitsIcEENS_9allocatorIcEEE4sizeEv
FN:892,_ZNKSt3__112basic_stringIcNS_11char_traitsIcEENS_9allocatorIcEEE8capacityEv
FN:897,_ZNSt3__112basic_stringIcNS_11char_traitsIcEENS_9allocatorIcEEE6resizeEm
FN:1127,_ZNKSt3__112basic_stringIcNS_11char_traitsIcEENS_9allocatorIcEEE5c_strEv
FN:1129,_ZNKSt3__112basic_stringIcNS_11char_traitsIcEENS_9allocatorIcEEE4dataEv
FN:1136,_ZNKSt3__112basic_stringIcNS_11char_traitsIcEENS_9allocatorIcEEE13get_allocatorEv
FN:1220,_ZNKSt3__112basic_stringIcNS_11char_traitsIcEENS_9allocatorIcEEE9__is_longEv
FN:1234,_ZNSt3__112basic_stringIcNS_11char_traitsIcEENS_9allocatorIcEEE7__allocEv
FN:1237,_ZNKSt3__112basic_stringIcNS_11char_traitsIcEENS_9allocatorIcEEE7__allocEv
FN:1261,_ZNSt3__112basic_stringIcNS_11char_traitsIcEENS_9allocatorIcEEE16__set_short_sizeEm
FN:1269,_ZNKSt3__112basic_stringIcNS_11char_traitsIcEENS_9allocatorIcEEE16__get_short_sizeEv
FN:1279,_ZNSt3__112basic_stringIcNS_11char_traitsIcEENS_9allocatorIcEEE15__set_long_sizeEm
FN:1282,_ZNKSt3__112basic_stringIcNS_11char_traitsIcEENS_9allocatorIcEEE15__get_long_sizeEv
FN:1289,_ZNSt3__112basic_stringIcNS_11char_traitsIcEENS_9allocatorIcEEE14__set_long_capEm
FN:1292,_ZNKSt3__112basic_stringIcNS_11char_traitsIcEENS_9allocatorIcEEE14__get_long_capEv
FN:1296,_ZNSt3__112basic_stringIcNS_11char_traitsIcEENS_9allocatorIcEEE18__set_long_pointerEPc
FN:1302,_ZNKSt3__112basic_stringIcNS_11char_traitsIcEENS_9allocatorIcEEE18__get_long_pointerEv
FN:1305,_ZNSt3__112basic_stringIcNS_11char_traitsIcEENS_9allocatorIcEEE19__get_short_pointerEv
FN:1308,_ZNKSt3__112basic_stringIcNS_11char_traitsIcEENS_9allocatorIcEEE19__get_short_pointerEv
FN:1314,_ZNKSt3__112basic_stringIcNS_11char_traitsIcEENS_9allocatorIcEEE13__get_pointerEv
FN:1318,_ZNSt3__112basic_stringIcNS_11char_traitsIcEENS_9allocatorIcEEE6__zeroEv
FN:1327,_ZNSt3__112basic_stringIcNS_11char_traitsIcEENS_9allocatorIcEEE10__align_itILm16EEEmm
FN:1331,_ZNSt3__112basic_stringIcNS_11char_traitsIcEENS_9allocatorIcEEE11__recommendEm
FN:1492,_ZNSt3__112basic_stringIcNS_11char_traitsIcEENS_9allocatorIcEEEC2Ev
FN:1492,_ZNSt3__112basic_stringIcNS_11char_traitsIcEENS_9allocatorIcEEEC1Ev
FN:1503,_ZNSt3__112basic_stringIcNS_11char_traitsIcEENS_9allocatorIcEEEC2ERKS4_
FN:1503,_ZNSt3__112basic_stringIcNS_11char_traitsIcEENS_9allocatorIcEEEC1ERKS4_
FN:1568,_ZNSt3__112basic_stringIcNS_11char_traitsIcEENS_9allocatorIcEEEC1EPKc
FN:1568,_ZNSt3__112basic_stringIcNS_11char_traitsIcEENS_9allocatorIcEEEC2EPKc
FN:1824,_ZNSt3__112basic_stringIcNS_11char_traitsIcEENS_9allocatorIcEEE6__initIPcEENS_9enable_ifIXsr21__is_forward_iteratorIT_EE5valueEvE4typeES9_S9_
FN:1862,_ZNSt3__112basic_stringIcNS_11char_traitsIcEENS_9allocatorIcEEEC2IPcEET_S8_RKS4_
FN:1862,_ZNSt3__112basic_stringIcNS_11char_traitsIcEENS_9allocatorIcEEEC1IPcEET_S8_RKS4_
FN:2870,_ZNKSt3__112basic_stringIcNS_11char_traitsIcEENS_9allocatorIcEEE8max_sizeEv
FNDA:0,_ZNSt3__14fposI11__mbstate_tEC1Ex
FNDA:0,_ZNSt3__14fposI11__mbstate_tEC2Ex
FNDA:0,_ZNKSt3__14fposI11__mbstate_tEcvxEv
FNDA:0,_ZNKSt3__112basic_stringIcNS_11char_traitsIcEENS_9allocatorIcEEE4sizeEv
FNDA:0,_ZNKSt3__112basic_stringIcNS_11char_traitsIcEENS_9allocatorIcEEE8capacityEv
FNDA:0,_ZNSt3__112basic_stringIcNS_11char_traitsIcEENS_9allocatorIcEEE6resizeEm
FNDA:0,_ZNKSt3__112basic_stringIcNS_11char_traitsIcEENS_9allocatorIcEEE5c_strEv
FNDA:0,_ZNKSt3__112basic_stringIcNS_11char_traitsIcEENS_9allocatorIcEEE4dataEv
FNDA:0,_ZNKSt3__112basic_stringIcNS_11char_traitsIcEENS_9allocatorIcEEE13get_allocatorEv
FNDA:0,_ZNKSt3__112basic_stringIcNS_11char_traitsIcEENS_9allocatorIcEEE9__is_longEv
FNDA:0,_ZNSt3__112basic_stringIcNS_11char_traitsIcEENS_9allocatorIcEEE7__allocEv
FNDA:0,_ZNKSt3__112basic_stringIcNS_11char_traitsIcEENS_9allocatorIcEEE7__allocEv
FNDA:0,_ZNSt3__112basic_stringIcNS_11char_traitsIcEENS_9allocatorIcEEE16__set_short_sizeEm
FNDA:0,_ZNKSt3__112basic_stringIcNS_11char_traitsIcEENS_9allocatorIcEEE16__get_short_sizeEv
FNDA:0,_ZNSt3__112basic_stringIcNS_11char_traitsIcEENS_9allocatorIcEEE15__set_long_sizeEm
FNDA:0,_ZNKSt3__112basic_stringIcNS_11char_traitsIcEENS_9allocatorIcEEE15__get_long_sizeEv
FNDA:0,_ZNSt3__112basic_stringIcNS_11char_traitsIcEENS_9allocatorIcEEE14__set_long_capEm
FNDA:0,_ZNKSt3__112basic_stringIcNS_11char_traitsIcEENS_9allocatorIcEEE14__get_long_capEv
FNDA:0,_ZNSt3__112basic_stringIcNS_11char_traitsIcEENS_9allocatorIcEEE18__set_long_pointerEPc
FNDA:0,_ZNKSt3__112basic_stringIcNS_11char_traitsIcEENS_9allocatorIcEEE18__get_long_pointerEv
FNDA:0,_ZNSt3__112basic_stringIcNS_11char_traitsIcEENS_9allocatorIcEEE19__get_short_pointerEv
FNDA:0,_ZNKSt3__112basic_stringIcNS_11char_traitsIcEENS_9allocatorIcEEE19__get_short_pointerEv
FNDA:0,_ZNKSt3__112basic_stringIcNS_11char_traitsIcEENS_9allocatorIcEEE13__get_pointerEv
FNDA:0,_ZNSt3__112basic_stringIcNS_11char_traitsIcEENS_9allocatorIcEEE6__zeroEv
FNDA:0,_ZNSt3__112basic_stringIcNS_11char_traitsIcEENS_9allocatorIcEEE10__align_itILm16EEEmm
FNDA:0,_ZNSt3__112basic_stringIcNS_11char_traitsIcEENS_9allocatorIcEEE11__recommendEm
FNDA:0,_ZNSt3__112basic_stringIcNS_11char_traitsIcEENS_9allocatorIcEEEC1Ev
FNDA:0,_ZNSt3__112basic_stringIcNS_11char_traitsIcEENS_9allocatorIcEEEC2Ev
FNDA:0,_ZNSt3__112basic_stringIcNS_11char_traitsIcEENS_9allocatorIcEEEC1ERKS4_
FNDA:0,_ZNSt3__112basic_stringIcNS_11char_traitsIcEENS_9allocatorIcEEEC2ERKS4_
FNDA:12,_ZNSt3__112basic_stringIcNS_11char_traitsIcEENS_9allocatorIcEEEC1EPKc
FNDA:12,_ZNSt3__112basic_stringIcNS_11char_traitsIcEENS_9allocatorIcEEEC2EPKc
FNDA:0,_ZNSt3__112basic_stringIcNS_11char_traitsIcEENS_9allocatorIcEEE6__initIPcEENS_9enable_ifIXsr21__is_forward_iteratorIT_EE5valueEvE4typeES9_S9_
FNDA:0,_ZNSt3__112basic_stringIcNS_11char_traitsIcEENS_9allocatorIcEEEC1IPcEET_S8_RKS4_
FNDA:0,_ZNSt3__112basic_stringIcNS_11char_traitsIcEENS_9allocatorIcEEEC2IPcEET_S8_RKS4_
FNDA:0,_ZNKSt3__112basic_stringIcNS_11char_traitsIcEENS_9allocatorIcEEE8max_sizeEv
FNF:36
FNH:2
DA:508,0
DA:510,0
DA:750,0
DA:775,12
DA:889,0
DA:893,0
DA:894,0
DA:897,0
DA:1127,0
DA:1129,0
DA:1136,0
DA:1221,0
DA:1235,0
DA:1238,0
DA:1265,0
DA:1273,0
DA:1280,0
DA:1283,0
DA:1290,0
DA:1293,0
DA:1297,0
DA:1303,0
DA:1306,0
DA:1309,0
DA:1315,0
DA:1320,0
DA:1321,0
DA:1322,0
DA:1323,0
DA:1328,0
DA:1332,0
DA:1333,0
DA:1334,0
DA:1494,0
DA:1498,0
DA:1499,0
DA:1509,0
DA:1510,0
DA:1514,0
DA:1515,0
DA:1569,24
DA:1571,12
DA:1575,24
DA:1826,0
DA:1827,0
DA:1828,0
DA:1830,0
DA:1832,0
DA:1833,0
DA:1834,0
DA:1837,0
DA:1838,0
DA:1839,0
DA:1840,0
DA:1841,0
DA:1843,0
DA:1844,0
DA:1845,0
DA:1846,0
DA:1864,0
DA:1865,0
DA:1866,0
DA:1870,0
DA:2872,0
DA:2876,0
LF:65
LH:4
end_of_record
SF:/Applications/Xcode.app/Contents/Developer/Toolchains/XcodeDefault.xctoolchain/usr/include/c++/v1/type_traits
FN:437,_ZNSt3__19addressofIKcEEPT_RS2_
FN:437,_ZNSt3__19addressofIcEEPT_RS1_
FN:2219,_ZNSt3__17forwardIRKNS_6vectorIbNS_9allocatorIbEEEEEEOT_RNS_16remove_referenceIS7_E4typeE
FN:2219,_ZNSt3__17forwardINS_9allocatorImEEEEOT_RNS_16remove_referenceIS3_E4typeE
FN:2219,_ZNSt3__17forwardIRNS_6vectorIbNS_9allocatorIbEEEEEEOT_RNS_16remove_referenceIS6_E4typeE
FN:2219,_ZNSt3__17forwardIiEEOT_RNS_16remove_referenceIS1_E4typeE
FN:2219,_ZNSt3__17forwardIRKNS_9allocatorIcEEEEOT_RNS_16remove_referenceIS5_E4typeE
FN:2219,_ZNSt3__17forwardIDnEEOT_RNS_16remove_referenceIS1_E4typeE
FN:2219,_ZNSt3__17forwardIRKNS_9allocatorINS_6vectorIbNS1_IbEEEEEEEEOT_RNS_16remove_referenceIS8_E4typeE
FNDA:0,_ZNSt3__19addressofIKcEEPT_RS2_
FNDA:0,_ZNSt3__19addressofIcEEPT_RS1_
FNDA:0,_ZNSt3__17forwardIiEEOT_RNS_16remove_referenceIS1_E4typeE
FNDA:12,_ZNSt3__17forwardIDnEEOT_RNS_16remove_referenceIS1_E4typeE
FNDA:0,_ZNSt3__17forwardIRKNS_6vectorIbNS_9allocatorIbEEEEEEOT_RNS_16remove_referenceIS7_E4typeE
FNDA:0,_ZNSt3__17forwardINS_9allocatorImEEEEOT_RNS_16remove_referenceIS3_E4typeE
FNDA:0,_ZNSt3__17forwardIRKNS_9allocatorINS_6vectorIbNS1_IbEEEEEEEEOT_RNS_16remove_referenceIS8_E4typeE
FNDA:0,_ZNSt3__17forwardIRNS_6vectorIbNS_9allocatorIbEEEEEEOT_RNS_16remove_referenceIS6_E4typeE
FNDA:0,_ZNSt3__17forwardIRKNS_9allocatorIcEEEEOT_RNS_16remove_referenceIS5_E4typeE
FNF:9
FNH:1
DA:439,0
DA:2221,12
LF:2
LH:1
end_of_record
SF:/Applications/Xcode.app/Contents/Developer/Toolchains/XcodeDefault.xctoolchain/usr/include/c++/v1/vector
FN:294,_ZNSt3__120__vector_base_commonILb1EEC2Ev
FN:337,_ZNSt3__113__vector_baseINS_6vectorIbNS_9allocatorIbEEEENS2_IS4_EEE7__allocEv
FN:340,_ZNKSt3__113__vector_baseINS_6vectorIbNS_9allocatorIbEEEENS2_IS4_EEE7__allocEv
FN:343,_ZNSt3__113__vector_baseINS_6vectorIbNS_9allocatorIbEEEENS2_IS4_EEE9__end_capEv
FN:346,_ZNKSt3__113__vector_baseINS_6vectorIbNS_9allocatorIbEEEENS2_IS4_EEE9__end_capEv
FN:356,_ZNSt3__113__vector_baseINS_6vectorIbNS_9allocatorIbEEEENS2_IS4_EEE5clearEv
FN:358,_ZNKSt3__113__vector_baseINS_6vectorIbNS_9allocatorIbEEEENS2_IS4_EEE8capacityEv
FN:409,_ZNSt3__113__vector_baseINS_6vectorIbNS_9allocatorIbEEEENS2_IS4_EEE17__destruct_at_endEPS4_
FN:419,_ZNSt3__113__vector_baseINS_6vectorIbNS_9allocatorIbEEEENS2_IS4_EEEC2Ev
FN:429,_ZNSt3__113__vector_baseINS_6vectorIbNS_9allocatorIbEEEENS2_IS4_EEEC2ERKS5_
FN:437,_ZNSt3__113__vector_baseINS_6vectorIbNS_9allocatorIbEEEENS2_IS4_EEED2Ev
FN:447,_ZNSt3__16vectorINS0_IbNS_9allocatorIbEEEENS1_IS3_EEED1Ev
FN:447,_ZNSt3__16vectorINS0_IbNS_9allocatorIbEEEENS1_IS3_EEED2Ev
FN:632,_ZNKSt3__16vectorINS0_IbNS_9allocatorIbEEEENS1_IS3_EEE4sizeEv
FN:635,_ZNKSt3__16vectorINS0_IbNS_9allocatorIbEEEENS1_IS3_EEE8capacityEv
FN:674,_ZNKSt3__16vectorINS0_IbNS_9allocatorIbEEEENS1_IS3_EEE4dataEv
FN:827,_ZNKSt3__16vectorINS0_IbNS_9allocatorIbEEEENS1_IS3_EEE31__annotate_contiguous_containerEPKvS7_S7_S7_
FN:831,_ZNKSt3__16vectorINS0_IbNS_9allocatorIbEEEENS1_IS3_EEE14__annotate_newEm
FN:875,_ZNSt3__16vectorINS0_IbNS_9allocatorIbEEEENS1_IS3_EEE24__RAII_IncreaseAnnotatorC2ERKS5_m
FN:875,_ZNSt3__16vectorINS0_IbNS_9allocatorIbEEEENS1_IS3_EEE24__RAII_IncreaseAnnotatorC1ERKS5_m
FN:876,_ZNSt3__16vectorINS0_IbNS_9allocatorIbEEEENS1_IS3_EEE24__RAII_IncreaseAnnotator6__doneEv
FN:922,_ZNSt3__16vectorINS0_IbNS_9allocatorIbEEEENS1_IS3_EEE8allocateEm
FN:945,_ZNKSt3__16vectorINS0_IbNS_9allocatorIbEEEENS1_IS3_EEE8max_sizeEv
FN:1015,_ZNSt3__16vectorINS0_IbNS_9allocatorIbEEEENS1_IS3_EEE18__construct_at_endIPS3_EENS_9enable_ifIXsr21__is_forward_iteratorIT_EE5valueEvE4typeES9_S9_m
FN:1015,_ZNSt3__16vectorINS0_IbNS_9allocatorIbEEEENS1_IS3_EEE18__construct_at_endIPKS3_EENS_9enable_ifIXsr21__is_forward_iteratorIT_EE5valueEvE4typeESA_SA_m
FN:1192,_ZNSt3__16vectorINS0_IbNS_9allocatorIbEEEENS1_IS3_EEEC2ERKS5_
FN:1192,_ZNSt3__16vectorINS0_IbNS_9allocatorIbEEEENS1_IS3_EEEC1ERKS5_
FN:1270,_ZNSt3__16vectorINS0_IbNS_9allocatorIbEEEENS1_IS3_EEEC2ESt16initializer_listIS3_E
FN:1270,_ZNSt3__16vectorINS0_IbNS_9allocatorIbEEEENS1_IS3_EEEC1ESt16initializer_listIS3_E
FN:2169,_ZNSt3__16vectorIbNS_9allocatorIbEEE5__capEv
FN:2175,_ZNSt3__16vectorIbNS_9allocatorIbEEE7__allocEv
FN:2178,_ZNKSt3__16vectorIbNS_9allocatorIbEEE7__allocEv
FN:2184,_ZNSt3__16vectorIbNS_9allocatorIbEEE26__internal_cap_to_externalEm
FN:2187,_ZNSt3__16vectorIbNS_9allocatorIbEEE26__external_cap_to_internalEm
FN:2280,_ZNKSt3__16vectorIbNS_9allocatorIbEEE4sizeEv
FN:2292,_ZNKSt3__16vectorIbNS_9allocatorIbEEE5beginEv
FN:2298,_ZNKSt3__16vectorIbNS_9allocatorIbEEE3endEv
FN:2430,_ZNSt3__16vectorIbNS_9allocatorIbEEE11__make_iterEm
FN:2433,_ZNKSt3__16vectorIbNS_9allocatorIbEEE11__make_iterEm
FN:2490,_ZNSt3__16vectorIbNS_9allocatorIbEEE26__invalidate_all_iteratorsEv
FN:2503,_ZNSt3__16vectorIbNS_9allocatorIbEEE8allocateEm
FN:2528,_ZNKSt3__16vectorIbNS_9allocatorIbEEE8max_sizeEv
FN:2573,_ZNSt3__16vectorIbNS_9allocatorIbEEE18__construct_at_endIPKbEENS_9enable_ifIXsr21__is_forward_iteratorIT_EE5valueEvE4typeES8_S8_
FN:2573,_ZNSt3__16vectorIbNS_9allocatorIbEEE18__construct_at_endINS_14__bit_iteratorIS3_Lb1ELm0EEEEENS_9enable_ifIXsr21__is_forward_iteratorIT_EE5valueEvE4typeES8_S8_
FN:2747,_ZNSt3__16vectorIbNS_9allocatorIbEEEC1ESt16initializer_listIbE
FN:2747,_ZNSt3__16vectorIbNS_9allocatorIbEEEC2ESt16initializer_listIbE
FN:2777,_ZNSt3__16vectorIbNS_9allocatorIbEEED2Ev
FN:2777,_ZNSt3__16vectorIbNS_9allocatorIbEEED1Ev
FN:2785,_ZNSt3__16vectorIbNS_9allocatorIbEEEC2ERKS3_
FN:2785,_ZNSt3__16vectorIbNS_9allocatorIbEEEC1ERKS3_
FNDA:6,_ZNSt3__120__vector_base_commonILb1EEC2Ev
FNDA:0,_ZNSt3__113__vector_baseINS_6vectorIbNS_9allocatorIbEEEENS2_IS4_EEE7__allocEv
FNDA:0,_ZNKSt3__113__vector_baseINS_6vectorIbNS_9allocatorIbEEEENS2_IS4_EEE7__allocEv
FNDA:0,_ZNSt3__113__vector_baseINS_6vectorIbNS_9allocatorIbEEEENS2_IS4_EEE9__end_capEv
FNDA:0,_ZNKSt3__113__vector_baseINS_6vectorIbNS_9allocatorIbEEEENS2_IS4_EEE9__end_capEv
FNDA:0,_ZNSt3__113__vector_baseINS_6vectorIbNS_9allocatorIbEEEENS2_IS4_EEE5clearEv
FNDA:0,_ZNKSt3__113__vector_baseINS_6vectorIbNS_9allocatorIbEEEENS2_IS4_EEE8capacityEv
FNDA:0,_ZNSt3__113__vector_baseINS_6vectorIbNS_9allocatorIbEEEENS2_IS4_EEE17__destruct_at_endEPS4_
FNDA:6,_ZNSt3__113__vector_baseINS_6vectorIbNS_9allocatorIbEEEENS2_IS4_EEEC2Ev
FNDA:0,_ZNSt3__113__vector_baseINS_6vectorIbNS_9allocatorIbEEEENS2_IS4_EEEC2ERKS5_
FNDA:0,_ZNSt3__113__vector_baseINS_6vectorIbNS_9allocatorIbEEEENS2_IS4_EEED2Ev
FNDA:0,_ZNSt3__16vectorINS0_IbNS_9allocatorIbEEEENS1_IS3_EEED1Ev
FNDA:0,_ZNSt3__16vectorINS0_IbNS_9allocatorIbEEEENS1_IS3_EEED2Ev
FNDA:0,_ZNKSt3__16vectorINS0_IbNS_9allocatorIbEEEENS1_IS3_EEE4sizeEv
FNDA:0,_ZNKSt3__16vectorINS0_IbNS_9allocatorIbEEEENS1_IS3_EEE8capacityEv
FNDA:0,_ZNKSt3__16vectorINS0_IbNS_9allocatorIbEEEENS1_IS3_EEE4dataEv
FNDA:0,_ZNKSt3__16vectorINS0_IbNS_9allocatorIbEEEENS1_IS3_EEE31__annotate_contiguous_containerEPKvS7_S7_S7_
FNDA:0,_ZNKSt3__16vectorINS0_IbNS_9allocatorIbEEEENS1_IS3_EEE14__annotate_newEm
FNDA:0,_ZNSt3__16vectorINS0_IbNS_9allocatorIbEEEENS1_IS3_EEE24__RAII_IncreaseAnnotatorC1ERKS5_m
FNDA:0,_ZNSt3__16vectorINS0_IbNS_9allocatorIbEEEENS1_IS3_EEE24__RAII_IncreaseAnnotatorC2ERKS5_m
FNDA:0,_ZNSt3__16vectorINS0_IbNS_9allocatorIbEEEENS1_IS3_EEE24__RAII_IncreaseAnnotator6__doneEv
FNDA:0,_ZNSt3__16vectorINS0_IbNS_9allocatorIbEEEENS1_IS3_EEE8allocateEm
FNDA:0,_ZNKSt3__16vectorINS0_IbNS_9allocatorIbEEEENS1_IS3_EEE8max_sizeEv
FNDA:0,_ZNSt3__16vectorINS0_IbNS_9allocatorIbEEEENS1_IS3_EEE18__construct_at_endIPKS3_EENS_9enable_ifIXsr21__is_forward_iteratorIT_EE5valueEvE4typeESA_SA_m
FNDA:0,_ZNSt3__16vectorINS0_IbNS_9allocatorIbEEEENS1_IS3_EEE18__construct_at_endIPS3_EENS_9enable_ifIXsr21__is_forward_iteratorIT_EE5valueEvE4typeES9_S9_m
FNDA:0,_ZNSt3__16vectorINS0_IbNS_9allocatorIbEEEENS1_IS3_EEEC1ERKS5_
FNDA:0,_ZNSt3__16vectorINS0_IbNS_9allocatorIbEEEENS1_IS3_EEEC2ERKS5_
FNDA:6,_ZNSt3__16vectorINS0_IbNS_9allocatorIbEEEENS1_IS3_EEEC1ESt16initializer_listIS3_E
FNDA:6,_ZNSt3__16vectorINS0_IbNS_9allocatorIbEEEENS1_IS3_EEEC2ESt16initializer_listIS3_E
FNDA:0,_ZNSt3__16vectorIbNS_9allocatorIbEEE5__capEv
FNDA:0,_ZNSt3__16vectorIbNS_9allocatorIbEEE7__allocEv
FNDA:0,_ZNKSt3__16vectorIbNS_9allocatorIbEEE7__allocEv
FNDA:0,_ZNSt3__16vectorIbNS_9allocatorIbEEE26__internal_cap_to_externalEm
FNDA:0,_ZNSt3__16vectorIbNS_9allocatorIbEEE26__external_cap_to_internalEm
FNDA:0,_ZNKSt3__16vectorIbNS_9allocatorIbEEE4sizeEv
FNDA:0,_ZNKSt3__16vectorIbNS_9allocatorIbEEE5beginEv
FNDA:0,_ZNKSt3__16vectorIbNS_9allocatorIbEEE3endEv
FNDA:0,_ZNSt3__16vectorIbNS_9allocatorIbEEE11__make_iterEm
FNDA:0,_ZNKSt3__16vectorIbNS_9allocatorIbEEE11__make_iterEm
FNDA:0,_ZNSt3__16vectorIbNS_9allocatorIbEEE26__invalidate_all_iteratorsEv
FNDA:0,_ZNSt3__16vectorIbNS_9allocatorIbEEE8allocateEm
FNDA:0,_ZNKSt3__16vectorIbNS_9allocatorIbEEE8max_sizeEv
FNDA:0,_ZNSt3__16vectorIbNS_9allocatorIbEEE18__construct_at_endIPKbEENS_9enable_ifIXsr21__is_forward_iteratorIT_EE5valueEvE4typeES8_S8_
FNDA:0,_ZNSt3__16vectorIbNS_9allocatorIbEEE18__construct_at_endINS_14__bit_iteratorIS3_Lb1ELm0EEEEENS_9enable_ifIXsr21__is_forward_iteratorIT_EE5valueEvE4typeES8_S8_
FNDA:0,_ZNSt3__16vectorIbNS_9allocatorIbEEEC1ESt16initializer_listIbE
FNDA:0,_ZNSt3__16vectorIbNS_9allocatorIbEEEC2ESt16initializer_listIbE
FNDA:0,_ZNSt3__16vectorIbNS_9allocatorIbEEED1Ev
FNDA:0,_ZNSt3__16vectorIbNS_9allocatorIbEEED2Ev
FNDA:0,_ZNSt3__16vectorIbNS_9allocatorIbEEEC1ERKS3_
FNDA:0,_ZNSt3__16vectorIbNS_9allocatorIbEEEC2ERKS3_
FNF:50
FNH:4
DA:294,6
DA:338,0
DA:341,0
DA:344,0
DA:347,0
DA:350,6
DA:352,0
DA:356,0
DA:359,0
DA:411,0
DA:412,0
DA:413,0
DA:414,0
DA:415,0
DA:421,6
DA:422,6
DA:423,6
DA:424,6
DA:425,6
DA:430,0
DA:431,0
DA:432,0
DA:433,0
DA:434,0
DA:439,0
DA:441,0
DA:442,0
DA:443,0
DA:444,0
DA:447,0
DA:541,6
DA:633,0
DA:636,0
DA:675,0
DA:828,0
DA:832,0
DA:833,0
DA:834,0
DA:875,0
DA:876,0
DA:924,0
DA:925,0
DA:926,0
DA:927,0
DA:928,0
DA:929,0
DA:947,0
DA:948,0
DA:1017,0
DA:1018,0
DA:1019,0
DA:1020,0
DA:1021,0
DA:1193,0
DA:1194,0
DA:1198,0
DA:1199,0
DA:1201,0
DA:1202,0
DA:1203,0
DA:1204,0
DA:1271,12
DA:1275,6
DA:1277,6
DA:1278,6
DA:1279,6
DA:1280,12
DA:2170,0
DA:2176,0
DA:2179,0
DA:2185,0
DA:2188,0
DA:2222,0
DA:2227,0
DA:2281,0
DA:2293,0
DA:2299,0
DA:2431,0
DA:2434,0
DA:2492,0
DA:2505,0
DA:2506,0
DA:2507,0
DA:2508,0
DA:2509,0
DA:2510,0
DA:2511,0
DA:2530,0
DA:2531,0
DA:2532,0
DA:2533,0
DA:2534,0
DA:2535,0
DA:2575,0
DA:2576,0
DA:2577,0
DA:2578,0
DA:2748,0
DA:2749,0
DA:2750,0
DA:2751,0
DA:2752,0
DA:2753,0
DA:2755,0
DA:2756,0
DA:2757,0
DA:2758,0
DA:2778,0
DA:2779,0
DA:2780,0
DA:2781,0
DA:2782,0
DA:2786,0
DA:2787,0
DA:2788,0
DA:2789,0
DA:2790,0
DA:2792,0
DA:2793,0
DA:2794,0
DA:2795,0
LF:121
LH:14
end_of_record
SF:/Users/vpomsztein/Documents/PrivateRepositories/Algoritmos1/TPI/juegoDeLaVida/lib/googletest-master/googletest/include/gtest/gtest-message.h
FN:85,_ZN7testing7MessageD1Ev
FN:85,_ZN7testing7MessageD2Ev
FNDA:0,_ZN7testing7MessageD1Ev
FNDA:0,_ZN7testing7MessageD2Ev
FNF:2
FNH:0
DA:85,0
LF:1
LH:0
end_of_record
SF:/Users/vpomsztein/Documents/PrivateRepositories/Algoritmos1/TPI/juegoDeLaVida/lib/googletest-master/googletest/include/gtest/gtest-printers.h
FN:222,_ZN16testing_internal26DefaultPrintNonContainerToIiEEvRKT_PNSt3__113basic_ostreamIcNS4_11char_traitsIcEEEE
FN:275,_ZN7testing8internal19FormatForComparisonIiiE6FormatERKi
FN:349,_ZN7testing8internal33FormatForComparisonFailureMessageIiiEENSt3__112basic_stringIcNS2_11char_traitsIcEENS2_9allocatorIcEEEERKT_RKT0_
FN:442,_ZN7testing8internal14DefaultPrintToIiEEvNS0_15WrapPrinterTypeILNS0_18DefaultPrinterTypeE3EEERKT_PNSt3__113basic_ostreamIcNS8_11char_traitsIcEEEE
FN:459,_ZN7testing8internal7PrintToIiEEvRKT_PNSt3__113basic_ostreamIcNS5_11char_traitsIcEEEE
FN:714,_ZN7testing8internal16UniversalPrinterIiE5PrintERKiPNSt3__113basic_ostreamIcNS5_11char_traitsIcEEEE
FN:799,_ZN7testing8internal21UniversalTersePrinterIiE5PrintERKiPNSt3__113basic_ostreamIcNS5_11char_traitsIcEEEE
FN:868,_ZN7testing8internal14UniversalPrintIiEEvRKT_PNSt3__113basic_ostreamIcNS5_11char_traitsIcEEEE
FN:996,_ZN7testing13PrintToStringIiEENSt3__112basic_stringIcNS1_11char_traitsIcEENS1_9allocatorIcEEEERKT_
FNDA:0,_ZN16testing_internal26DefaultPrintNonContainerToIiEEvRKT_PNSt3__113basic_ostreamIcNS4_11char_traitsIcEEEE
FNDA:0,_ZN7testing8internal19FormatForComparisonIiiE6FormatERKi
FNDA:0,_ZN7testing8internal33FormatForComparisonFailureMessageIiiEENSt3__112basic_stringIcNS2_11char_traitsIcEENS2_9allocatorIcEEEERKT_RKT0_
FNDA:0,_ZN7testing8internal14DefaultPrintToIiEEvNS0_15WrapPrinterTypeILNS0_18DefaultPrinterTypeE3EEERKT_PNSt3__113basic_ostreamIcNS8_11char_traitsIcEEEE
FNDA:0,_ZN7testing8internal7PrintToIiEEvRKT_PNSt3__113basic_ostreamIcNS5_11char_traitsIcEEEE
FNDA:0,_ZN7testing8internal16UniversalPrinterIiE5PrintERKiPNSt3__113basic_ostreamIcNS5_11char_traitsIcEEEE
FNDA:0,_ZN7testing8internal21UniversalTersePrinterIiE5PrintERKiPNSt3__113basic_ostreamIcNS5_11char_traitsIcEEEE
FNDA:0,_ZN7testing8internal14UniversalPrintIiEEvRKT_PNSt3__113basic_ostreamIcNS5_11char_traitsIcEEEE
FNDA:0,_ZN7testing13PrintToStringIiEENSt3__112basic_stringIcNS1_11char_traitsIcEENS1_9allocatorIcEEEERKT_
FNF:9
FNH:0
DA:249,0
DA:250,0
DA:276,0
DA:351,0
DA:444,0
DA:445,0
DA:481,0
DA:493,0
DA:494,0
DA:723,0
DA:724,0
DA:800,0
DA:801,0
DA:872,0
DA:873,0
DA:997,0
DA:998,0
DA:999,0
DA:1000,0
LF:19
LH:0
end_of_record
SF:/Users/vpomsztein/Documents/PrivateRepositories/Algoritmos1/TPI/juegoDeLaVida/lib/googletest-master/googletest/include/gtest/gtest.h
FN:256,_ZN7testing15AssertionResultD2Ev
FN:256,_ZN7testing15AssertionResultD1Ev
FN:272,_ZN7testing15AssertionResultC2IbEERKT_PNS_8internal8EnableIfIXntsr8internal21ImplicitlyConvertibleIS2_S0_EE5valueEE4typeE
FN:272,_ZN7testing15AssertionResultC1IbEERKT_PNS_8internal8EnableIfIXntsr8internal21ImplicitlyConvertibleIS2_S0_EE5valueEE4typeE
FN:288,_ZNK7testing15AssertionResultcvbEv
FN:297,_ZNK7testing15AssertionResult7messageEv
FN:302,_ZNK7testing15AssertionResult15failure_messageEv
FN:389,_ZN7testing4Test13SetUpTestCaseEv
FN:397,_ZN7testing4Test16TearDownTestCaseEv
FN:474,_ZN7testing4Test5SetupEv
FN:1375,_ZN7testing8internal18CmpHelperEQFailureIiiEENS_15AssertionResultEPKcS4_RKT_RKT0_
FN:1387,_ZN7testing8internal11CmpHelperEQIiiEENS_15AssertionResultEPKcS4_RKT_RKT0_
FN:1417,_ZN7testing8internal8EqHelperILb0EE7CompareIiiEENS_15AssertionResultEPKcS6_RKT_RKT0_
FNDA:0,_ZN7testing15AssertionResultD1Ev
FNDA:0,_ZN7testing15AssertionResultD2Ev
FNDA:0,_ZN7testing15AssertionResultC1IbEERKT_PNS_8internal8EnableIfIXntsr8internal21ImplicitlyConvertibleIS2_S0_EE5valueEE4typeE
FNDA:0,_ZN7testing15AssertionResultC2IbEERKT_PNS_8internal8EnableIfIXntsr8internal21ImplicitlyConvertibleIS2_S0_EE5valueEE4typeE
FNDA:0,_ZNK7testing15AssertionResultcvbEv
FNDA:0,_ZNK7testing15AssertionResult7messageEv
FNDA:0,_ZNK7testing15AssertionResult15failure_messageEv
FNDA:0,_ZN7testing4Test13SetUpTestCaseEv
FNDA:0,_ZN7testing4Test16TearDownTestCaseEv
FNDA:0,_ZN7testing4Test5SetupEv
FNDA:0,_ZN7testing8internal18CmpHelperEQFailureIiiEENS_15AssertionResultEPKcS4_RKT_RKT0_
FNDA:12,_ZN7testing8internal11CmpHelperEQIiiEENS_15AssertionResultEPKcS4_RKT_RKT0_
FNDA:12,_ZN7testing8internal8EqHelperILb0EE7CompareIiiEENS_15AssertionResultEPKcS6_RKT_RKT0_
FNF:13
FNH:2
DA:256,0
DA:272,0
DA:277,0
DA:288,0
DA:298,0
DA:302,0
DA:389,0
DA:397,0
DA:474,0
DA:1378,0
DA:1379,0
DA:1380,0
DA:1381,0
DA:1383,0
DA:1392,12
DA:1393,12
DA:1397,0
DA:1398,12
DA:1421,12
LF:19
LH:4
end_of_record
SF:/Users/vpomsztein/Documents/PrivateRepositories/Algoritmos1/TPI/juegoDeLaVida/lib/googletest-master/googletest/include/gtest/internal/gtest-internal.h
FN:466,_ZN7testing8internal15TestFactoryBaseD0Ev
FN:466,_ZN7testing8internal15TestFactoryBaseD2Ev
FN:466,_ZN7testing8internal15TestFactoryBaseD1Ev
FN:473,_ZN7testing8internal15TestFactoryBaseC2Ev
FN:482,_ZN7testing8internal15TestFactoryImplI48esPeriodicoTEST_toroideHorizontalPeriodico2_TestEC2Ev
FN:482,_ZN7testing8internal15TestFactoryImplI36esPeriodicoTEST_toroideDiagonal_TestED2Ev
FN:482,_ZN7testing8internal15TestFactoryImplI48esPeriodicoTEST_toroideHorizontalPeriodico2_TestED1Ev
FN:482,_ZN7testing8internal15TestFactoryImplI37esPeriodicoTEST_toroideTodoFalso_TestEC1Ev
FN:482,_ZN7testing8internal15TestFactoryImplI48esPeriodicoTEST_toroideHorizontalPeriodico2_TestED2Ev
FN:482,_ZN7testing8internal15TestFactoryImplI36esPeriodicoTEST_toroideDiagonal_TestED0Ev
FN:482,_ZN7testing8internal15TestFactoryImplI36esPeriodicoTEST_toroideDiagonal_TestEC1Ev
FN:482,_ZN7testing8internal15TestFactoryImplI37esPeriodicoTEST_toroideTodoFalso_TestED2Ev
FN:482,_ZN7testing8internal15TestFactoryImplI48esPeriodicoTEST_toroideHorizontalPeriodico2_TestED0Ev
FN:482,_ZN7testing8internal15TestFactoryImplI37esPeriodicoTEST_toroideTodoFalso_TestEC2Ev
FN:482,_ZN7testing8internal15TestFactoryImplI36esPeriodicoTEST_toroideDiagonal_TestEC2Ev
FN:482,_ZN7testing8internal15TestFactoryImplI48esPeriodicoTEST_toroideHorizontalPeriodico2_TestEC1Ev
FN:482,_ZN7testing8internal15TestFactoryImplI37esPeriodicoTEST_toroideTodoFalso_TestED1Ev
FN:482,_ZN7testing8internal15TestFactoryImplI36esPeriodicoTEST_toroideDiagonal_TestED1Ev
FN:482,_ZN7testing8internal15TestFactoryImplI37esPeriodicoTEST_toroideTodoFalso_TestED0Ev
FN:484,_ZN7testing8internal15TestFactoryImplI36esPeriodicoTEST_toroideDiagonal_TestE10CreateTestEv
FN:484,_ZN7testing8internal15TestFactoryImplI48esPeriodicoTEST_toroideHorizontalPeriodico2_TestE10CreateTestEv
FN:484,_ZN7testing8internal15TestFactoryImplI37esPeriodicoTEST_toroideTodoFalso_TestE10CreateTestEv
FN:504,_ZN7testing8internal12CodeLocationD1Ev
FN:504,_ZN7testing8internal12CodeLocationD2Ev
FN:505,_ZN7testing8internal12CodeLocationC2ERKNSt3__112basic_stringIcNS2_11char_traitsIcEENS2_9allocatorIcEEEEi
FN:505,_ZN7testing8internal12CodeLocationC1ERKNSt3__112basic_stringIcNS2_11char_traitsIcEENS2_9allocatorIcEEEEi
FNDA:0,_ZN7testing8internal15TestFactoryBaseD1Ev
FNDA:0,_ZN7testing8internal15TestFactoryBaseD0Ev
FNDA:0,_ZN7testing8internal15TestFactoryBaseD2Ev
FNDA:0,_ZN7testing8internal15TestFactoryBaseC2Ev
FNDA:4,_ZN7testing8internal15TestFactoryImplI48esPeriodicoTEST_toroideHorizontalPeriodico2_TestEC1Ev
FNDA:4,_ZN7testing8internal15TestFactoryImplI37esPeriodicoTEST_toroideTodoFalso_TestEC1Ev
FNDA:4,_ZN7testing8internal15TestFactoryImplI36esPeriodicoTEST_toroideDiagonal_TestEC1Ev
FNDA:4,_ZN7testing8internal15TestFactoryImplI48esPeriodicoTEST_toroideHorizontalPeriodico2_TestEC2Ev
FNDA:4,_ZN7testing8internal15TestFactoryImplI48esPeriodicoTEST_toroideHorizontalPeriodico2_TestED1Ev
FNDA:4,_ZN7testing8internal15TestFactoryImplI48esPeriodicoTEST_toroideHorizontalPeriodico2_TestED0Ev
FNDA:4,_ZN7testing8internal15TestFactoryImplI48esPeriodicoTEST_toroideHorizontalPeriodico2_TestED2Ev
FNDA:4,_ZN7testing8internal15TestFactoryImplI37esPeriodicoTEST_toroideTodoFalso_TestEC2Ev
FNDA:4,_ZN7testing8internal15TestFactoryImplI37esPeriodicoTEST_toroideTodoFalso_TestED1Ev
FNDA:4,_ZN7testing8internal15TestFactoryImplI37esPeriodicoTEST_toroideTodoFalso_TestED0Ev
FNDA:4,_ZN7testing8internal15TestFactoryImplI37esPeriodicoTEST_toroideTodoFalso_TestED2Ev
FNDA:4,_ZN7testing8internal15TestFactoryImplI36esPeriodicoTEST_toroideDiagonal_TestEC2Ev
FNDA:4,_ZN7testing8internal15TestFactoryImplI36esPeriodicoTEST_toroideDiagonal_TestED1Ev
FNDA:4,_ZN7testing8internal15TestFactoryImplI36esPeriodicoTEST_toroideDiagonal_TestED0Ev
FNDA:4,_ZN7testing8internal15TestFactoryImplI36esPeriodicoTEST_toroideDiagonal_TestED2Ev
FNDA:2,_ZN7testing8internal15TestFactoryImplI48esPeriodicoTEST_toroideHorizontalPeriodico2_TestE10CreateTestEv
FNDA:2,_ZN7testing8internal15TestFactoryImplI37esPeriodicoTEST_toroideTodoFalso_TestE10CreateTestEv
FNDA:2,_ZN7testing8internal15TestFactoryImplI36esPeriodicoTEST_toroideDiagonal_TestE10CreateTestEv
FNDA:0,_ZN7testing8internal12CodeLocationD1Ev
FNDA:0,_ZN7testing8internal12CodeLocationD2Ev
FNDA:0,_ZN7testing8internal12CodeLocationC1ERKNSt3__112basic_stringIcNS2_11char_traitsIcEENS2_9allocatorIcEEEEi
FNDA:0,_ZN7testing8internal12CodeLocationC2ERKNSt3__112basic_stringIcNS2_11char_traitsIcEENS2_9allocatorIcEEEEi
FNF:26
FNH:18
DA:466,0
DA:473,0
DA:482,60
DA:484,12
DA:504,0
DA:506,0
LF:6
LH:2
end_of_record
SF:/Users/vpomsztein/Documents/PrivateRepositories/Algoritmos1/TPI/juegoDeLaVida/lib/googletest-master/googletest/include/gtest/internal/gtest-port.h
FN:1156,_ZN7testing8internal10scoped_ptrINSt3__112basic_stringIcNS2_11char_traitsIcEENS2_9allocatorIcEEEEEC1EPS8_
FN:1156,_ZN7testing8internal10scoped_ptrINSt3__112basic_stringIcNS2_11char_traitsIcEENS2_9allocatorIcEEEEEC2EPS8_
FN:1157,_ZN7testing8internal10scoped_ptrINSt3__112basic_stringIcNS2_11char_traitsIcEENS2_9allocatorIcEEEEED1Ev
FN:1157,_ZN7testing8internal10scoped_ptrINSt3__118basic_stringstreamIcNS2_11char_traitsIcEENS2_9allocatorIcEEEEED2Ev
FN:1157,_ZN7testing8internal10scoped_ptrINSt3__118basic_stringstreamIcNS2_11char_traitsIcEENS2_9allocatorIcEEEEED1Ev
FN:1157,_ZN7testing8internal10scoped_ptrINSt3__112basic_stringIcNS2_11char_traitsIcEENS2_9allocatorIcEEEEED2Ev
FN:1160,_ZNK7testing8internal10scoped_ptrINSt3__112basic_stringIcNS2_11char_traitsIcEENS2_9allocatorIcEEEEEptEv
FN:1161,_ZNK7testing8internal10scoped_ptrINSt3__112basic_stringIcNS2_11char_traitsIcEENS2_9allocatorIcEEEEE3getEv
FN:1169,_ZN7testing8internal10scoped_ptrINSt3__112basic_stringIcNS2_11char_traitsIcEENS2_9allocatorIcEEEEE5resetEPS8_
FN:1169,_ZN7testing8internal10scoped_ptrINSt3__118basic_stringstreamIcNS2_11char_traitsIcEENS2_9allocatorIcEEEEE5resetEPS8_
FNDA:0,_ZN7testing8internal10scoped_ptrINSt3__112basic_stringIcNS2_11char_traitsIcEENS2_9allocatorIcEEEEEC1EPS8_
FNDA:0,_ZN7testing8internal10scoped_ptrINSt3__112basic_stringIcNS2_11char_traitsIcEENS2_9allocatorIcEEEEEC2EPS8_
FNDA:0,_ZN7testing8internal10scoped_ptrINSt3__118basic_stringstreamIcNS2_11char_traitsIcEENS2_9allocatorIcEEEEED1Ev
FNDA:0,_ZN7testing8internal10scoped_ptrINSt3__118basic_stringstreamIcNS2_11char_traitsIcEENS2_9allocatorIcEEEEED2Ev
FNDA:0,_ZN7testing8internal10scoped_ptrINSt3__112basic_stringIcNS2_11char_traitsIcEENS2_9allocatorIcEEEEED1Ev
FNDA:0,_ZN7testing8internal10scoped_ptrINSt3__112basic_stringIcNS2_11char_traitsIcEENS2_9allocatorIcEEEEED2Ev
FNDA:0,_ZNK7testing8internal10scoped_ptrINSt3__112basic_stringIcNS2_11char_traitsIcEENS2_9allocatorIcEEEEEptEv
FNDA:0,_ZNK7testing8internal10scoped_ptrINSt3__112basic_stringIcNS2_11char_traitsIcEENS2_9allocatorIcEEEEE3getEv
FNDA:0,_ZN7testing8internal10scoped_ptrINSt3__118basic_stringstreamIcNS2_11char_traitsIcEENS2_9allocatorIcEEEEE5resetEPS8_
FNDA:0,_ZN7testing8internal10scoped_ptrINSt3__112basic_stringIcNS2_11char_traitsIcEENS2_9allocatorIcEEEEE5resetEPS8_
FNF:10
FNH:0
DA:1156,0
DA:1157,0
DA:1160,0
DA:1161,0
DA:1170,0
DA:1171,0
DA:1172,0
DA:1173,0
DA:1174,0
DA:1175,0
DA:1176,0
LF:11
LH:0
end_of_record
SF:/Users/vpomsztein/Documents/PrivateRepositories/Algoritmos1/TPI/juegoDeLaVida/tests/esPeriodicoTEST.cpp
FN:7,_ZN48esPeriodicoTEST_toroideHorizontalPeriodico2_Test8TestBodyEv
FN:7,_ZN48esPeriodicoTEST_toroideHorizontalPeriodico2_TestD1Ev
FN:7,_ZN48esPeriodicoTEST_toroideHorizontalPeriodico2_TestC2Ev
FN:7,_ZN48esPeriodicoTEST_toroideHorizontalPeriodico2_TestC1Ev
FN:7,_ZN48esPeriodicoTEST_toroideHorizontalPeriodico2_TestD2Ev
FN:7,_ZN48esPeriodicoTEST_toroideHorizontalPeriodico2_TestD0Ev
FN:7,__cxx_global_var_init
FN:20,__cxx_global_var_init.12
FN:20,_ZN37esPeriodicoTEST_toroideTodoFalso_TestD1Ev
FN:20,_ZN37esPeriodicoTEST_toroideTodoFalso_TestC1Ev
FN:20,_ZN37esPeriodicoTEST_toroideTodoFalso_TestC2Ev
FN:20,_ZN37esPeriodicoTEST_toroideTodoFalso_TestD0Ev
FN:20,_ZN37esPeriodicoTEST_toroideTodoFalso_TestD2Ev
FN:20,_ZN37esPeriodicoTEST_toroideTodoFalso_Test8TestBodyEv
FN:30,_ZN36esPeriodicoTEST_toroideDiagonal_TestC2Ev
FN:30,_ZN36esPeriodicoTEST_toroideDiagonal_Test8TestBodyEv
FN:30,_ZN36esPeriodicoTEST_toroideDiagonal_TestD1Ev
FN:30,_ZN36esPeriodicoTEST_toroideDiagonal_TestC1Ev
FN:30,__cxx_global_var_init.18
FN:30,_ZN36esPeriodicoTEST_toroideDiagonal_TestD0Ev
FN:30,_ZN36esPeriodicoTEST_toroideDiagonal_TestD2Ev
FNDA:4,__cxx_global_var_init
FNDA:2,_ZN48esPeriodicoTEST_toroideHorizontalPeriodico2_Test8TestBodyEv
FNDA:2,_ZN48esPeriodicoTEST_toroideHorizontalPeriodico2_TestD1Ev
FNDA:2,_ZN48esPeriodicoTEST_toroideHorizontalPeriodico2_TestD0Ev
FNDA:2,_ZN48esPeriodicoTEST_toroideHorizontalPeriodico2_TestC1Ev
FNDA:2,_ZN48esPeriodicoTEST_toroideHorizontalPeriodico2_TestC2Ev
FNDA:2,_ZN48esPeriodicoTEST_toroideHorizontalPeriodico2_TestD2Ev
FNDA:4,__cxx_global_var_init.12
FNDA:2,_ZN37esPeriodicoTEST_toroideTodoFalso_Test8TestBodyEv
FNDA:2,_ZN37esPeriodicoTEST_toroideTodoFalso_TestD1Ev
FNDA:2,_ZN37esPeriodicoTEST_toroideTodoFalso_TestD0Ev
FNDA:2,_ZN37esPeriodicoTEST_toroideTodoFalso_TestC1Ev
FNDA:2,_ZN37esPeriodicoTEST_toroideTodoFalso_TestC2Ev
FNDA:2,_ZN37esPeriodicoTEST_toroideTodoFalso_TestD2Ev
FNDA:4,__cxx_global_var_init.18
FNDA:2,_ZN36esPeriodicoTEST_toroideDiagonal_Test8TestBodyEv
FNDA:2,_ZN36esPeriodicoTEST_toroideDiagonal_TestD1Ev
FNDA:2,_ZN36esPeriodicoTEST_toroideDiagonal_TestD0Ev
FNDA:2,_ZN36esPeriodicoTEST_toroideDiagonal_TestC1Ev
FNDA:2,_ZN36esPeriodicoTEST_toroideDiagonal_TestC2Ev
FNDA:2,_ZN36esPeriodicoTEST_toroideDiagonal_TestD2Ev
FNF:21
FNH:21
DA:7,38
DA:8,24
DA:9,2
DA:10,2
DA:11,2
DA:12,2
DA:13,2
DA:15,6
DA:16,10
DA:17,10
DA:18,2
DA:20,38
DA:21,16
DA:22,2
DA:23,2
DA:25,6
DA:26,10
DA:27,10
DA:28,2
DA:30,38
DA:31,16
DA:32,2
DA:33,2
DA:35,6
DA:36,10
DA:37,2
LF:26
LH:26
end_of_record
TN:
SF:/Applications/Xcode.app/Contents/Developer/Toolchains/XcodeDefault.xctoolchain/usr/include/c++/v1/__bit_reference
FN:56,_ZNSt3__115__bit_referenceINS_6vectorIbNS_9allocatorIbEEEELb1EEaSEb
FN:74,_ZNSt3__115__bit_referenceINS_6vectorIbNS_9allocatorIbEEEELb1EEC1EPmm
FN:74,_ZNSt3__115__bit_referenceINS_6vectorIbNS_9allocatorIbEEEELb1EEC2EPmm
FN:404,_ZNSt3__114__copy_alignedINS_6vectorIbNS_9allocatorIbEEEELb1EEENS_14__bit_iteratorIT_Lb0EXLi0EEEENS5_IS6_XT0_EXLi0EEEES8_S7_
FN:453,_ZNSt3__116__copy_unalignedINS_6vectorIbNS_9allocatorIbEEEELb1EEENS_14__bit_iteratorIT_Lb0EXLi0EEEENS5_IS6_XT0_EXLi0EEEES8_S7_
FN:532,_ZNSt3__14copyINS_6vectorIbNS_9allocatorIbEEEELb1EEENS_14__bit_iteratorIT_Lb0EXLi0EEEENS5_IS6_XT0_EXLi0EEEES8_S7_
FN:1112,_ZNSt3__114__bit_iteratorINS_6vectorIbNS_9allocatorIbEEEELb0ELm0EEC1ERKS5_
FN:1112,_ZNSt3__114__bit_iteratorINS_6vectorIbNS_9allocatorIbEEEELb0ELm0EEC2ERKS5_
FN:1115,_ZNKSt3__114__bit_iteratorINS_6vectorIbNS_9allocatorIbEEEELb0ELm0EEdeEv
FN:1118,_ZNSt3__114__bit_iteratorINS_6vectorIbNS_9allocatorIbEEEELb0ELm0EEppEv
FN:1191,_ZNSt3__1miERKNS_14__bit_iteratorINS_6vectorIbNS_9allocatorIbEEEELb1ELm0EEES7_
FN:1216,_ZNSt3__114__bit_iteratorINS_6vectorIbNS_9allocatorIbEEEELb1ELm0EEC2EPKmj
FN:1216,_ZNSt3__114__bit_iteratorINS_6vectorIbNS_9allocatorIbEEEELb1ELm0EEC1EPKmj
FN:1216,_ZNSt3__114__bit_iteratorINS_6vectorIbNS_9allocatorIbEEEELb0ELm0EEC1EPmj
FN:1216,_ZNSt3__114__bit_iteratorINS_6vectorIbNS_9allocatorIbEEEELb0ELm0EEC2EPmj
FNDA:0,_ZNSt3__115__bit_referenceINS_6vectorIbNS_9allocatorIbEEEELb1EEaSEb
FNDA:0,_ZNSt3__115__bit_referenceINS_6vectorIbNS_9allocatorIbEEEELb1EEC1EPmm
FNDA:0,_ZNSt3__115__bit_referenceINS_6vectorIbNS_9allocatorIbEEEELb1EEC2EPmm
FNDA:0,_ZNSt3__114__copy_alignedINS_6vectorIbNS_9allocatorIbEEEELb1EEENS_14__bit_iteratorIT_Lb0EXLi0EEEENS5_IS6_XT0_EXLi0EEEES8_S7_
FNDA:0,_ZNSt3__116__copy_unalignedINS_6vectorIbNS_9allocatorIbEEEELb1EEENS_14__bit_iteratorIT_Lb0EXLi0EEEENS5_IS6_XT0_EXLi0EEEES8_S7_
FNDA:0,_ZNSt3__14copyINS_6vectorIbNS_9allocatorIbEEEELb1EEENS_14__bit_iteratorIT_Lb0EXLi0EEEENS5_IS6_XT0_EXLi0EEEES8_S7_
FNDA:0,_ZNSt3__114__bit_iteratorINS_6vectorIbNS_9allocatorIbEEEELb0ELm0EEC1ERKS5_
FNDA:0,_ZNSt3__114__bit_iteratorINS_6vectorIbNS_9allocatorIbEEEELb0ELm0EEC2ERKS5_
FNDA:0,_ZNKSt3__114__bit_iteratorINS_6vectorIbNS_9allocatorIbEEEELb0ELm0EEdeEv
FNDA:0,_ZNSt3__114__bit_iteratorINS_6vectorIbNS_9allocatorIbEEEELb0ELm0EEppEv
FNDA:0,_ZNSt3__1miERKNS_14__bit_iteratorINS_6vectorIbNS_9allocatorIbEEEELb1ELm0EEES7_
FNDA:0,_ZNSt3__114__bit_iteratorINS_6vectorIbNS_9allocatorIbEEEELb0ELm0EEC1EPmj
FNDA:0,_ZNSt3__114__bit_iteratorINS_6vectorIbNS_9allocatorIbEEEELb0ELm0EEC2EPmj
FNDA:0,_ZNSt3__114__bit_iteratorINS_6vectorIbNS_9allocatorIbEEEELb1ELm0EEC1EPKmj
FNDA:0,_ZNSt3__114__bit_iteratorINS_6vectorIbNS_9allocatorIbEEEELb1ELm0EEC2EPKmj
FNF:15
FNH:0
DA:58,0
DA:59,0
DA:61,0
DA:62,0
DA:75,0
DA:410,0
DA:411,0
DA:412,0
DA:415,0
DA:417,0
DA:418,0
DA:419,0
DA:420,0
DA:421,0
DA:422,0
DA:423,0
DA:424,0
DA:425,0
DA:426,0
DA:428,0
DA:431,0
DA:432,0
DA:433,0
DA:434,0
DA:435,0
DA:436,0
DA:438,0
DA:440,0
DA:441,0
DA:442,0
DA:443,0
DA:444,0
DA:445,0
DA:446,0
DA:447,0
DA:448,0
DA:460,0
DA:461,0
DA:464,0
DA:466,0
DA:467,0
DA:468,0
DA:469,0
DA:470,0
DA:471,0
DA:472,0
DA:473,0
DA:474,0
DA:475,0
DA:476,0
DA:478,0
DA:479,0
DA:480,0
DA:481,0
DA:482,0
DA:484,0
DA:485,0
DA:486,0
DA:487,0
DA:488,0
DA:489,0
DA:491,0
DA:494,0
DA:495,0
DA:496,0
DA:498,0
DA:499,0
DA:500,0
DA:501,0
DA:502,0
DA:503,0
DA:504,0
DA:506,0
DA:508,0
DA:509,0
DA:510,0
DA:511,0
DA:512,0
DA:513,0
DA:514,0
DA:515,0
DA:516,0
DA:517,0
DA:519,0
DA:520,0
DA:521,0
DA:522,0
DA:523,0
DA:524,0
DA:525,0
DA:526,0
DA:534,0
DA:535,0
DA:536,0
DA:537,0
DA:1113,0
DA:1116,0
DA:1120,0
DA:1121,0
DA:1124,0
DA:1125,0
DA:1127,0
DA:1192,0
DA:1217,0
LF:104
LH:0
end_of_record
SF:/Applications/Xcode.app/Contents/Developer/Toolchains/XcodeDefault.xctoolchain/usr/include/c++/v1/__locale
FN:210,_ZNSt3__19use_facetINS_5ctypeIcEEEERKT_RKNS_6localeE
FN:625,_ZNKSt3__15ctypeIcE5widenEc
FNDA:0,_ZNSt3__19use_facetINS_5ctypeIcEEEERKT_RKNS_6localeE
FNDA:0,_ZNKSt3__15ctypeIcE5widenEc
FNF:2
FNH:0
DA:212,0
DA:627,0
LF:2
LH:0
end_of_record
SF:/Applications/Xcode.app/Contents/Developer/Toolchains/XcodeDefault.xctoolchain/usr/include/c++/v1/__string
FN:208,_ZNSt3__111char_traitsIcE6assignERcRKc
FN:209,_ZNSt3__111char_traitsIcE2eqEcc
FN:217,_ZNSt3__111char_traitsIcE6lengthEPKc
FN:230,_ZNSt3__111char_traitsIcE7not_eofEi
FN:232,_ZNSt3__111char_traitsIcE12to_char_typeEi
FN:234,_ZNSt3__111char_traitsIcE11to_int_typeEc
FN:236,_ZNSt3__111char_traitsIcE11eq_int_typeEii
FN:238,_ZNSt3__111char_traitsIcE3eofEv
FNDA:4553,_ZNSt3__111char_traitsIcE6assignERcRKc
FNDA:0,_ZNSt3__111char_traitsIcE2eqEcc
FNDA:0,_ZNSt3__111char_traitsIcE6lengthEPKc
FNDA:0,_ZNSt3__111char_traitsIcE7not_eofEi
FNDA:0,_ZNSt3__111char_traitsIcE12to_char_typeEi
FNDA:53,_ZNSt3__111char_traitsIcE11to_int_typeEc
FNDA:0,_ZNSt3__111char_traitsIcE11eq_int_typeEii
FNDA:0,_ZNSt3__111char_traitsIcE3eofEv
FNF:8
FNH:2
DA:208,4553
DA:210,0
DA:217,0
DA:231,0
DA:233,0
DA:235,53
DA:237,0
DA:239,0
LF:8
LH:2
end_of_record
SF:/Applications/Xcode.app/Contents/Developer/Toolchains/XcodeDefault.xctoolchain/usr/include/c++/v1/algorithm
FN:682,_ZNKSt3__110__equal_toINS_5tupleIJiiEEES2_EclERKS2_S5_
FN:719,_ZNKSt3__16__lessIllEclERKlS3_
FN:719,_ZNKSt3__16__lessImmEclERKmS3_
FN:719,_ZNKSt3__16__lessIPcS1_EclERKS1_S4_
FN:719,_ZNKSt3__16__lessINS_5tupleIJiiEEES2_EclERKS2_S5_
FN:1322,_ZNSt3__15equalINS_11__wrap_iterIPKNS_5tupleIJiiEEEEES6_NS_10__equal_toIS3_S3_EEEEbT_S9_T0_T1_
FN:1333,_ZNSt3__15equalINS_11__wrap_iterIPKNS_5tupleIJiiEEEEES6_EEbT_S7_T0_
FN:1759,_ZNSt3__113__unwrap_iterINS_14__bit_iteratorINS_6vectorIbNS_9allocatorIbEEEELb0ELm0EEEEET_S7_
FN:1759,_ZNSt3__113__unwrap_iterIPKbEET_S3_
FN:1809,_ZNSt3__16__copyIPKbNS_14__bit_iteratorINS_6vectorIbNS_9allocatorIbEEEELb0ELm0EEEEET0_T_SA_S9_
FN:1835,_ZNSt3__14copyIPKbNS_14__bit_iteratorINS_6vectorIbNS_9allocatorIbEEEELb0ELm0EEEEET0_T_SA_S9_
FN:2644,_ZNSt3__13minIlNS_6__lessIllEEEERKT_S5_S5_T0_
FN:2644,_ZNSt3__13minImNS_6__lessImmEEEERKT_S5_S5_T0_
FN:2652,_ZNSt3__13minImEERKT_S3_S3_
FN:2652,_ZNSt3__13minIlEERKT_S3_S3_
FN:2709,_ZNSt3__13maxIPcNS_6__lessIS1_S1_EEEERKT_S6_S6_T0_
FN:2717,_ZNSt3__13maxIPcEERKT_S4_S4_
FN:3762,_ZNSt3__17__sort3IRNS_6__lessINS_5tupleIJiiEEES3_EEPS3_EEjT0_S7_S7_T_
FN:3799,_ZNSt3__17__sort4IRNS_6__lessINS_5tupleIJiiEEES3_EEPS3_EEjT0_S7_S7_S7_T_
FN:3825,_ZNSt3__17__sort5IRNS_6__lessINS_5tupleIJiiEEES3_EEPS3_EEjT0_S7_S7_S7_S7_T_
FN:3889,_ZNSt3__118__insertion_sort_3IRNS_6__lessINS_5tupleIJiiEEES3_EEPS3_EEvT0_S7_T_
FN:3914,_ZNSt3__127__insertion_sort_incompleteIRNS_6__lessINS_5tupleIJiiEEES3_EEPS3_EEbT0_S7_T_
FN:3998,_ZNSt3__16__sortIRNS_6__lessINS_5tupleIJiiEEES3_EEPS3_EEvT0_S7_T_
FN:4193,_ZNSt3__14sortIPNS_5tupleIJiiEEENS_6__lessIS2_S2_EEEEvT_S6_T0_
FN:4208,_ZNSt3__14sortIPNS_5tupleIJiiEEEEEvT_S4_
FN:4224,_ZNSt3__14sortINS_5tupleIJiiEEEEEvNS_11__wrap_iterIPT_EES6_
FNDA:40,_ZNKSt3__110__equal_toINS_5tupleIJiiEEES2_EclERKS2_S5_
FNDA:120,_ZNKSt3__16__lessINS_5tupleIJiiEEES2_EclERKS2_S5_
FNDA:0,_ZNKSt3__16__lessImmEclERKmS3_
FNDA:53,_ZNKSt3__16__lessIPcS1_EclERKS1_S4_
FNDA:0,_ZNKSt3__16__lessIllEclERKlS3_
FNDA:10,_ZNSt3__15equalINS_11__wrap_iterIPKNS_5tupleIJiiEEEEES6_NS_10__equal_toIS3_S3_EEEEbT_S9_T0_T1_
FNDA:10,_ZNSt3__15equalINS_11__wrap_iterIPKNS_5tupleIJiiEEEEES6_EEbT_S7_T0_
FNDA:0,_ZNSt3__113__unwrap_iterIPKbEET_S3_
FNDA:0,_ZNSt3__113__unwrap_iterINS_14__bit_iteratorINS_6vectorIbNS_9allocatorIbEEEELb0ELm0EEEEET_S7_
FNDA:0,_ZNSt3__16__copyIPKbNS_14__bit_iteratorINS_6vectorIbNS_9allocatorIbEEEELb0ELm0EEEEET0_T_SA_S9_
FNDA:0,_ZNSt3__14copyIPKbNS_14__bit_iteratorINS_6vectorIbNS_9allocatorIbEEEELb0ELm0EEEEET0_T_SA_S9_
FNDA:0,_ZNSt3__13minImNS_6__lessImmEEEERKT_S5_S5_T0_
FNDA:0,_ZNSt3__13minIlNS_6__lessIllEEEERKT_S5_S5_T0_
FNDA:0,_ZNSt3__13minImEERKT_S3_S3_
FNDA:0,_ZNSt3__13minIlEERKT_S3_S3_
FNDA:53,_ZNSt3__13maxIPcNS_6__lessIS1_S1_EEEERKT_S6_S6_T0_
FNDA:53,_ZNSt3__13maxIPcEERKT_S4_S4_
FNDA:16,_ZNSt3__17__sort3IRNS_6__lessINS_5tupleIJiiEEES3_EEPS3_EEjT0_S7_S7_T_
FNDA:4,_ZNSt3__17__sort4IRNS_6__lessINS_5tupleIJiiEEES3_EEPS3_EEjT0_S7_S7_S7_T_
FNDA:4,_ZNSt3__17__sort5IRNS_6__lessINS_5tupleIJiiEEES3_EEPS3_EEjT0_S7_S7_S7_S7_T_
FNDA:4,_ZNSt3__118__insertion_sort_3IRNS_6__lessINS_5tupleIJiiEEES3_EEPS3_EEvT0_S7_T_
FNDA:8,_ZNSt3__127__insertion_sort_incompleteIRNS_6__lessINS_5tupleIJiiEEES3_EEPS3_EEbT0_S7_T_
FNDA:12,_ZNSt3__16__sortIRNS_6__lessINS_5tupleIJiiEEES3_EEPS3_EEvT0_S7_T_
FNDA:12,_ZNSt3__14sortIPNS_5tupleIJiiEEENS_6__lessIS2_S2_EEEEvT_S6_T0_
FNDA:12,_ZNSt3__14sortIPNS_5tupleIJiiEEEEEvT_S4_
FNDA:12,_ZNSt3__14sortINS_5tupleIJiiEEEEEvNS_11__wrap_iterIPT_EES6_
FNF:26
FNH:16
DA:682,40
DA:719,173
DA:1324,100
DA:1325,80
DA:1326,0
DA:1327,10
DA:1328,10
DA:1337,10
DA:1761,0
DA:1811,0
DA:1812,0
DA:1813,0
DA:1837,0
DA:2646,0
DA:2654,0
DA:2711,159
DA:2719,53
DA:3764,16
DA:3765,16
DA:3767,16
DA:3768,16
DA:3770,0
DA:3771,0
DA:3772,0
DA:3774,0
DA:3775,0
DA:3776,0
DA:3777,0
DA:3779,0
DA:3781,0
DA:3782,0
DA:3783,0
DA:3785,0
DA:3786,0
DA:3787,0
DA:3789,0
DA:3790,0
DA:3791,0
DA:3792,0
DA:3793,16
DA:3802,4
DA:3803,4
DA:3805,0
DA:3806,0
DA:3807,0
DA:3809,0
DA:3810,0
DA:3811,0
DA:3813,0
DA:3814,0
DA:3815,0
DA:3816,0
DA:3817,0
DA:3818,4
DA:3828,4
DA:3829,4
DA:3831,0
DA:3832,0
DA:3833,0
DA:3835,0
DA:3836,0
DA:3837,0
DA:3839,0
DA:3840,0
DA:3841,0
DA:3843,0
DA:3844,0
DA:3845,0
DA:3846,0
DA:3847,0
DA:3848,0
DA:3849,4
DA:3892,4
DA:3893,4
DA:3894,32
DA:3896,12
DA:3898,0
DA:3899,0
DA:3900,0
DA:3901,0
DA:3903,0
DA:3904,0
DA:3905,0
DA:3906,0
DA:3907,0
DA:3908,12
DA:3909,12
DA:3910,4
DA:3916,8
DA:3920,0
DA:3922,0
DA:3923,0
DA:3924,0
DA:3926,0
DA:3927,0
DA:3929,0
DA:3930,0
DA:3932,4
DA:3933,4
DA:3936,4
DA:3937,4
DA:3938,4
DA:3939,4
DA:3940,32
DA:3942,12
DA:3944,0
DA:3945,0
DA:3946,0
DA:3947,0
DA:3949,0
DA:3950,0
DA:3951,0
DA:3952,0
DA:3953,0
DA:3954,0
DA:3955,0
DA:3956,12
DA:3957,12
DA:3958,4
DA:3959,8
DA:4003,12
DA:4005,12
DA:4006,12
DA:4008,12
DA:4009,12
DA:4013,0
DA:4015,4
DA:4016,0
DA:4017,4
DA:4019,0
DA:4020,0
DA:4022,0
DA:4023,0
DA:4025,0
DA:4026,0
DA:4028,8
DA:4030,4
DA:4031,4
DA:4034,4
DA:4035,4
DA:4036,4
DA:4040,4
DA:4042,0
DA:4043,0
DA:4044,0
DA:4045,0
DA:4046,0
DA:4049,4
DA:4050,4
DA:4051,4
DA:4057,4
DA:4058,4
DA:4062,4
DA:4066,0
DA:4068,0
DA:4072,0
DA:4073,0
DA:4074,0
DA:4076,0
DA:4078,0
DA:4079,0
DA:4080,0
DA:4082,0
DA:4083,0
DA:4084,0
DA:4085,0
DA:4087,0
DA:4089,0
DA:4091,0
DA:4092,0
DA:4093,0
DA:4095,0
DA:4096,0
DA:4097,0
DA:4099,0
DA:4100,0
DA:4101,0
DA:4102,0
DA:4103,0
DA:4108,0
DA:4109,0
DA:4111,0
DA:4113,0
DA:4114,0
DA:4115,0
DA:4118,0
DA:4120,4
DA:4123,4
DA:4127,4
DA:4130,48
DA:4131,20
DA:4133,48
DA:4135,4
DA:4136,4
DA:4137,0
DA:4138,0
DA:4141,0
DA:4142,0
DA:4143,0
DA:4145,4
DA:4147,4
DA:4149,0
DA:4150,0
DA:4151,0
DA:4154,4
DA:4156,4
DA:4157,4
DA:4159,4
DA:4160,4
DA:4161,0
DA:4162,0
DA:4166,0
DA:4168,0
DA:4169,0
DA:4172,0
DA:4174,0
DA:4176,0
DA:4178,0
DA:4179,0
DA:4182,0
DA:4184,0
DA:4187,12
DA:4201,12
DA:4203,12
DA:4210,12
DA:4211,12
DA:4226,12
DA:4227,12
LF:228
LH:82
end_of_record
SF:/Applications/Xcode.app/Contents/Developer/Toolchains/XcodeDefault.xctoolchain/usr/include/c++/v1/initializer_list
FN:85,_ZNKSt16initializer_listINSt3__15tupleIJiiEEEE4sizeEv
FN:85,_ZNKSt16initializer_listINSt3__16vectorIbNS0_9allocatorIbEEEEE4sizeEv
FN:85,_ZNKSt16initializer_listIbE4sizeEv
FN:89,_ZNKSt16initializer_listINSt3__16vectorIbNS0_9allocatorIbEEEEE5beginEv
FN:89,_ZNKSt16initializer_listINSt3__15tupleIJiiEEEE5beginEv
FN:89,_ZNKSt16initializer_listIbE5beginEv
FN:93,_ZNKSt16initializer_listINSt3__15tupleIJiiEEEE3endEv
FN:93,_ZNKSt16initializer_listIbE3endEv
FN:93,_ZNKSt16initializer_listINSt3__16vectorIbNS0_9allocatorIbEEEEE3endEv
FNDA:30,_ZNKSt16initializer_listINSt3__16vectorIbNS0_9allocatorIbEEEEE4sizeEv
FNDA:0,_ZNKSt16initializer_listIbE4sizeEv
FNDA:18,_ZNKSt16initializer_listINSt3__15tupleIJiiEEEE4sizeEv
FNDA:10,_ZNKSt16initializer_listINSt3__16vectorIbNS0_9allocatorIbEEEEE5beginEv
FNDA:0,_ZNKSt16initializer_listIbE5beginEv
FNDA:6,_ZNKSt16initializer_listINSt3__15tupleIJiiEEEE5beginEv
FNDA:10,_ZNKSt16initializer_listINSt3__16vectorIbNS0_9allocatorIbEEEEE3endEv
FNDA:0,_ZNKSt16initializer_listIbE3endEv
FNDA:6,_ZNKSt16initializer_listINSt3__15tupleIJiiEEEE3endEv
FNF:9
FNH:6
DA:85,48
DA:89,16
DA:93,16
LF:3
LH:3
end_of_record
SF:/Applications/Xcode.app/Contents/Developer/Toolchains/XcodeDefault.xctoolchain/usr/include/c++/v1/ios
FN:336,_ZNSt3__18ios_baseC2Ev
FN:340,_ZNKSt3__18ios_base5rdbufEv
FN:440,_ZNKSt3__18ios_base5flagsEv
FN:502,_ZNKSt3__18ios_base5widthEv
FN:509,_ZNSt3__18ios_base5widthEl
FN:527,_ZNSt3__18ios_base8setstateEj
FN:611,_ZNSt3__19basic_iosIcNS_11char_traitsIcEEE8setstateEj
FN:653,_ZNSt3__19basic_iosIcNS_11char_traitsIcEEEC2Ev
FN:688,_ZNSt3__19basic_iosIcNS_11char_traitsIcEEE4initEPNS_15basic_streambufIcS2_EE
FN:716,_ZNKSt3__19basic_iosIcNS_11char_traitsIcEEE5rdbufEv
FN:754,_ZNKSt3__19basic_iosIcNS_11char_traitsIcEEE5widenEc
FN:762,_ZNKSt3__19basic_iosIcNS_11char_traitsIcEEE4fillEv
FNDA:0,_ZNSt3__18ios_baseC2Ev
FNDA:0,_ZNKSt3__18ios_base5rdbufEv
FNDA:0,_ZNKSt3__18ios_base5flagsEv
FNDA:0,_ZNKSt3__18ios_base5widthEv
FNDA:0,_ZNSt3__18ios_base5widthEl
FNDA:0,_ZNSt3__18ios_base8setstateEj
FNDA:0,_ZNSt3__19basic_iosIcNS_11char_traitsIcEEE8setstateEj
FNDA:0,_ZNSt3__19basic_iosIcNS_11char_traitsIcEEEC2Ev
FNDA:0,_ZNSt3__19basic_iosIcNS_11char_traitsIcEEE4initEPNS_15basic_streambufIcS2_EE
FNDA:0,_ZNKSt3__19basic_iosIcNS_11char_traitsIcEEE5rdbufEv
FNDA:0,_ZNKSt3__19basic_iosIcNS_11char_traitsIcEEE5widenEc
FNDA:0,_ZNKSt3__19basic_iosIcNS_11char_traitsIcEEE4fillEv
FNF:12
FNH:0
DA:336,0
DA:337,0
DA:340,0
DA:442,0
DA:504,0
DA:511,0
DA:512,0
DA:513,0
DA:529,0
DA:530,0
DA:611,0
DA:653,0
DA:654,0
DA:690,0
DA:691,0
DA:692,0
DA:693,0
DA:718,0
DA:756,0
DA:757,0
DA:764,0
DA:765,0
DA:766,0
LF:23
LH:0
end_of_record
SF:/Applications/Xcode.app/Contents/Developer/Toolchains/XcodeDefault.xctoolchain/usr/include/c++/v1/iosfwd
FN:117,_ZNSt3__115basic_stringbufIcNS_11char_traitsIcEENS_9allocatorIcEEED2Ev
FN:117,_ZNSt3__115basic_stringbufIcNS_11char_traitsIcEENS_9allocatorIcEEED1Ev
FN:117,_ZNSt3__115basic_stringbufIcNS_11char_traitsIcEENS_9allocatorIcEEED0Ev
FN:126,_ZNSt3__118basic_stringstreamIcNS_11char_traitsIcEENS_9allocatorIcEEED0Ev
FN:126,_ZNSt3__118basic_stringstreamIcNS_11char_traitsIcEENS_9allocatorIcEEED1Ev
FN:126,_ZNSt3__118basic_stringstreamIcNS_11char_traitsIcEENS_9allocatorIcEEED2Ev
FNDA:400,_ZNSt3__115basic_stringbufIcNS_11char_traitsIcEENS_9allocatorIcEEED1Ev
FNDA:0,_ZNSt3__115basic_stringbufIcNS_11char_traitsIcEENS_9allocatorIcEEED0Ev
FNDA:400,_ZNSt3__115basic_stringbufIcNS_11char_traitsIcEENS_9allocatorIcEEED2Ev
FNDA:400,_ZNSt3__118basic_stringstreamIcNS_11char_traitsIcEENS_9allocatorIcEEED1Ev
FNDA:400,_ZNSt3__118basic_stringstreamIcNS_11char_traitsIcEENS_9allocatorIcEEED0Ev
FNDA:400,_ZNSt3__118basic_stringstreamIcNS_11char_traitsIcEENS_9allocatorIcEEED2Ev
FNF:6
FNH:5
DA:117,800
DA:126,1200
LF:2
LH:2
end_of_record
SF:/Applications/Xcode.app/Contents/Developer/Toolchains/XcodeDefault.xctoolchain/usr/include/c++/v1/istream
FN:190,_ZNSt3__113basic_istreamIcNS_11char_traitsIcEEEC2EPNS_15basic_streambufIcS2_EE
FN:1461,_ZNSt3__114basic_iostreamIcNS_11char_traitsIcEEEC2EPNS_15basic_streambufIcS2_EE
FNDA:0,_ZNSt3__113basic_istreamIcNS_11char_traitsIcEEEC2EPNS_15basic_streambufIcS2_EE
FNDA:0,_ZNSt3__114basic_iostreamIcNS_11char_traitsIcEEEC2EPNS_15basic_streambufIcS2_EE
FNF:2
FNH:0
DA:190,0
DA:191,0
DA:1461,0
DA:1462,0
DA:1463,0
LF:5
LH:0
end_of_record
SF:/Applications/Xcode.app/Contents/Developer/Toolchains/XcodeDefault.xctoolchain/usr/include/c++/v1/iterator
FN:592,_ZNSt3__110__distanceIPKbEENS_15iterator_traitsIT_E15difference_typeES4_S4_NS_26random_access_iterator_tagE
FN:592,_ZNSt3__110__distanceIPcEENS_15iterator_traitsIT_E15difference_typeES3_S3_NS_26random_access_iterator_tagE
FN:592,_ZNSt3__110__distanceINS_14__bit_iteratorINS_6vectorIbNS_9allocatorIbEEEELb1ELm0EEEEENS_15iterator_traitsIT_E15difference_typeES8_S8_NS_26random_access_iterator_tagE
FN:600,_ZNSt3__18distanceIPcEENS_15iterator_traitsIT_E15difference_typeES3_S3_
FN:600,_ZNSt3__18distanceINS_14__bit_iteratorINS_6vectorIbNS_9allocatorIbEEEELb1ELm0EEEEENS_15iterator_traitsIT_E15difference_typeES8_S8_
FN:600,_ZNSt3__18distanceIPKbEENS_15iterator_traitsIT_E15difference_typeES4_S4_
FN:1031,_ZNSt3__119ostreambuf_iteratorIcNS_11char_traitsIcEEEC2ERNS_13basic_ostreamIcS2_EE
FN:1031,_ZNSt3__119ostreambuf_iteratorIcNS_11char_traitsIcEEEC1ERNS_13basic_ostreamIcS2_EE
FN:1044,_ZNKSt3__119ostreambuf_iteratorIcNS_11char_traitsIcEEE6failedEv
FN:1331,_ZNKSt3__111__wrap_iterIPKNS_5tupleIJiiEEEEdeEv
FN:1347,_ZNSt3__111__wrap_iterIPKNS_5tupleIJiiEEEEppEv
FN:1393,_ZNKSt3__111__wrap_iterIPNS_5tupleIJiiEEEE4baseEv
FN:1393,_ZNKSt3__111__wrap_iterIPKNS_5tupleIJiiEEEE4baseEv
FN:1402,_ZNSt3__111__wrap_iterIPKNS_5tupleIJiiEEEEC2ES4_
FN:1402,_ZNSt3__111__wrap_iterIPNS_5tupleIJiiEEEEC1ES3_
FN:1402,_ZNSt3__111__wrap_iterIPKNS_5tupleIJiiEEEEC1ES4_
FN:1402,_ZNSt3__111__wrap_iterIPNS_5tupleIJiiEEEEC2ES3_
FN:1486,_ZNSt3__1eqIPKNS_5tupleIJiiEEES4_EEbRKNS_11__wrap_iterIT_EERKNS5_IT0_EE
FN:1538,_ZNSt3__1neIPKNS_5tupleIJiiEEEEEbRKNS_11__wrap_iterIT_EES9_
FNDA:400,_ZNSt3__110__distanceIPcEENS_15iterator_traitsIT_E15difference_typeES3_S3_NS_26random_access_iterator_tagE
FNDA:0,_ZNSt3__110__distanceIPKbEENS_15iterator_traitsIT_E15difference_typeES4_S4_NS_26random_access_iterator_tagE
FNDA:0,_ZNSt3__110__distanceINS_14__bit_iteratorINS_6vectorIbNS_9allocatorIbEEEELb1ELm0EEEEENS_15iterator_traitsIT_E15difference_typeES8_S8_NS_26random_access_iterator_tagE
FNDA:400,_ZNSt3__18distanceIPcEENS_15iterator_traitsIT_E15difference_typeES3_S3_
FNDA:0,_ZNSt3__18distanceIPKbEENS_15iterator_traitsIT_E15difference_typeES4_S4_
FNDA:0,_ZNSt3__18distanceINS_14__bit_iteratorINS_6vectorIbNS_9allocatorIbEEEELb1ELm0EEEEENS_15iterator_traitsIT_E15difference_typeES8_S8_
FNDA:0,_ZNSt3__119ostreambuf_iteratorIcNS_11char_traitsIcEEEC1ERNS_13basic_ostreamIcS2_EE
FNDA:0,_ZNSt3__119ostreambuf_iteratorIcNS_11char_traitsIcEEEC2ERNS_13basic_ostreamIcS2_EE
FNDA:0,_ZNKSt3__119ostreambuf_iteratorIcNS_11char_traitsIcEEE6failedEv
FNDA:80,_ZNKSt3__111__wrap_iterIPKNS_5tupleIJiiEEEEdeEv
FNDA:80,_ZNSt3__111__wrap_iterIPKNS_5tupleIJiiEEEEppEv
FNDA:24,_ZNKSt3__111__wrap_iterIPNS_5tupleIJiiEEEE4baseEv
FNDA:100,_ZNKSt3__111__wrap_iterIPKNS_5tupleIJiiEEEE4baseEv
FNDA:24,_ZNSt3__111__wrap_iterIPNS_5tupleIJiiEEEEC1ES3_
FNDA:24,_ZNSt3__111__wrap_iterIPNS_5tupleIJiiEEEEC2ES3_
FNDA:30,_ZNSt3__111__wrap_iterIPKNS_5tupleIJiiEEEEC1ES4_
FNDA:30,_ZNSt3__111__wrap_iterIPKNS_5tupleIJiiEEEEC2ES4_
FNDA:50,_ZNSt3__1eqIPKNS_5tupleIJiiEEES4_EEbRKNS_11__wrap_iterIT_EERKNS5_IT0_EE
FNDA:50,_ZNSt3__1neIPKNS_5tupleIJiiEEEEEbRKNS_11__wrap_iterIT_EES9_
FNF:19
FNH:12
DA:594,400
DA:602,400
DA:1032,0
DA:1044,0
DA:1337,80
DA:1353,80
DA:1354,80
DA:1393,124
DA:1402,108
DA:1488,50
DA:1540,50
LF:11
LH:9
end_of_record
SF:/Applications/Xcode.app/Contents/Developer/Toolchains/XcodeDefault.xctoolchain/usr/include/c++/v1/limits
FN:213,_ZNSt3__123__libcpp_numeric_limitsIlLb1EE3maxEv
FN:213,_ZNSt3__123__libcpp_numeric_limitsImLb1EE3maxEv
FN:450,_ZNSt3__114numeric_limitsImE3maxEv
FN:450,_ZNSt3__114numeric_limitsIlE3maxEv
FNDA:0,_ZNSt3__123__libcpp_numeric_limitsIlLb1EE3maxEv
FNDA:0,_ZNSt3__123__libcpp_numeric_limitsImLb1EE3maxEv
FNDA:0,_ZNSt3__114numeric_limitsIlE3maxEv
FNDA:0,_ZNSt3__114numeric_limitsImE3maxEv
FNF:4
FNH:0
DA:213,0
DA:450,0
LF:2
LH:0
end_of_record
SF:/Applications/Xcode.app/Contents/Developer/Toolchains/XcodeDefault.xctoolchain/usr/include/c++/v1/locale
FN:1381,_ZNSt3__116__pad_and_outputIcNS_11char_traitsIcEEEENS_19ostreambuf_iteratorIT_T0_EES6_PKS4_S8_S8_RNS_8ios_baseES4_
FNDA:0,_ZNSt3__116__pad_and_outputIcNS_11char_traitsIcEEEENS_19ostreambuf_iteratorIT_T0_EES6_PKS4_S8_S8_RNS_8ios_baseES4_
FNF:1
FNH:0
DA:1385,0
DA:1386,0
DA:1387,0
DA:1388,0
DA:1389,0
DA:1390,0
DA:1392,0
DA:1393,0
DA:1394,0
DA:1396,0
DA:1398,0
DA:1399,0
DA:1401,0
DA:1402,0
DA:1404,0
DA:1405,0
DA:1407,0
DA:1408,0
DA:1410,0
DA:1411,0
DA:1412,0
DA:1414,0
DA:1416,0
DA:1417,0
DA:1419,0
DA:1420,0
DA:1421,0
DA:1422,0
LF:28
LH:0
end_of_record
SF:/Applications/Xcode.app/Contents/Developer/Toolchains/XcodeDefault.xctoolchain/usr/include/c++/v1/memory
FN:977,_ZNSt3__114pointer_traitsIPKcE10pointer_toERS1_
FN:977,_ZNSt3__114pointer_traitsIPcE10pointer_toERc
FN:1095,_ZNSt3__116__to_raw_pointerINS_6vectorIbNS_9allocatorIbEEEEEEPT_S6_
FN:1095,_ZNSt3__116__to_raw_pointerIKcEEPT_S3_
FN:1095,_ZNSt3__116__to_raw_pointerImEEPT_S2_
FN:1095,_ZNSt3__116__to_raw_pointerINS_5tupleIJiiEEEEEPT_S4_
FN:1095,_ZNSt3__116__to_raw_pointerIKmEEPT_S3_
FN:1501,_ZNSt3__116allocator_traitsINS_9allocatorINS_5tupleIJiiEEEEEE8allocateERS4_m
FN:1501,_ZNSt3__116allocator_traitsINS_9allocatorINS_6vectorIbNS1_IbEEEEEEE8allocateERS5_m
FN:1501,_ZNSt3__116allocator_traitsINS_9allocatorIcEEE8allocateERS2_m
FN:1501,_ZNSt3__116allocator_traitsINS_9allocatorImEEE8allocateERS2_m
FN:1509,_ZNSt3__116allocator_traitsINS_9allocatorINS_6vectorIbNS1_IbEEEEEEE10deallocateERS5_PS4_m
FN:1509,_ZNSt3__116allocator_traitsINS_9allocatorImEEE10deallocateERS2_Pmm
FN:1509,_ZNSt3__116allocator_traitsINS_9allocatorINS_5tupleIJiiEEEEEE10deallocateERS4_PS3_m
FN:1515,_ZNSt3__116allocator_traitsINS_9allocatorINS_6vectorIbNS1_IbEEEEEEE9constructIS4_JRS4_EEEvRS5_PT_DpOT0_
FN:1515,_ZNSt3__116allocator_traitsINS_9allocatorINS_5tupleIJiiEEEEEE9constructIS3_JRKS3_EEEvRS4_PT_DpOT0_
FN:1515,_ZNSt3__116allocator_traitsINS_9allocatorINS_6vectorIbNS1_IbEEEEEEE9constructIS4_JRKS4_EEEvRS5_PT_DpOT0_
FN:1549,_ZNSt3__116allocator_traitsINS_9allocatorINS_6vectorIbNS1_IbEEEEEEE7destroyIS4_EEvRS5_PT_
FN:1549,_ZNSt3__116allocator_traitsINS_9allocatorINS_5tupleIJiiEEEEEE7destroyIS3_EEvRS4_PT_
FN:1553,_ZNSt3__116allocator_traitsINS_9allocatorImEEE8max_sizeERKS2_
FN:1553,_ZNSt3__116allocator_traitsINS_9allocatorINS_6vectorIbNS1_IbEEEEEEE8max_sizeERKS5_
FN:1553,_ZNSt3__116allocator_traitsINS_9allocatorIcEEE8max_sizeERKS2_
FN:1553,_ZNSt3__116allocator_traitsINS_9allocatorINS_5tupleIJiiEEEEEE8max_sizeERKS4_
FN:1558,_ZNSt3__116allocator_traitsINS_9allocatorINS_6vectorIbNS1_IbEEEEEEE37select_on_container_copy_constructionERKS5_
FN:1558,_ZNSt3__116allocator_traitsINS_9allocatorINS_5tupleIJiiEEEEEE37select_on_container_copy_constructionERKS4_
FN:1558,_ZNSt3__116allocator_traitsINS_9allocatorImEEE37select_on_container_copy_constructionERKS2_
FN:1597,_ZNSt3__116allocator_traitsINS_9allocatorINS_6vectorIbNS1_IbEEEEEEE25__construct_range_forwardIPKS4_PS4_EEvRS5_T_SC_RT0_
FN:1597,_ZNSt3__116allocator_traitsINS_9allocatorINS_5tupleIJiiEEEEEE25__construct_range_forwardIPKS3_PS3_EEvRS4_T_SB_RT0_
FN:1597,_ZNSt3__116allocator_traitsINS_9allocatorINS_6vectorIbNS1_IbEEEEEEE25__construct_range_forwardIPS4_S8_EEvRS5_T_SA_RT0_
FN:1613,_ZNSt3__116allocator_traitsINS_9allocatorINS_5tupleIJiiEEEEEE25__construct_range_forwardIS3_EENS_9enable_ifIXaaoosr7is_sameIS4_NS1_IT_EEEE5valuentsr15__has_constructIS4_PS8_S8_EE5valuesr31is_trivially_move_constructibleIS8_EE5valueEvE4typeERS4_SA_SA_RSA_
FN:1669,_ZNSt3__116allocator_traitsINS_9allocatorINS_5tupleIJiiEEEEEE11__constructIS3_JRKS3_EEEvNS_17integral_constantIbLb1EEERS4_PT_DpOT0_
FN:1669,_ZNSt3__116allocator_traitsINS_9allocatorINS_6vectorIbNS1_IbEEEEEEE11__constructIS4_JRKS4_EEEvNS_17integral_constantIbLb1EEERS5_PT_DpOT0_
FN:1669,_ZNSt3__116allocator_traitsINS_9allocatorINS_6vectorIbNS1_IbEEEEEEE11__constructIS4_JRS4_EEEvNS_17integral_constantIbLb1EEERS5_PT_DpOT0_
FN:1681,_ZNSt3__116allocator_traitsINS_9allocatorINS_6vectorIbNS1_IbEEEEEEE9__destroyIS4_EEvNS_17integral_constantIbLb1EEERS5_PT_
FN:1681,_ZNSt3__116allocator_traitsINS_9allocatorINS_5tupleIJiiEEEEEE9__destroyIS3_EEvNS_17integral_constantIbLb1EEERS4_PT_
FN:1691,_ZNSt3__116allocator_traitsINS_9allocatorINS_6vectorIbNS1_IbEEEEEEE10__max_sizeENS_17integral_constantIbLb1EEERKS5_
FN:1691,_ZNSt3__116allocator_traitsINS_9allocatorIcEEE10__max_sizeENS_17integral_constantIbLb1EEERKS2_
FN:1691,_ZNSt3__116allocator_traitsINS_9allocatorImEEE10__max_sizeENS_17integral_constantIbLb1EEERKS2_
FN:1691,_ZNSt3__116allocator_traitsINS_9allocatorINS_5tupleIJiiEEEEEE10__max_sizeENS_17integral_constantIbLb1EEERKS4_
FN:1703,_ZNSt3__116allocator_traitsINS_9allocatorINS_5tupleIJiiEEEEEE39__select_on_container_copy_constructionENS_17integral_constantIbLb0EEERKS4_
FN:1703,_ZNSt3__116allocator_traitsINS_9allocatorImEEE39__select_on_container_copy_constructionENS_17integral_constantIbLb0EEERKS2_
FN:1703,_ZNSt3__116allocator_traitsINS_9allocatorINS_6vectorIbNS1_IbEEEEEEE39__select_on_container_copy_constructionENS_17integral_constantIbLb0EEERKS5_
FN:1736,_ZNSt3__19allocatorIcEC2Ev
FN:1736,_ZNSt3__19allocatorINS_5tupleIJiiEEEEC2Ev
FN:1736,_ZNSt3__19allocatorINS_6vectorIbNS0_IbEEEEEC2Ev
FN:1736,_ZNSt3__19allocatorImEC2Ev
FN:1742,_ZNSt3__19allocatorINS_5tupleIJiiEEEE8allocateEmPKv
FN:1742,_ZNSt3__19allocatorINS_6vectorIbNS0_IbEEEEE8allocateEmPKv
FN:1742,_ZNSt3__19allocatorIcE8allocateEmPKv
FN:1742,_ZNSt3__19allocatorImE8allocateEmPKv
FN:1749,_ZNSt3__19allocatorINS_6vectorIbNS0_IbEEEEE10deallocateEPS3_m
FN:1749,_ZNSt3__19allocatorImE10deallocateEPmm
FN:1749,_ZNSt3__19allocatorINS_5tupleIJiiEEEE10deallocateEPS2_m
FN:1751,_ZNKSt3__19allocatorIcE8max_sizeEv
FN:1751,_ZNKSt3__19allocatorINS_6vectorIbNS0_IbEEEEE8max_sizeEv
FN:1751,_ZNKSt3__19allocatorINS_5tupleIJiiEEEE8max_sizeEv
FN:1751,_ZNKSt3__19allocatorImE8max_sizeEv
FN:1757,_ZNSt3__19allocatorINS_6vectorIbNS0_IbEEEEE9constructIS3_JRKS3_EEEvPT_DpOT0_
FN:1757,_ZNSt3__19allocatorINS_6vectorIbNS0_IbEEEEE9constructIS3_JRS3_EEEvPT_DpOT0_
FN:1757,_ZNSt3__19allocatorINS_5tupleIJiiEEEE9constructIS2_JRKS2_EEEvPT_DpOT0_
FN:1814,_ZNSt3__19allocatorINS_6vectorIbNS0_IbEEEEE7destroyEPS3_
FN:1814,_ZNSt3__19allocatorINS_5tupleIJiiEEEE7destroyEPS2_
FN:2043,_ZNSt3__122__compressed_pair_elemINS_12basic_stringIcNS_11char_traitsIcEENS_9allocatorIcEEE5__repELi0ELb0EEC2Ev
FN:2050,_ZNSt3__122__compressed_pair_elemIPNS_6vectorIbNS_9allocatorIbEEEELi0ELb0EEC2IDnvEEOT_
FN:2050,_ZNSt3__122__compressed_pair_elemIPNS_5tupleIJiiEEELi0ELb0EEC2IDnvEEOT_
FN:2050,_ZNSt3__122__compressed_pair_elemImLi0ELb0EEC2IivEEOT_
FN:2064,_ZNSt3__122__compressed_pair_elemIPNS_5tupleIJiiEEELi0ELb0EE5__getEv
FN:2064,_ZNSt3__122__compressed_pair_elemImLi0ELb0EE5__getEv
FN:2064,_ZNSt3__122__compressed_pair_elemINS_12basic_stringIcNS_11char_traitsIcEENS_9allocatorIcEEE5__repELi0ELb0EE5__getEv
FN:2064,_ZNSt3__122__compressed_pair_elemIPNS_6vectorIbNS_9allocatorIbEEEELi0ELb0EE5__getEv
FN:2066,_ZNKSt3__122__compressed_pair_elemIPNS_5tupleIJiiEEELi0ELb0EE5__getEv
FN:2066,_ZNKSt3__122__compressed_pair_elemIPNS_6vectorIbNS_9allocatorIbEEEELi0ELb0EE5__getEv
FN:2066,_ZNKSt3__122__compressed_pair_elemINS_12basic_stringIcNS_11char_traitsIcEENS_9allocatorIcEEE5__repELi0ELb0EE5__getEv
FN:2080,_ZNSt3__122__compressed_pair_elemINS_9allocatorIcEELi1ELb1EEC2Ev
FN:2080,_ZNSt3__122__compressed_pair_elemINS_9allocatorImEELi1ELb1EEC2Ev
FN:2080,_ZNSt3__122__compressed_pair_elemINS_9allocatorINS_6vectorIbNS1_IbEEEEEELi1ELb1EEC2Ev
FN:2080,_ZNSt3__122__compressed_pair_elemINS_9allocatorINS_5tupleIJiiEEEEELi1ELb1EEC2Ev
FN:2087,_ZNSt3__122__compressed_pair_elemINS_9allocatorIcEELi1ELb1EEC2IRKS2_vEEOT_
FN:2087,_ZNSt3__122__compressed_pair_elemINS_9allocatorINS_5tupleIJiiEEEEELi1ELb1EEC2IRKS4_vEEOT_
FN:2087,_ZNSt3__122__compressed_pair_elemINS_9allocatorImEELi1ELb1EEC2IS2_vEEOT_
FN:2087,_ZNSt3__122__compressed_pair_elemINS_9allocatorINS_6vectorIbNS1_IbEEEEEELi1ELb1EEC2IRKS5_vEEOT_
FN:2102,_ZNSt3__122__compressed_pair_elemINS_9allocatorImEELi1ELb1EE5__getEv
FN:2102,_ZNSt3__122__compressed_pair_elemINS_9allocatorIcEELi1ELb1EE5__getEv
FN:2102,_ZNSt3__122__compressed_pair_elemINS_9allocatorINS_6vectorIbNS1_IbEEEEEELi1ELb1EE5__getEv
FN:2102,_ZNSt3__122__compressed_pair_elemINS_9allocatorINS_5tupleIJiiEEEEELi1ELb1EE5__getEv
FN:2104,_ZNKSt3__122__compressed_pair_elemINS_9allocatorIcEELi1ELb1EE5__getEv
FN:2104,_ZNKSt3__122__compressed_pair_elemINS_9allocatorImEELi1ELb1EE5__getEv
FN:2104,_ZNKSt3__122__compressed_pair_elemINS_9allocatorINS_5tupleIJiiEEEEELi1ELb1EE5__getEv
FN:2104,_ZNKSt3__122__compressed_pair_elemINS_9allocatorINS_6vectorIbNS1_IbEEEEEELi1ELb1EE5__getEv
FN:2134,_ZNSt3__117__compressed_pairINS_12basic_stringIcNS_11char_traitsIcEENS_9allocatorIcEEE5__repES5_EC2ILb1EvEEv
FN:2134,_ZNSt3__117__compressed_pairINS_12basic_stringIcNS_11char_traitsIcEENS_9allocatorIcEEE5__repES5_EC1ILb1EvEEv
FN:2140,_ZNSt3__117__compressed_pairImNS_9allocatorImEEEC2IiLb1EEEOT_
FN:2140,_ZNSt3__117__compressed_pairIPNS_5tupleIJiiEEENS_9allocatorIS2_EEEC1IDnLb1EEEOT_
FN:2140,_ZNSt3__117__compressed_pairIPNS_6vectorIbNS_9allocatorIbEEEENS2_IS4_EEEC2IDnLb1EEEOT_
FN:2140,_ZNSt3__117__compressed_pairImNS_9allocatorImEEEC1IiLb1EEEOT_
FN:2140,_ZNSt3__117__compressed_pairIPNS_6vectorIbNS_9allocatorIbEEEENS2_IS4_EEEC1IDnLb1EEEOT_
FN:2140,_ZNSt3__117__compressed_pairIPNS_5tupleIJiiEEENS_9allocatorIS2_EEEC2IDnLb1EEEOT_
FN:2145,_ZNSt3__117__compressed_pairINS_12basic_stringIcNS_11char_traitsIcEENS_9allocatorIcEEE5__repES5_EC1IRKS5_EENS_12__second_tagEOT_
FN:2145,_ZNSt3__117__compressed_pairINS_12basic_stringIcNS_11char_traitsIcEENS_9allocatorIcEEE5__repES5_EC2IRKS5_EENS_12__second_tagEOT_
FN:2150,_ZNSt3__117__compressed_pairIPNS_6vectorIbNS_9allocatorIbEEEENS2_IS4_EEEC2IDnRKS6_EEOT_OT0_
FN:2150,_ZNSt3__117__compressed_pairImNS_9allocatorImEEEC2IiS2_EEOT_OT0_
FN:2150,_ZNSt3__117__compressed_pairIPNS_5tupleIJiiEEENS_9allocatorIS2_EEEC1IDnRKS5_EEOT_OT0_
FN:2150,_ZNSt3__117__compressed_pairIPNS_6vectorIbNS_9allocatorIbEEEENS2_IS4_EEEC1IDnRKS6_EEOT_OT0_
FN:2150,_ZNSt3__117__compressed_pairIPNS_5tupleIJiiEEENS_9allocatorIS2_EEEC2IDnRKS5_EEOT_OT0_
FN:2150,_ZNSt3__117__compressed_pairImNS_9allocatorImEEEC1IiS2_EEOT_OT0_
FN:2179,_ZNSt3__117__compressed_pairImNS_9allocatorImEEE5firstEv
FN:2179,_ZNSt3__117__compressed_pairIPNS_6vectorIbNS_9allocatorIbEEEENS2_IS4_EEE5firstEv
FN:2179,_ZNSt3__117__compressed_pairIPNS_5tupleIJiiEEENS_9allocatorIS2_EEE5firstEv
FN:2179,_ZNSt3__117__compressed_pairINS_12basic_stringIcNS_11char_traitsIcEENS_9allocatorIcEEE5__repES5_E5firstEv
FN:2184,_ZNKSt3__117__compressed_pairIPNS_6vectorIbNS_9allocatorIbEEEENS2_IS4_EEE5firstEv
FN:2184,_ZNKSt3__117__compressed_pairIPNS_5tupleIJiiEEENS_9allocatorIS2_EEE5firstEv
FN:2184,_ZNKSt3__117__compressed_pairINS_12basic_stringIcNS_11char_traitsIcEENS_9allocatorIcEEE5__repES5_E5firstEv
FN:2189,_ZNSt3__117__compressed_pairIPNS_5tupleIJiiEEENS_9allocatorIS2_EEE6secondEv
FN:2189,_ZNSt3__117__compressed_pairINS_12basic_stringIcNS_11char_traitsIcEENS_9allocatorIcEEE5__repES5_E6secondEv
FN:2189,_ZNSt3__117__compressed_pairIPNS_6vectorIbNS_9allocatorIbEEEENS2_IS4_EEE6secondEv
FN:2189,_ZNSt3__117__compressed_pairImNS_9allocatorImEEE6secondEv
FN:2194,_ZNKSt3__117__compressed_pairIPNS_5tupleIJiiEEENS_9allocatorIS2_EEE6secondEv
FN:2194,_ZNKSt3__117__compressed_pairIPNS_6vectorIbNS_9allocatorIbEEEENS2_IS4_EEE6secondEv
FN:2194,_ZNKSt3__117__compressed_pairINS_12basic_stringIcNS_11char_traitsIcEENS_9allocatorIcEEE5__repES5_E6secondEv
FN:2194,_ZNKSt3__117__compressed_pairImNS_9allocatorImEEE6secondEv
FNDA:2400,_ZNSt3__114pointer_traitsIPKcE10pointer_toERS1_
FNDA:365,_ZNSt3__114pointer_traitsIPcE10pointer_toERc
FNDA:0,_ZNSt3__116__to_raw_pointerINS_6vectorIbNS_9allocatorIbEEEEEEPT_S6_
FNDA:2506,_ZNSt3__116__to_raw_pointerIKcEEPT_S3_
FNDA:112,_ZNSt3__116__to_raw_pointerINS_5tupleIJiiEEEEEPT_S4_
FNDA:0,_ZNSt3__116__to_raw_pointerImEEPT_S2_
FNDA:0,_ZNSt3__116__to_raw_pointerIKmEEPT_S3_
FNDA:18,_ZNSt3__116allocator_traitsINS_9allocatorINS_5tupleIJiiEEEEEE8allocateERS4_m
FNDA:0,_ZNSt3__116allocator_traitsINS_9allocatorINS_6vectorIbNS1_IbEEEEEEE8allocateERS5_m
FNDA:35,_ZNSt3__116allocator_traitsINS_9allocatorIcEEE8allocateERS2_m
FNDA:0,_ZNSt3__116allocator_traitsINS_9allocatorImEEE8allocateERS2_m
FNDA:0,_ZNSt3__116allocator_traitsINS_9allocatorINS_6vectorIbNS1_IbEEEEEEE10deallocateERS5_PS4_m
FNDA:0,_ZNSt3__116allocator_traitsINS_9allocatorINS_5tupleIJiiEEEEEE10deallocateERS4_PS3_m
FNDA:0,_ZNSt3__116allocator_traitsINS_9allocatorImEEE10deallocateERS2_Pmm
FNDA:0,_ZNSt3__116allocator_traitsINS_9allocatorINS_6vectorIbNS1_IbEEEEEEE9constructIS4_JRKS4_EEEvRS5_PT_DpOT0_
FNDA:0,_ZNSt3__116allocator_traitsINS_9allocatorINS_6vectorIbNS1_IbEEEEEEE9constructIS4_JRS4_EEEvRS5_PT_DpOT0_
FNDA:40,_ZNSt3__116allocator_traitsINS_9allocatorINS_5tupleIJiiEEEEEE9constructIS3_JRKS3_EEEvRS4_PT_DpOT0_
FNDA:0,_ZNSt3__116allocator_traitsINS_9allocatorINS_6vectorIbNS1_IbEEEEEEE7destroyIS4_EEvRS5_PT_
FNDA:0,_ZNSt3__116allocator_traitsINS_9allocatorINS_5tupleIJiiEEEEEE7destroyIS3_EEvRS4_PT_
FNDA:0,_ZNSt3__116allocator_traitsINS_9allocatorINS_5tupleIJiiEEEEEE8max_sizeERKS4_
FNDA:0,_ZNSt3__116allocator_traitsINS_9allocatorINS_6vectorIbNS1_IbEEEEEEE8max_sizeERKS5_
FNDA:400,_ZNSt3__116allocator_traitsINS_9allocatorIcEEE8max_sizeERKS2_
FNDA:0,_ZNSt3__116allocator_traitsINS_9allocatorImEEE8max_sizeERKS2_
FNDA:12,_ZNSt3__116allocator_traitsINS_9allocatorINS_5tupleIJiiEEEEEE37select_on_container_copy_constructionERKS4_
FNDA:0,_ZNSt3__116allocator_traitsINS_9allocatorINS_6vectorIbNS1_IbEEEEEEE37select_on_container_copy_constructionERKS5_
FNDA:0,_ZNSt3__116allocator_traitsINS_9allocatorImEEE37select_on_container_copy_constructionERKS2_
FNDA:0,_ZNSt3__116allocator_traitsINS_9allocatorINS_6vectorIbNS1_IbEEEEEEE25__construct_range_forwardIPKS4_PS4_EEvRS5_T_SC_RT0_
FNDA:0,_ZNSt3__116allocator_traitsINS_9allocatorINS_6vectorIbNS1_IbEEEEEEE25__construct_range_forwardIPS4_S8_EEvRS5_T_SA_RT0_
FNDA:6,_ZNSt3__116allocator_traitsINS_9allocatorINS_5tupleIJiiEEEEEE25__construct_range_forwardIPKS3_PS3_EEvRS4_T_SB_RT0_
FNDA:12,_ZNSt3__116allocator_traitsINS_9allocatorINS_5tupleIJiiEEEEEE25__construct_range_forwardIS3_EENS_9enable_ifIXaaoosr7is_sameIS4_NS1_IT_EEEE5valuentsr15__has_constructIS4_PS8_S8_EE5valuesr31is_trivially_move_constructibleIS8_EE5valueEvE4typeERS4_SA_SA_RSA_
FNDA:0,_ZNSt3__116allocator_traitsINS_9allocatorINS_6vectorIbNS1_IbEEEEEEE11__constructIS4_JRKS4_EEEvNS_17integral_constantIbLb1EEERS5_PT_DpOT0_
FNDA:0,_ZNSt3__116allocator_traitsINS_9allocatorINS_6vectorIbNS1_IbEEEEEEE11__constructIS4_JRS4_EEEvNS_17integral_constantIbLb1EEERS5_PT_DpOT0_
FNDA:40,_ZNSt3__116allocator_traitsINS_9allocatorINS_5tupleIJiiEEEEEE11__constructIS3_JRKS3_EEEvNS_17integral_constantIbLb1EEERS4_PT_DpOT0_
FNDA:0,_ZNSt3__116allocator_traitsINS_9allocatorINS_6vectorIbNS1_IbEEEEEEE9__destroyIS4_EEvNS_17integral_constantIbLb1EEERS5_PT_
FNDA:0,_ZNSt3__116allocator_traitsINS_9allocatorINS_5tupleIJiiEEEEEE9__destroyIS3_EEvNS_17integral_constantIbLb1EEERS4_PT_
FNDA:0,_ZNSt3__116allocator_traitsINS_9allocatorINS_5tupleIJiiEEEEEE10__max_sizeENS_17integral_constantIbLb1EEERKS4_
FNDA:0,_ZNSt3__116allocator_traitsINS_9allocatorINS_6vectorIbNS1_IbEEEEEEE10__max_sizeENS_17integral_constantIbLb1EEERKS5_
FNDA:400,_ZNSt3__116allocator_traitsINS_9allocatorIcEEE10__max_sizeENS_17integral_constantIbLb1EEERKS2_
FNDA:0,_ZNSt3__116allocator_traitsINS_9allocatorImEEE10__max_sizeENS_17integral_constantIbLb1EEERKS2_
FNDA:12,_ZNSt3__116allocator_traitsINS_9allocatorINS_5tupleIJiiEEEEEE39__select_on_container_copy_constructionENS_17integral_constantIbLb0EEERKS4_
FNDA:0,_ZNSt3__116allocator_traitsINS_9allocatorINS_6vectorIbNS1_IbEEEEEEE39__select_on_container_copy_constructionENS_17integral_constantIbLb0EEERKS5_
FNDA:0,_ZNSt3__116allocator_traitsINS_9allocatorImEEE39__select_on_container_copy_constructionENS_17integral_constantIbLb0EEERKS2_
FNDA:20,_ZNSt3__19allocatorIcEC2Ev
FNDA:2,_ZNSt3__19allocatorImEC2Ev
FNDA:10,_ZNSt3__19allocatorINS_6vectorIbNS0_IbEEEEEC2Ev
FNDA:10,_ZNSt3__19allocatorINS_5tupleIJiiEEEEC2Ev
FNDA:18,_ZNSt3__19allocatorINS_5tupleIJiiEEEE8allocateEmPKv
FNDA:0,_ZNSt3__19allocatorINS_6vectorIbNS0_IbEEEEE8allocateEmPKv
FNDA:35,_ZNSt3__19allocatorIcE8allocateEmPKv
FNDA:0,_ZNSt3__19allocatorImE8allocateEmPKv
FNDA:0,_ZNSt3__19allocatorINS_6vectorIbNS0_IbEEEEE10deallocateEPS3_m
FNDA:0,_ZNSt3__19allocatorINS_5tupleIJiiEEEE10deallocateEPS2_m
FNDA:0,_ZNSt3__19allocatorImE10deallocateEPmm
FNDA:18,_ZNKSt3__19allocatorINS_5tupleIJiiEEEE8max_sizeEv
FNDA:0,_ZNKSt3__19allocatorINS_6vectorIbNS0_IbEEEEE8max_sizeEv
FNDA:435,_ZNKSt3__19allocatorIcE8max_sizeEv
FNDA:0,_ZNKSt3__19allocatorImE8max_sizeEv
FNDA:0,_ZNSt3__19allocatorINS_6vectorIbNS0_IbEEEEE9constructIS3_JRKS3_EEEvPT_DpOT0_
FNDA:0,_ZNSt3__19allocatorINS_6vectorIbNS0_IbEEEEE9constructIS3_JRS3_EEEvPT_DpOT0_
FNDA:40,_ZNSt3__19allocatorINS_5tupleIJiiEEEE9constructIS2_JRKS2_EEEvPT_DpOT0_
FNDA:0,_ZNSt3__19allocatorINS_6vectorIbNS0_IbEEEEE7destroyEPS3_
FNDA:0,_ZNSt3__19allocatorINS_5tupleIJiiEEEE7destroyEPS2_
FNDA:420,_ZNSt3__122__compressed_pair_elemINS_12basic_stringIcNS_11char_traitsIcEENS_9allocatorIcEEE5__repELi0ELb0EEC2Ev
FNDA:22,_ZNSt3__122__compressed_pair_elemIPNS_5tupleIJiiEEELi0ELb0EEC2IDnvEEOT_
FNDA:2,_ZNSt3__122__compressed_pair_elemImLi0ELb0EEC2IivEEOT_
FNDA:10,_ZNSt3__122__compressed_pair_elemIPNS_6vectorIbNS_9allocatorIbEEEELi0ELb0EEC2IDnvEEOT_
FNDA:18,_ZNSt3__122__compressed_pair_elemIPNS_5tupleIJiiEEELi0ELb0EE5__getEv
FNDA:0,_ZNSt3__122__compressed_pair_elemImLi0ELb0EE5__getEv
FNDA:0,_ZNSt3__122__compressed_pair_elemIPNS_6vectorIbNS_9allocatorIbEEEELi0ELb0EE5__getEv
FNDA:835,_ZNSt3__122__compressed_pair_elemINS_12basic_stringIcNS_11char_traitsIcEENS_9allocatorIcEEE5__repELi0ELb0EE5__getEv
FNDA:0,_ZNKSt3__122__compressed_pair_elemIPNS_6vectorIbNS_9allocatorIbEEEELi0ELb0EE5__getEv
FNDA:8024,_ZNKSt3__122__compressed_pair_elemINS_12basic_stringIcNS_11char_traitsIcEENS_9allocatorIcEEE5__repELi0ELb0EE5__getEv
FNDA:36,_ZNKSt3__122__compressed_pair_elemIPNS_5tupleIJiiEEELi0ELb0EE5__getEv
FNDA:20,_ZNSt3__122__compressed_pair_elemINS_9allocatorIcEELi1ELb1EEC2Ev
FNDA:2,_ZNSt3__122__compressed_pair_elemINS_9allocatorImEELi1ELb1EEC2Ev
FNDA:10,_ZNSt3__122__compressed_pair_elemINS_9allocatorINS_6vectorIbNS1_IbEEEEEELi1ELb1EEC2Ev
FNDA:10,_ZNSt3__122__compressed_pair_elemINS_9allocatorINS_5tupleIJiiEEEEELi1ELb1EEC2Ev
FNDA:12,_ZNSt3__122__compressed_pair_elemINS_9allocatorINS_5tupleIJiiEEEEELi1ELb1EEC2IRKS4_vEEOT_
FNDA:0,_ZNSt3__122__compressed_pair_elemINS_9allocatorINS_6vectorIbNS1_IbEEEEEELi1ELb1EEC2IRKS5_vEEOT_
FNDA:400,_ZNSt3__122__compressed_pair_elemINS_9allocatorIcEELi1ELb1EEC2IRKS2_vEEOT_
FNDA:0,_ZNSt3__122__compressed_pair_elemINS_9allocatorImEELi1ELb1EEC2IS2_vEEOT_
FNDA:0,_ZNSt3__122__compressed_pair_elemINS_9allocatorINS_6vectorIbNS1_IbEEEEEELi1ELb1EE5__getEv
FNDA:36,_ZNSt3__122__compressed_pair_elemINS_9allocatorINS_5tupleIJiiEEEEELi1ELb1EE5__getEv
FNDA:0,_ZNSt3__122__compressed_pair_elemINS_9allocatorImEELi1ELb1EE5__getEv
FNDA:35,_ZNSt3__122__compressed_pair_elemINS_9allocatorIcEELi1ELb1EE5__getEv
FNDA:12,_ZNKSt3__122__compressed_pair_elemINS_9allocatorINS_5tupleIJiiEEEEELi1ELb1EE5__getEv
FNDA:0,_ZNKSt3__122__compressed_pair_elemINS_9allocatorINS_6vectorIbNS1_IbEEEEEELi1ELb1EE5__getEv
FNDA:800,_ZNKSt3__122__compressed_pair_elemINS_9allocatorIcEELi1ELb1EE5__getEv
FNDA:0,_ZNKSt3__122__compressed_pair_elemINS_9allocatorImEELi1ELb1EE5__getEv
FNDA:20,_ZNSt3__117__compressed_pairINS_12basic_stringIcNS_11char_traitsIcEENS_9allocatorIcEEE5__repES5_EC1ILb1EvEEv
FNDA:20,_ZNSt3__117__compressed_pairINS_12basic_stringIcNS_11char_traitsIcEENS_9allocatorIcEEE5__repES5_EC2ILb1EvEEv
FNDA:2,_ZNSt3__117__compressed_pairImNS_9allocatorImEEEC1IiLb1EEEOT_
FNDA:2,_ZNSt3__117__compressed_pairImNS_9allocatorImEEEC2IiLb1EEEOT_
FNDA:10,_ZNSt3__117__compressed_pairIPNS_6vectorIbNS_9allocatorIbEEEENS2_IS4_EEEC1IDnLb1EEEOT_
FNDA:10,_ZNSt3__117__compressed_pairIPNS_6vectorIbNS_9allocatorIbEEEENS2_IS4_EEEC2IDnLb1EEEOT_
FNDA:10,_ZNSt3__117__compressed_pairIPNS_5tupleIJiiEEENS_9allocatorIS2_EEEC1IDnLb1EEEOT_
FNDA:10,_ZNSt3__117__compressed_pairIPNS_5tupleIJiiEEENS_9allocatorIS2_EEEC2IDnLb1EEEOT_
FNDA:400,_ZNSt3__117__compressed_pairINS_12basic_stringIcNS_11char_traitsIcEENS_9allocatorIcEEE5__repES5_EC1IRKS5_EENS_12__second_tagEOT_
FNDA:400,_ZNSt3__117__compressed_pairINS_12basic_stringIcNS_11char_traitsIcEENS_9allocatorIcEEE5__repES5_EC2IRKS5_EENS_12__second_tagEOT_
FNDA:12,_ZNSt3__117__compressed_pairIPNS_5tupleIJiiEEENS_9allocatorIS2_EEEC1IDnRKS5_EEOT_OT0_
FNDA:12,_ZNSt3__117__compressed_pairIPNS_5tupleIJiiEEENS_9allocatorIS2_EEEC2IDnRKS5_EEOT_OT0_
FNDA:0,_ZNSt3__117__compressed_pairIPNS_6vectorIbNS_9allocatorIbEEEENS2_IS4_EEEC1IDnRKS6_EEOT_OT0_
FNDA:0,_ZNSt3__117__compressed_pairIPNS_6vectorIbNS_9allocatorIbEEEENS2_IS4_EEEC2IDnRKS6_EEOT_OT0_
FNDA:0,_ZNSt3__117__compressed_pairImNS_9allocatorImEEEC1IiS2_EEOT_OT0_
FNDA:0,_ZNSt3__117__compressed_pairImNS_9allocatorImEEEC2IiS2_EEOT_OT0_
FNDA:18,_ZNSt3__117__compressed_pairIPNS_5tupleIJiiEEENS_9allocatorIS2_EEE5firstEv
FNDA:0,_ZNSt3__117__compressed_pairImNS_9allocatorImEEE5firstEv
FNDA:0,_ZNSt3__117__compressed_pairIPNS_6vectorIbNS_9allocatorIbEEEENS2_IS4_EEE5firstEv
FNDA:835,_ZNSt3__117__compressed_pairINS_12basic_stringIcNS_11char_traitsIcEENS_9allocatorIcEEE5__repES5_E5firstEv
FNDA:0,_ZNKSt3__117__compressed_pairIPNS_6vectorIbNS_9allocatorIbEEEENS2_IS4_EEE5firstEv
FNDA:8024,_ZNKSt3__117__compressed_pairINS_12basic_stringIcNS_11char_traitsIcEENS_9allocatorIcEEE5__repES5_E5firstEv
FNDA:36,_ZNKSt3__117__compressed_pairIPNS_5tupleIJiiEEENS_9allocatorIS2_EEE5firstEv
FNDA:0,_ZNSt3__117__compressed_pairIPNS_6vectorIbNS_9allocatorIbEEEENS2_IS4_EEE6secondEv
FNDA:36,_ZNSt3__117__compressed_pairIPNS_5tupleIJiiEEENS_9allocatorIS2_EEE6secondEv
FNDA:0,_ZNSt3__117__compressed_pairImNS_9allocatorImEEE6secondEv
FNDA:35,_ZNSt3__117__compressed_pairINS_12basic_stringIcNS_11char_traitsIcEENS_9allocatorIcEEE5__repES5_E6secondEv
FNDA:12,_ZNKSt3__117__compressed_pairIPNS_5tupleIJiiEEENS_9allocatorIS2_EEE6secondEv
FNDA:0,_ZNKSt3__117__compressed_pairIPNS_6vectorIbNS_9allocatorIbEEEENS2_IS4_EEE6secondEv
FNDA:800,_ZNKSt3__117__compressed_pairINS_12basic_stringIcNS_11char_traitsIcEENS_9allocatorIcEEE5__repES5_E6secondEv
FNDA:0,_ZNKSt3__117__compressed_pairImNS_9allocatorImEEE6secondEv
FNF:120
FNH:61
DA:979,2765
DA:1097,2618
DA:1502,53
DA:1510,0
DA:1516,80
DA:1517,80
DA:1550,0
DA:1554,800
DA:1559,12
DA:1560,12
DA:1561,12
DA:1599,92
DA:1600,40
DA:1601,6
DA:1616,12
DA:1617,12
DA:1619,12
DA:1620,12
DA:1621,12
DA:1622,12
DA:1670,40
DA:1682,0
DA:1692,400
DA:1704,12
DA:1736,42
DA:1744,53
DA:1745,0
DA:1747,53
DA:1750,0
DA:1752,453
DA:1759,40
DA:1760,40
DA:1814,0
DA:2043,420
DA:2051,34
DA:2064,853
DA:2066,8060
DA:2080,42
DA:2088,412
DA:2102,71
DA:2104,812
DA:2134,40
DA:2141,44
DA:2146,800
DA:2151,24
DA:2180,853
DA:2185,8060
DA:2190,71
DA:2195,812
LF:49
LH:43
end_of_record
SF:/Applications/Xcode.app/Contents/Developer/Toolchains/XcodeDefault.xctoolchain/usr/include/c++/v1/new
FN:222,_ZNSt3__110__allocateEm
FN:230,_ZNSt3__119__libcpp_deallocateEPv
FNDA:53,_ZNSt3__110__allocateEm
FNDA:0,_ZNSt3__119__libcpp_deallocateEPv
FNF:2
FNH:1
DA:226,53
DA:234,0
DA:236,0
LF:3
LH:1
end_of_record
SF:/Applications/Xcode.app/Contents/Developer/Toolchains/XcodeDefault.xctoolchain/usr/include/c++/v1/ostream
FN:236,_ZNSt3__113basic_ostreamIcNS_11char_traitsIcEEEC2Ev
FN:254,_ZNKSt3__113basic_ostreamIcNS_11char_traitsIcEEE6sentrycvbEv
FN:714,_ZNSt3__124__put_character_sequenceIcNS_11char_traitsIcEEEERNS_13basic_ostreamIT_T0_EES7_PKS4_m
FN:788,_ZNSt3__1lsINS_11char_traitsIcEEEERNS_13basic_ostreamIcT_EES6_c
FN:862,_ZNSt3__1lsINS_11char_traitsIcEEEERNS_13basic_ostreamIcT_EES6_PKc
FNDA:0,_ZNSt3__113basic_ostreamIcNS_11char_traitsIcEEEC2Ev
FNDA:0,_ZNKSt3__113basic_ostreamIcNS_11char_traitsIcEEE6sentrycvbEv
FNDA:0,_ZNSt3__124__put_character_sequenceIcNS_11char_traitsIcEEEERNS_13basic_ostreamIT_T0_EES7_PKS4_m
FNDA:1176,_ZNSt3__1lsINS_11char_traitsIcEEEERNS_13basic_ostreamIcT_EES6_c
FNDA:0,_ZNSt3__1lsINS_11char_traitsIcEEEERNS_13basic_ostreamIcT_EES6_PKc
FNF:5
FNH:1
DA:236,0
DA:254,0
DA:721,0
DA:722,0
DA:725,0
DA:726,0
DA:727,0
DA:728,0
DA:729,0
DA:730,0
DA:731,0
DA:732,0
DA:733,0
DA:734,0
DA:736,0
DA:739,0
DA:740,0
DA:742,0
DA:743,0
DA:790,1176
DA:864,0
LF:21
LH:1
end_of_record
SF:/Applications/Xcode.app/Contents/Developer/Toolchains/XcodeDefault.xctoolchain/usr/include/c++/v1/sstream
FN:242,_ZNSt3__115basic_stringbufIcNS_11char_traitsIcEENS_9allocatorIcEEEC1Ej
FN:242,_ZNSt3__115basic_stringbufIcNS_11char_traitsIcEENS_9allocatorIcEEEC2Ej
FN:439,_ZNKSt3__115basic_stringbufIcNS_11char_traitsIcEENS_9allocatorIcEEE3strEv
FN:454,_ZNSt3__115basic_stringbufIcNS_11char_traitsIcEENS_9allocatorIcEEE3strERKNS_12basic_stringIcS2_S4_EE
FN:479,_ZNSt3__115basic_stringbufIcNS_11char_traitsIcEENS_9allocatorIcEEE9underflowEv
FN:495,_ZNSt3__115basic_stringbufIcNS_11char_traitsIcEENS_9allocatorIcEEE9pbackfailEi
FN:519,_ZNSt3__115basic_stringbufIcNS_11char_traitsIcEENS_9allocatorIcEEE8overflowEi
FN:561,_ZNSt3__115basic_stringbufIcNS_11char_traitsIcEENS_9allocatorIcEEE7seekoffExNS_8ios_base7seekdirEj
FN:612,_ZNSt3__115basic_stringbufIcNS_11char_traitsIcEENS_9allocatorIcEEE7seekposENS_4fposI11__mbstate_tEEj
FN:900,_ZNSt3__118basic_stringstreamIcNS_11char_traitsIcEENS_9allocatorIcEEEC1Ej
FN:961,_ZNKSt3__118basic_stringstreamIcNS_11char_traitsIcEENS_9allocatorIcEEE3strEv
FNDA:0,_ZNSt3__115basic_stringbufIcNS_11char_traitsIcEENS_9allocatorIcEEEC1Ej
FNDA:0,_ZNSt3__115basic_stringbufIcNS_11char_traitsIcEENS_9allocatorIcEEEC2Ej
FNDA:400,_ZNKSt3__115basic_stringbufIcNS_11char_traitsIcEENS_9allocatorIcEEE3strEv
FNDA:400,_ZNSt3__115basic_stringbufIcNS_11char_traitsIcEENS_9allocatorIcEEE3strERKNS_12basic_stringIcS2_S4_EE
FNDA:0,_ZNSt3__115basic_stringbufIcNS_11char_traitsIcEENS_9allocatorIcEEE9underflowEv
FNDA:0,_ZNSt3__115basic_stringbufIcNS_11char_traitsIcEENS_9allocatorIcEEE9pbackfailEi
FNDA:53,_ZNSt3__115basic_stringbufIcNS_11char_traitsIcEENS_9allocatorIcEEE8overflowEi
FNDA:0,_ZNSt3__115basic_stringbufIcNS_11char_traitsIcEENS_9allocatorIcEEE7seekoffExNS_8ios_base7seekdirEj
FNDA:0,_ZNSt3__115basic_stringbufIcNS_11char_traitsIcEENS_9allocatorIcEEE7seekposENS_4fposI11__mbstate_tEEj
FNDA:0,_ZNSt3__118basic_stringstreamIcNS_11char_traitsIcEENS_9allocatorIcEEEC1Ej
FNDA:0,_ZNKSt3__118basic_stringstreamIcNS_11char_traitsIcEENS_9allocatorIcEEE3strEv
FNF:11
FNH:3
DA:213,0
DA:243,0
DA:244,0
DA:245,0
DA:246,0
DA:247,0
DA:441,400
DA:443,400
DA:444,391
DA:445,400
DA:447,0
DA:448,0
DA:449,0
DA:450,400
DA:456,400
DA:457,400
DA:458,400
DA:460,400
DA:461,800
DA:462,400
DA:463,400
DA:464,400
DA:465,400
DA:467,400
DA:468,400
DA:469,400
DA:470,800
DA:471,400
DA:472,400
DA:473,0
DA:474,400
DA:475,400
DA:481,0
DA:482,0
DA:483,0
DA:485,0
DA:486,0
DA:487,0
DA:488,0
DA:489,0
DA:490,0
DA:491,0
DA:497,0
DA:498,0
DA:499,0
DA:501,0
DA:503,0
DA:504,0
DA:506,0
DA:507,0
DA:509,0
DA:510,0
DA:511,0
DA:513,0
DA:514,0
DA:515,0
DA:521,53
DA:523,53
DA:524,53
DA:526,53
DA:527,0
DA:532,159
DA:533,106
DA:534,53
DA:535,53
DA:536,53
DA:537,53
DA:538,53
DA:539,106
DA:541,53
DA:544,0
DA:545,0
DA:547,53
DA:548,53
DA:549,53
DA:551,53
DA:552,53
DA:553,53
DA:554,53
DA:556,0
DA:557,53
DA:565,0
DA:566,0
DA:567,0
DA:568,0
DA:569,0
DA:570,0
DA:571,0
DA:573,0
DA:576,0
DA:577,0
DA:579,0
DA:580,0
DA:582,0
DA:583,0
DA:585,0
DA:586,0
DA:588,0
DA:590,0
DA:591,0
DA:592,0
DA:593,0
DA:595,0
DA:596,0
DA:597,0
DA:598,0
DA:599,0
DA:600,0
DA:601,0
DA:602,0
DA:604,0
DA:605,0
DA:606,0
DA:607,0
DA:608,0
DA:615,0
DA:876,0
DA:901,0
DA:902,0
DA:903,0
DA:904,0
DA:963,0
LF:122
LH:43
end_of_record
SF:/Applications/Xcode.app/Contents/Developer/Toolchains/XcodeDefault.xctoolchain/usr/include/c++/v1/stdexcept
FN:136,_ZNSt12length_errorC2EPKc
FN:136,_ZNSt12length_errorC1EPKc
FN:222,_ZNSt3__120__throw_length_errorEPKc
FNDA:0,_ZNSt12length_errorC1EPKc
FNDA:0,_ZNSt12length_errorC2EPKc
FNDA:0,_ZNSt3__120__throw_length_errorEPKc
FNF:3
FNH:0
DA:136,0
DA:225,0
DA:230,0
LF:3
LH:0
end_of_record
SF:/Applications/Xcode.app/Contents/Developer/Toolchains/XcodeDefault.xctoolchain/usr/include/c++/v1/streambuf
FN:218,_ZNSt3__115basic_streambufIcNS_11char_traitsIcEEE5sputcEc
FN:226,_ZNSt3__115basic_streambufIcNS_11char_traitsIcEEE5sputnEPKcl
FN:236,_ZNKSt3__115basic_streambufIcNS_11char_traitsIcEEE5ebackEv
FN:237,_ZNKSt3__115basic_streambufIcNS_11char_traitsIcEEE4gptrEv
FN:238,_ZNKSt3__115basic_streambufIcNS_11char_traitsIcEEE5egptrEv
FN:244,_ZNSt3__115basic_streambufIcNS_11char_traitsIcEEE4setgEPcS4_S4_
FN:251,_ZNKSt3__115basic_streambufIcNS_11char_traitsIcEEE5pbaseEv
FN:252,_ZNKSt3__115basic_streambufIcNS_11char_traitsIcEEE4pptrEv
FN:253,_ZNKSt3__115basic_streambufIcNS_11char_traitsIcEEE5epptrEv
FN:256,_ZNSt3__115basic_streambufIcNS_11char_traitsIcEEE5pbumpEi
FN:259,_ZNSt3__115basic_streambufIcNS_11char_traitsIcEEE4setpEPcS4_
FNDA:53,_ZNSt3__115basic_streambufIcNS_11char_traitsIcEEE5sputcEc
FNDA:0,_ZNSt3__115basic_streambufIcNS_11char_traitsIcEEE5sputnEPKcl
FNDA:53,_ZNKSt3__115basic_streambufIcNS_11char_traitsIcEEE5ebackEv
FNDA:53,_ZNKSt3__115basic_streambufIcNS_11char_traitsIcEEE4gptrEv
FNDA:0,_ZNKSt3__115basic_streambufIcNS_11char_traitsIcEEE5egptrEv
FNDA:453,_ZNSt3__115basic_streambufIcNS_11char_traitsIcEEE4setgEPcS4_S4_
FNDA:559,_ZNKSt3__115basic_streambufIcNS_11char_traitsIcEEE5pbaseEv
FNDA:950,_ZNKSt3__115basic_streambufIcNS_11char_traitsIcEEE4pptrEv
FNDA:53,_ZNKSt3__115basic_streambufIcNS_11char_traitsIcEEE5epptrEv
FNDA:53,_ZNSt3__115basic_streambufIcNS_11char_traitsIcEEE5pbumpEi
FNDA:453,_ZNSt3__115basic_streambufIcNS_11char_traitsIcEEE4setpEPcS4_
FNF:11
FNH:9
DA:219,53
DA:220,0
DA:221,53
DA:222,53
DA:223,53
DA:227,0
DA:236,53
DA:237,53
DA:238,0
DA:245,453
DA:246,453
DA:247,453
DA:248,453
DA:251,559
DA:252,950
DA:253,53
DA:256,53
DA:260,453
DA:261,453
DA:262,453
LF:20
LH:17
end_of_record
SF:/Applications/Xcode.app/Contents/Developer/Toolchains/XcodeDefault.xctoolchain/usr/include/c++/v1/string
FN:508,_ZNSt3__14fposI11__mbstate_tEC1Ex
FN:508,_ZNSt3__14fposI11__mbstate_tEC2Ex
FN:510,_ZNKSt3__14fposI11__mbstate_tEcvxEv
FN:888,_ZNKSt3__112basic_stringIcNS_11char_traitsIcEENS_9allocatorIcEEE4sizeEv
FN:892,_ZNKSt3__112basic_stringIcNS_11char_traitsIcEENS_9allocatorIcEEE8capacityEv
FN:897,_ZNSt3__112basic_stringIcNS_11char_traitsIcEENS_9allocatorIcEEE6resizeEm
FN:1127,_ZNKSt3__112basic_stringIcNS_11char_traitsIcEENS_9allocatorIcEEE5c_strEv
FN:1129,_ZNKSt3__112basic_stringIcNS_11char_traitsIcEENS_9allocatorIcEEE4dataEv
FN:1136,_ZNKSt3__112basic_stringIcNS_11char_traitsIcEENS_9allocatorIcEEE13get_allocatorEv
FN:1220,_ZNKSt3__112basic_stringIcNS_11char_traitsIcEENS_9allocatorIcEEE9__is_longEv
FN:1234,_ZNSt3__112basic_stringIcNS_11char_traitsIcEENS_9allocatorIcEEE7__allocEv
FN:1237,_ZNKSt3__112basic_stringIcNS_11char_traitsIcEENS_9allocatorIcEEE7__allocEv
FN:1261,_ZNSt3__112basic_stringIcNS_11char_traitsIcEENS_9allocatorIcEEE16__set_short_sizeEm
FN:1269,_ZNKSt3__112basic_stringIcNS_11char_traitsIcEENS_9allocatorIcEEE16__get_short_sizeEv
FN:1279,_ZNSt3__112basic_stringIcNS_11char_traitsIcEENS_9allocatorIcEEE15__set_long_sizeEm
FN:1282,_ZNKSt3__112basic_stringIcNS_11char_traitsIcEENS_9allocatorIcEEE15__get_long_sizeEv
FN:1289,_ZNSt3__112basic_stringIcNS_11char_traitsIcEENS_9allocatorIcEEE14__set_long_capEm
FN:1292,_ZNKSt3__112basic_stringIcNS_11char_traitsIcEENS_9allocatorIcEEE14__get_long_capEv
FN:1296,_ZNSt3__112basic_stringIcNS_11char_traitsIcEENS_9allocatorIcEEE18__set_long_pointerEPc
FN:1302,_ZNKSt3__112basic_stringIcNS_11char_traitsIcEENS_9allocatorIcEEE18__get_long_pointerEv
FN:1305,_ZNSt3__112basic_stringIcNS_11char_traitsIcEENS_9allocatorIcEEE19__get_short_pointerEv
FN:1308,_ZNKSt3__112basic_stringIcNS_11char_traitsIcEENS_9allocatorIcEEE19__get_short_pointerEv
FN:1314,_ZNKSt3__112basic_stringIcNS_11char_traitsIcEENS_9allocatorIcEEE13__get_pointerEv
FN:1318,_ZNSt3__112basic_stringIcNS_11char_traitsIcEENS_9allocatorIcEEE6__zeroEv
FN:1327,_ZNSt3__112basic_stringIcNS_11char_traitsIcEENS_9allocatorIcEEE10__align_itILm16EEEmm
FN:1331,_ZNSt3__112basic_stringIcNS_11char_traitsIcEENS_9allocatorIcEEE11__recommendEm
FN:1492,_ZNSt3__112basic_stringIcNS_11char_traitsIcEENS_9allocatorIcEEEC1Ev
FN:1492,_ZNSt3__112basic_stringIcNS_11char_traitsIcEENS_9allocatorIcEEEC2Ev
FN:1503,_ZNSt3__112basic_stringIcNS_11char_traitsIcEENS_9allocatorIcEEEC2ERKS4_
FN:1503,_ZNSt3__112basic_stringIcNS_11char_traitsIcEENS_9allocatorIcEEEC1ERKS4_
FN:1568,_ZNSt3__112basic_stringIcNS_11char_traitsIcEENS_9allocatorIcEEEC1EPKc
FN:1568,_ZNSt3__112basic_stringIcNS_11char_traitsIcEENS_9allocatorIcEEEC2EPKc
FN:1706,_ZNSt3__112basic_stringIcNS_11char_traitsIcEENS_9allocatorIcEEEC1Emc
FN:1706,_ZNSt3__112basic_stringIcNS_11char_traitsIcEENS_9allocatorIcEEEC2Emc
FN:1824,_ZNSt3__112basic_stringIcNS_11char_traitsIcEENS_9allocatorIcEEE6__initIPcEENS_9enable_ifIXsr21__is_forward_iteratorIT_EE5valueEvE4typeES9_S9_
FN:1862,_ZNSt3__112basic_stringIcNS_11char_traitsIcEENS_9allocatorIcEEEC2IPcEET_S8_RKS4_
FN:1862,_ZNSt3__112basic_stringIcNS_11char_traitsIcEENS_9allocatorIcEEEC1IPcEET_S8_RKS4_
FN:2870,_ZNKSt3__112basic_stringIcNS_11char_traitsIcEENS_9allocatorIcEEE8max_sizeEv
FNDA:0,_ZNSt3__14fposI11__mbstate_tEC1Ex
FNDA:0,_ZNSt3__14fposI11__mbstate_tEC2Ex
FNDA:0,_ZNKSt3__14fposI11__mbstate_tEcvxEv
FNDA:1253,_ZNKSt3__112basic_stringIcNS_11char_traitsIcEENS_9allocatorIcEEE4sizeEv
FNDA:453,_ZNKSt3__112basic_stringIcNS_11char_traitsIcEENS_9allocatorIcEEE8capacityEv
FNDA:453,_ZNSt3__112basic_stringIcNS_11char_traitsIcEENS_9allocatorIcEEE6resizeEm
FNDA:0,_ZNKSt3__112basic_stringIcNS_11char_traitsIcEENS_9allocatorIcEEE5c_strEv
FNDA:2506,_ZNKSt3__112basic_stringIcNS_11char_traitsIcEENS_9allocatorIcEEE4dataEv
FNDA:400,_ZNKSt3__112basic_stringIcNS_11char_traitsIcEENS_9allocatorIcEEE13get_allocatorEv
FNDA:4212,_ZNKSt3__112basic_stringIcNS_11char_traitsIcEENS_9allocatorIcEEE9__is_longEv
FNDA:35,_ZNSt3__112basic_stringIcNS_11char_traitsIcEENS_9allocatorIcEEE7__allocEv
FNDA:800,_ZNKSt3__112basic_stringIcNS_11char_traitsIcEENS_9allocatorIcEEE7__allocEv
FNDA:365,_ZNSt3__112basic_stringIcNS_11char_traitsIcEENS_9allocatorIcEEE16__set_short_sizeEm
FNDA:1200,_ZNKSt3__112basic_stringIcNS_11char_traitsIcEENS_9allocatorIcEEE16__get_short_sizeEv
FNDA:35,_ZNSt3__112basic_stringIcNS_11char_traitsIcEENS_9allocatorIcEEE15__set_long_sizeEm
FNDA:53,_ZNKSt3__112basic_stringIcNS_11char_traitsIcEENS_9allocatorIcEEE15__get_long_sizeEv
FNDA:35,_ZNSt3__112basic_stringIcNS_11char_traitsIcEENS_9allocatorIcEEE14__set_long_capEm
FNDA:53,_ZNKSt3__112basic_stringIcNS_11char_traitsIcEENS_9allocatorIcEEE14__get_long_capEv
FNDA:35,_ZNSt3__112basic_stringIcNS_11char_traitsIcEENS_9allocatorIcEEE18__set_long_pointerEPc
FNDA:106,_ZNKSt3__112basic_stringIcNS_11char_traitsIcEENS_9allocatorIcEEE18__get_long_pointerEv
FNDA:365,_ZNSt3__112basic_stringIcNS_11char_traitsIcEENS_9allocatorIcEEE19__get_short_pointerEv
FNDA:2400,_ZNKSt3__112basic_stringIcNS_11char_traitsIcEENS_9allocatorIcEEE19__get_short_pointerEv
FNDA:2506,_ZNKSt3__112basic_stringIcNS_11char_traitsIcEENS_9allocatorIcEEE13__get_pointerEv
FNDA:0,_ZNSt3__112basic_stringIcNS_11char_traitsIcEENS_9allocatorIcEEE6__zeroEv
FNDA:35,_ZNSt3__112basic_stringIcNS_11char_traitsIcEENS_9allocatorIcEEE10__align_itILm16EEEmm
FNDA:35,_ZNSt3__112basic_stringIcNS_11char_traitsIcEENS_9allocatorIcEEE11__recommendEm
FNDA:0,_ZNSt3__112basic_stringIcNS_11char_traitsIcEENS_9allocatorIcEEEC1Ev
FNDA:0,_ZNSt3__112basic_stringIcNS_11char_traitsIcEENS_9allocatorIcEEEC2Ev
FNDA:0,_ZNSt3__112basic_stringIcNS_11char_traitsIcEENS_9allocatorIcEEEC1ERKS4_
FNDA:0,_ZNSt3__112basic_stringIcNS_11char_traitsIcEENS_9allocatorIcEEEC2ERKS4_
FNDA:20,_ZNSt3__112basic_stringIcNS_11char_traitsIcEENS_9allocatorIcEEEC1EPKc
FNDA:20,_ZNSt3__112basic_stringIcNS_11char_traitsIcEENS_9allocatorIcEEEC2EPKc
FNDA:0,_ZNSt3__112basic_stringIcNS_11char_traitsIcEENS_9allocatorIcEEEC1Emc
FNDA:0,_ZNSt3__112basic_stringIcNS_11char_traitsIcEENS_9allocatorIcEEEC2Emc
FNDA:400,_ZNSt3__112basic_stringIcNS_11char_traitsIcEENS_9allocatorIcEEE6__initIPcEENS_9enable_ifIXsr21__is_forward_iteratorIT_EE5valueEvE4typeES9_S9_
FNDA:400,_ZNSt3__112basic_stringIcNS_11char_traitsIcEENS_9allocatorIcEEEC1IPcEET_S8_RKS4_
FNDA:400,_ZNSt3__112basic_stringIcNS_11char_traitsIcEENS_9allocatorIcEEEC2IPcEET_S8_RKS4_
FNDA:400,_ZNKSt3__112basic_stringIcNS_11char_traitsIcEENS_9allocatorIcEEE8max_sizeEv
FNF:38
FNH:27
DA:508,0
DA:510,0
DA:750,0
DA:775,20
DA:783,0
DA:889,3759
DA:893,1812
DA:894,453
DA:897,453
DA:1127,0
DA:1129,2506
DA:1136,400
DA:1221,4212
DA:1235,35
DA:1238,800
DA:1265,365
DA:1273,1200
DA:1280,35
DA:1283,53
DA:1290,35
DA:1293,53
DA:1297,35
DA:1303,106
DA:1306,365
DA:1309,2400
DA:1315,7518
DA:1320,0
DA:1321,0
DA:1322,0
DA:1323,0
DA:1328,35
DA:1332,140
DA:1333,35
DA:1334,70
DA:1494,0
DA:1498,0
DA:1499,0
DA:1509,0
DA:1510,0
DA:1514,0
DA:1515,0
DA:1569,40
DA:1571,20
DA:1575,40
DA:1707,0
DA:1708,0
DA:1712,0
DA:1826,400
DA:1827,400
DA:1828,0
DA:1830,400
DA:1832,365
DA:1833,365
DA:1834,365
DA:1837,35
DA:1838,35
DA:1839,35
DA:1840,35
DA:1841,35
DA:1843,9106
DA:1844,4153
DA:1845,400
DA:1846,400
DA:1864,400
DA:1865,800
DA:1866,400
DA:1870,800
DA:2872,400
DA:2876,400
LF:69
LH:49
end_of_record
SF:/Applications/Xcode.app/Contents/Developer/Toolchains/XcodeDefault.xctoolchain/usr/include/c++/v1/tuple
FN:163,_ZNSt3__14swapILm0EiLb0EEEvRNS_12__tuple_leafIXT_ET0_XT1_EEES4_
FN:163,_ZNSt3__14swapILm1EiLb0EEEvRNS_12__tuple_leafIXT_ET0_XT1_EEES4_
FN:225,_ZNSt3__112__tuple_leafILm1EiLb0EEC2IRivEEOT_
FN:225,_ZNSt3__112__tuple_leafILm0EiLb0EEC2IRivEEOT_
FN:257,_ZNSt3__112__tuple_leafILm1EiLb0EEaSIiEERS1_OT_
FN:257,_ZNSt3__112__tuple_leafILm0EiLb0EEaSIiEERS1_OT_
FN:264,_ZNSt3__112__tuple_leafILm0EiLb0EE4swapERS1_
FN:264,_ZNSt3__112__tuple_leafILm1EiLb0EE4swapERS1_
FN:270,_ZNSt3__112__tuple_leafILm0EiLb0EE3getEv
FN:270,_ZNSt3__112__tuple_leafILm1EiLb0EE3getEv
FN:271,_ZNKSt3__112__tuple_leafILm1EiLb0EE3getEv
FN:271,_ZNKSt3__112__tuple_leafILm0EiLb0EE3getEv
FN:351,_ZNSt3__19__swallowIJiiEEEvDpOT_
FN:351,_ZNSt3__19__swallowIJRNS_12__tuple_leafILm0EiLb0EEERNS1_ILm1EiLb0EEEEEEvDpOT_
FN:380,_ZNSt3__112__tuple_implINS_15__tuple_indicesIJLm0ELm1EEEEJiiEEC1IJLm0ELm1EEJiiEJEJEJRiS5_EEENS1_IJXspT_EEEENS_13__tuple_typesIJDpT0_EEENS1_IJXspT1_EEEENS7_IJDpT2_EEEDpOT3_
FN:380,_ZNSt3__112__tuple_implINS_15__tuple_indicesIJLm0ELm1EEEEJiiEEC2IJLm0ELm1EEJiiEJEJEJRiS5_EEENS1_IJXspT_EEEENS_13__tuple_typesIJDpT0_EEENS1_IJXspT1_EEEENS7_IJDpT2_EEEDpOT3_
FN:457,_ZNSt3__112__tuple_implINS_15__tuple_indicesIJLm0ELm1EEEEJiiEEaSEOS3_
FN:464,_ZNSt3__112__tuple_implINS_15__tuple_indicesIJLm0ELm1EEEEJiiEE4swapERS3_
FN:728,_ZNSt3__15tupleIJiiEEC1IJRiS3_ELb0ELb0EEEDpOT_
FN:728,_ZNSt3__15tupleIJiiEEC2IJRiS3_ELb0ELb0EEEDpOT_
FN:884,_ZNSt3__15tupleIJiiEEaSEOS1_
FN:906,_ZNSt3__15tupleIJiiEE4swapERS1_
FN:949,_ZNSt3__14swapIJiiEEENS_9enable_ifIXsr5__allIXspsr14__is_swappableIT_EE5valueEEE5valueEvE4typeERNS_5tupleIJDpS2_EEES8_
FN:967,_ZNSt3__13getILm1EJiiEEERKNS_13tuple_elementIXT_ENS_5tupleIJDpT0_EEEE4typeERKS5_
FN:967,_ZNSt3__13getILm0EJiiEEERKNS_13tuple_elementIXT_ENS_5tupleIJDpT0_EEEE4typeERKS5_
FN:1106,_ZNSt3__110make_tupleIJRiS1_EEENS_5tupleIJDpNS_19__make_tuple_returnIT_E4typeEEEEDpOS4_
FN:1124,_ZNSt3__113__tuple_equalILm1EEclINS_5tupleIJiiEEES4_EEbRKT_RKT0_
FN:1124,_ZNSt3__113__tuple_equalILm2EEclINS_5tupleIJiiEEES4_EEbRKT_RKT0_
FN:1135,_ZNSt3__113__tuple_equalILm0EEclINS_5tupleIJiiEEES4_EEbRKT_RKT0_
FN:1144,_ZNSt3__1eqIJiiEJiiEEEbRKNS_5tupleIJDpT_EEERKNS1_IJDpT0_EEE
FN:1162,_ZNSt3__112__tuple_lessILm2EEclINS_5tupleIJiiEEES4_EEbRKT_RKT0_
FN:1162,_ZNSt3__112__tuple_lessILm1EEclINS_5tupleIJiiEEES4_EEbRKT_RKT0_
FN:1178,_ZNSt3__112__tuple_lessILm0EEclINS_5tupleIJiiEEES4_EEbRKT_RKT0_
FN:1187,_ZNSt3__1ltIJiiEJiiEEEbRKNS_5tupleIJDpT_EEERKNS1_IJDpT0_EEE
FNDA:0,_ZNSt3__14swapILm0EiLb0EEEvRNS_12__tuple_leafIXT_ET0_XT1_EEES4_
FNDA:0,_ZNSt3__14swapILm1EiLb0EEEvRNS_12__tuple_leafIXT_ET0_XT1_EEES4_
FNDA:40,_ZNSt3__112__tuple_leafILm0EiLb0EEC2IRivEEOT_
FNDA:40,_ZNSt3__112__tuple_leafILm1EiLb0EEC2IRivEEOT_
FNDA:0,_ZNSt3__112__tuple_leafILm0EiLb0EEaSIiEERS1_OT_
FNDA:0,_ZNSt3__112__tuple_leafILm1EiLb0EEaSIiEERS1_OT_
FNDA:0,_ZNSt3__112__tuple_leafILm0EiLb0EE4swapERS1_
FNDA:0,_ZNSt3__112__tuple_leafILm1EiLb0EE4swapERS1_
FNDA:0,_ZNSt3__112__tuple_leafILm0EiLb0EE3getEv
FNDA:0,_ZNSt3__112__tuple_leafILm1EiLb0EE3getEv
FNDA:504,_ZNKSt3__112__tuple_leafILm0EiLb0EE3getEv
FNDA:272,_ZNKSt3__112__tuple_leafILm1EiLb0EE3getEv
FNDA:0,_ZNSt3__19__swallowIJiiEEEvDpOT_
FNDA:0,_ZNSt3__19__swallowIJRNS_12__tuple_leafILm0EiLb0EEERNS1_ILm1EiLb0EEEEEEvDpOT_
FNDA:40,_ZNSt3__112__tuple_implINS_15__tuple_indicesIJLm0ELm1EEEEJiiEEC1IJLm0ELm1EEJiiEJEJEJRiS5_EEENS1_IJXspT_EEEENS_13__tuple_typesIJDpT0_EEENS1_IJXspT1_EEEENS7_IJDpT2_EEEDpOT3_
FNDA:40,_ZNSt3__112__tuple_implINS_15__tuple_indicesIJLm0ELm1EEEEJiiEEC2IJLm0ELm1EEJiiEJEJEJRiS5_EEENS1_IJXspT_EEEENS_13__tuple_typesIJDpT0_EEENS1_IJXspT1_EEEENS7_IJDpT2_EEEDpOT3_
FNDA:0,_ZNSt3__112__tuple_implINS_15__tuple_indicesIJLm0ELm1EEEEJiiEEaSEOS3_
FNDA:0,_ZNSt3__112__tuple_implINS_15__tuple_indicesIJLm0ELm1EEEEJiiEE4swapERS3_
FNDA:40,_ZNSt3__15tupleIJiiEEC1IJRiS3_ELb0ELb0EEEDpOT_
FNDA:40,_ZNSt3__15tupleIJiiEEC2IJRiS3_ELb0ELb0EEEDpOT_
FNDA:0,_ZNSt3__15tupleIJiiEEaSEOS1_
FNDA:0,_ZNSt3__15tupleIJiiEE4swapERS1_
FNDA:0,_ZNSt3__14swapIJiiEEENS_9enable_ifIXsr5__allIXspsr14__is_swappableIT_EE5valueEEE5valueEvE4typeERNS_5tupleIJDpS2_EEES8_
FNDA:504,_ZNSt3__13getILm0EJiiEEERKNS_13tuple_elementIXT_ENS_5tupleIJDpT0_EEEE4typeERKS5_
FNDA:272,_ZNSt3__13getILm1EJiiEEERKNS_13tuple_elementIXT_ENS_5tupleIJDpT0_EEEE4typeERKS5_
FNDA:40,_ZNSt3__110make_tupleIJRiS1_EEENS_5tupleIJDpNS_19__make_tuple_returnIT_E4typeEEEEDpOS4_
FNDA:40,_ZNSt3__113__tuple_equalILm2EEclINS_5tupleIJiiEEES4_EEbRKT_RKT0_
FNDA:40,_ZNSt3__113__tuple_equalILm1EEclINS_5tupleIJiiEEES4_EEbRKT_RKT0_
FNDA:40,_ZNSt3__113__tuple_equalILm0EEclINS_5tupleIJiiEEES4_EEbRKT_RKT0_
FNDA:40,_ZNSt3__1eqIJiiEJiiEEEbRKNS_5tupleIJDpT_EEERKNS1_IJDpT0_EEE
FNDA:120,_ZNSt3__112__tuple_lessILm2EEclINS_5tupleIJiiEEES4_EEbRKT_RKT0_
FNDA:48,_ZNSt3__112__tuple_lessILm1EEclINS_5tupleIJiiEEES4_EEbRKT_RKT0_
FNDA:8,_ZNSt3__112__tuple_lessILm0EEclINS_5tupleIJiiEEES4_EEbRKT_RKT0_
FNDA:120,_ZNSt3__1ltIJiiEJiiEEEbRKNS_5tupleIJDpT_EEERKNS1_IJDpT0_EEE
FNF:34
FNH:19
DA:166,0
DA:167,0
DA:226,80
DA:228,80
DA:259,0
DA:260,0
DA:266,0
DA:267,0
DA:270,0
DA:271,776
DA:351,0
DA:385,80
DA:387,160
DA:459,0
DA:460,0
DA:467,0
DA:468,0
DA:738,80
DA:742,120
DA:887,0
DA:888,0
DA:907,0
DA:951,0
DA:970,776
DA:1108,40
DA:1126,240
DA:1137,40
DA:1146,40
DA:1164,168
DA:1165,168
DA:1166,28
DA:1167,140
DA:1168,84
DA:1169,56
DA:1170,168
DA:1180,8
DA:1189,120
LF:37
LH:21
end_of_record
SF:/Applications/Xcode.app/Contents/Developer/Toolchains/XcodeDefault.xctoolchain/usr/include/c++/v1/type_traits
FN:437,_ZNSt3__19addressofIcEEPT_RS1_
FN:437,_ZNSt3__19addressofIKcEEPT_RS2_
FN:2210,_ZNSt3__14moveIRiEEONS_16remove_referenceIT_E4typeEOS3_
FN:2210,_ZNSt3__14moveIRNS_5tupleIJiiEEEEEONS_16remove_referenceIT_E4typeEOS5_
FN:2219,_ZNSt3__17forwardINS_9allocatorImEEEEOT_RNS_16remove_referenceIS3_E4typeE
FN:2219,_ZNSt3__17forwardIRKNS_5tupleIJiiEEEEEOT_RNS_16remove_referenceIS5_E4typeE
FN:2219,_ZNSt3__17forwardIRKNS_6vectorIbNS_9allocatorIbEEEEEEOT_RNS_16remove_referenceIS7_E4typeE
FN:2219,_ZNSt3__17forwardIRKNS_9allocatorINS_5tupleIJiiEEEEEEEOT_RNS_16remove_referenceIS7_E4typeE
FN:2219,_ZNSt3__17forwardIRKNS_9allocatorINS_6vectorIbNS1_IbEEEEEEEEOT_RNS_16remove_referenceIS8_E4typeE
FN:2219,_ZNSt3__17forwardIRNS_6vectorIbNS_9allocatorIbEEEEEEOT_RNS_16remove_referenceIS6_E4typeE
FN:2219,_ZNSt3__17forwardIDnEEOT_RNS_16remove_referenceIS1_E4typeE
FN:2219,_ZNSt3__17forwardIiEEOT_RNS_16remove_referenceIS1_E4typeE
FN:2219,_ZNSt3__17forwardIRiEEOT_RNS_16remove_referenceIS2_E4typeE
FN:2219,_ZNSt3__17forwardIRKNS_9allocatorIcEEEEOT_RNS_16remove_referenceIS5_E4typeE
FN:4454,_ZNSt3__14swapIiEENS_9enable_ifIXaasr21is_move_constructibleIT_EE5valuesr18is_move_assignableIS2_EE5valueEvE4typeERS2_S5_
FNDA:2400,_ZNSt3__19addressofIKcEEPT_RS2_
FNDA:365,_ZNSt3__19addressofIcEEPT_RS1_
FNDA:0,_ZNSt3__14moveIRiEEONS_16remove_referenceIT_E4typeEOS3_
FNDA:0,_ZNSt3__14moveIRNS_5tupleIJiiEEEEEONS_16remove_referenceIT_E4typeEOS5_
FNDA:4,_ZNSt3__17forwardIiEEOT_RNS_16remove_referenceIS1_E4typeE
FNDA:64,_ZNSt3__17forwardIDnEEOT_RNS_16remove_referenceIS1_E4typeE
FNDA:24,_ZNSt3__17forwardIRKNS_9allocatorINS_5tupleIJiiEEEEEEEOT_RNS_16remove_referenceIS7_E4typeE
FNDA:0,_ZNSt3__17forwardIRKNS_6vectorIbNS_9allocatorIbEEEEEEOT_RNS_16remove_referenceIS7_E4typeE
FNDA:0,_ZNSt3__17forwardIRKNS_9allocatorINS_6vectorIbNS1_IbEEEEEEEEOT_RNS_16remove_referenceIS8_E4typeE
FNDA:0,_ZNSt3__17forwardIRNS_6vectorIbNS_9allocatorIbEEEEEEOT_RNS_16remove_referenceIS6_E4typeE
FNDA:800,_ZNSt3__17forwardIRKNS_9allocatorIcEEEEOT_RNS_16remove_referenceIS5_E4typeE
FNDA:0,_ZNSt3__17forwardINS_9allocatorImEEEEOT_RNS_16remove_referenceIS3_E4typeE
FNDA:320,_ZNSt3__17forwardIRiEEOT_RNS_16remove_referenceIS2_E4typeE
FNDA:120,_ZNSt3__17forwardIRKNS_5tupleIJiiEEEEEOT_RNS_16remove_referenceIS5_E4typeE
FNDA:0,_ZNSt3__14swapIiEENS_9enable_ifIXaasr21is_move_constructibleIT_EE5valuesr18is_move_assignableIS2_EE5valueEvE4typeERS2_S5_
FNF:15
FNH:8
DA:439,2765
DA:2213,0
DA:2221,1332
DA:4457,0
DA:4458,0
DA:4459,0
DA:4460,0
LF:7
LH:2
end_of_record
SF:/Applications/Xcode.app/Contents/Developer/Toolchains/XcodeDefault.xctoolchain/usr/include/c++/v1/vector
FN:294,_ZNSt3__120__vector_base_commonILb1EEC2Ev
FN:337,_ZNSt3__113__vector_baseINS_6vectorIbNS_9allocatorIbEEEENS2_IS4_EEE7__allocEv
FN:337,_ZNSt3__113__vector_baseINS_5tupleIJiiEEENS_9allocatorIS2_EEE7__allocEv
FN:340,_ZNKSt3__113__vector_baseINS_5tupleIJiiEEENS_9allocatorIS2_EEE7__allocEv
FN:340,_ZNKSt3__113__vector_baseINS_6vectorIbNS_9allocatorIbEEEENS2_IS4_EEE7__allocEv
FN:343,_ZNSt3__113__vector_baseINS_5tupleIJiiEEENS_9allocatorIS2_EEE9__end_capEv
FN:343,_ZNSt3__113__vector_baseINS_6vectorIbNS_9allocatorIbEEEENS2_IS4_EEE9__end_capEv
FN:346,_ZNKSt3__113__vector_baseINS_6vectorIbNS_9allocatorIbEEEENS2_IS4_EEE9__end_capEv
FN:346,_ZNKSt3__113__vector_baseINS_5tupleIJiiEEENS_9allocatorIS2_EEE9__end_capEv
FN:356,_ZNSt3__113__vector_baseINS_6vectorIbNS_9allocatorIbEEEENS2_IS4_EEE5clearEv
FN:356,_ZNSt3__113__vector_baseINS_5tupleIJiiEEENS_9allocatorIS2_EEE5clearEv
FN:358,_ZNKSt3__113__vector_baseINS_6vectorIbNS_9allocatorIbEEEENS2_IS4_EEE8capacityEv
FN:358,_ZNKSt3__113__vector_baseINS_5tupleIJiiEEENS_9allocatorIS2_EEE8capacityEv
FN:409,_ZNSt3__113__vector_baseINS_6vectorIbNS_9allocatorIbEEEENS2_IS4_EEE17__destruct_at_endEPS4_
FN:409,_ZNSt3__113__vector_baseINS_5tupleIJiiEEENS_9allocatorIS2_EEE17__destruct_at_endEPS2_
FN:419,_ZNSt3__113__vector_baseINS_6vectorIbNS_9allocatorIbEEEENS2_IS4_EEEC2Ev
FN:419,_ZNSt3__113__vector_baseINS_5tupleIJiiEEENS_9allocatorIS2_EEEC2Ev
FN:429,_ZNSt3__113__vector_baseINS_5tupleIJiiEEENS_9allocatorIS2_EEEC2ERKS4_
FN:429,_ZNSt3__113__vector_baseINS_6vectorIbNS_9allocatorIbEEEENS2_IS4_EEEC2ERKS5_
FN:437,_ZNSt3__113__vector_baseINS_5tupleIJiiEEENS_9allocatorIS2_EEED2Ev
FN:437,_ZNSt3__113__vector_baseINS_6vectorIbNS_9allocatorIbEEEENS2_IS4_EEED2Ev
FN:447,_ZNSt3__16vectorINS_5tupleIJiiEEENS_9allocatorIS2_EEED2Ev
FN:447,_ZNSt3__16vectorINS0_IbNS_9allocatorIbEEEENS1_IS3_EEED1Ev
FN:447,_ZNSt3__16vectorINS0_IbNS_9allocatorIbEEEENS1_IS3_EEED2Ev
FN:447,_ZNSt3__16vectorINS_5tupleIJiiEEENS_9allocatorIS2_EEED1Ev
FN:473,_ZNSt3__16vectorINS_5tupleIJiiEEENS_9allocatorIS2_EEEC2Ev
FN:473,_ZNSt3__16vectorINS_5tupleIJiiEEENS_9allocatorIS2_EEEC1Ev
FN:632,_ZNKSt3__16vectorINS_5tupleIJiiEEENS_9allocatorIS2_EEE4sizeEv
FN:632,_ZNKSt3__16vectorINS0_IbNS_9allocatorIbEEEENS1_IS3_EEE4sizeEv
FN:635,_ZNKSt3__16vectorINS_5tupleIJiiEEENS_9allocatorIS2_EEE8capacityEv
FN:635,_ZNKSt3__16vectorINS0_IbNS_9allocatorIbEEEENS1_IS3_EEE8capacityEv
FN:674,_ZNKSt3__16vectorINS_5tupleIJiiEEENS_9allocatorIS2_EEE4dataEv
FN:674,_ZNKSt3__16vectorINS0_IbNS_9allocatorIbEEEENS1_IS3_EEE4dataEv
FN:827,_ZNKSt3__16vectorINS0_IbNS_9allocatorIbEEEENS1_IS3_EEE31__annotate_contiguous_containerEPKvS7_S7_S7_
FN:827,_ZNKSt3__16vectorINS_5tupleIJiiEEENS_9allocatorIS2_EEE31__annotate_contiguous_containerEPKvS7_S7_S7_
FN:831,_ZNKSt3__16vectorINS0_IbNS_9allocatorIbEEEENS1_IS3_EEE14__annotate_newEm
FN:831,_ZNKSt3__16vectorINS_5tupleIJiiEEENS_9allocatorIS2_EEE14__annotate_newEm
FN:875,_ZNSt3__16vectorINS0_IbNS_9allocatorIbEEEENS1_IS3_EEE24__RAII_IncreaseAnnotatorC1ERKS5_m
FN:875,_ZNSt3__16vectorINS0_IbNS_9allocatorIbEEEENS1_IS3_EEE24__RAII_IncreaseAnnotatorC2ERKS5_m
FN:875,_ZNSt3__16vectorINS_5tupleIJiiEEENS_9allocatorIS2_EEE24__RAII_IncreaseAnnotatorC1ERKS5_m
FN:875,_ZNSt3__16vectorINS_5tupleIJiiEEENS_9allocatorIS2_EEE24__RAII_IncreaseAnnotatorC2ERKS5_m
FN:876,_ZNSt3__16vectorINS_5tupleIJiiEEENS_9allocatorIS2_EEE24__RAII_IncreaseAnnotator6__doneEv
FN:876,_ZNSt3__16vectorINS0_IbNS_9allocatorIbEEEENS1_IS3_EEE24__RAII_IncreaseAnnotator6__doneEv
FN:922,_ZNSt3__16vectorINS0_IbNS_9allocatorIbEEEENS1_IS3_EEE8allocateEm
FN:922,_ZNSt3__16vectorINS_5tupleIJiiEEENS_9allocatorIS2_EEE8allocateEm
FN:945,_ZNKSt3__16vectorINS_5tupleIJiiEEENS_9allocatorIS2_EEE8max_sizeEv
FN:945,_ZNKSt3__16vectorINS0_IbNS_9allocatorIbEEEENS1_IS3_EEE8max_sizeEv
FN:1015,_ZNSt3__16vectorINS_5tupleIJiiEEENS_9allocatorIS2_EEE18__construct_at_endIPKS2_EENS_9enable_ifIXsr21__is_forward_iteratorIT_EE5valueEvE4typeESA_SA_m
FN:1015,_ZNSt3__16vectorINS_5tupleIJiiEEENS_9allocatorIS2_EEE18__construct_at_endIPS2_EENS_9enable_ifIXsr21__is_forward_iteratorIT_EE5valueEvE4typeES9_S9_m
FN:1015,_ZNSt3__16vectorINS0_IbNS_9allocatorIbEEEENS1_IS3_EEE18__construct_at_endIPS3_EENS_9enable_ifIXsr21__is_forward_iteratorIT_EE5valueEvE4typeES9_S9_m
FN:1015,_ZNSt3__16vectorINS0_IbNS_9allocatorIbEEEENS1_IS3_EEE18__construct_at_endIPKS3_EENS_9enable_ifIXsr21__is_forward_iteratorIT_EE5valueEvE4typeESA_SA_m
FN:1192,_ZNSt3__16vectorINS_5tupleIJiiEEENS_9allocatorIS2_EEEC1ERKS5_
FN:1192,_ZNSt3__16vectorINS_5tupleIJiiEEENS_9allocatorIS2_EEEC2ERKS5_
FN:1192,_ZNSt3__16vectorINS0_IbNS_9allocatorIbEEEENS1_IS3_EEEC1ERKS5_
FN:1192,_ZNSt3__16vectorINS0_IbNS_9allocatorIbEEEENS1_IS3_EEEC2ERKS5_
FN:1270,_ZNSt3__16vectorINS0_IbNS_9allocatorIbEEEENS1_IS3_EEEC2ESt16initializer_listIS3_E
FN:1270,_ZNSt3__16vectorINS_5tupleIJiiEEENS_9allocatorIS2_EEEC1ESt16initializer_listIS2_E
FN:1270,_ZNSt3__16vectorINS0_IbNS_9allocatorIbEEEENS1_IS3_EEEC1ESt16initializer_listIS3_E
FN:1270,_ZNSt3__16vectorINS_5tupleIJiiEEENS_9allocatorIS2_EEEC2ESt16initializer_listIS2_E
FN:1434,_ZNSt3__16vectorINS_5tupleIJiiEEENS_9allocatorIS2_EEE11__make_iterEPS2_
FN:1446,_ZNKSt3__16vectorINS_5tupleIJiiEEENS_9allocatorIS2_EEE11__make_iterEPKS2_
FN:1458,_ZNSt3__16vectorINS_5tupleIJiiEEENS_9allocatorIS2_EEE5beginEv
FN:1466,_ZNKSt3__16vectorINS_5tupleIJiiEEENS_9allocatorIS2_EEE5beginEv
FN:1474,_ZNSt3__16vectorINS_5tupleIJiiEEENS_9allocatorIS2_EEE3endEv
FN:1482,_ZNKSt3__16vectorINS_5tupleIJiiEEENS_9allocatorIS2_EEE3endEv
FN:2169,_ZNSt3__16vectorIbNS_9allocatorIbEEE5__capEv
FN:2175,_ZNSt3__16vectorIbNS_9allocatorIbEEE7__allocEv
FN:2178,_ZNKSt3__16vectorIbNS_9allocatorIbEEE7__allocEv
FN:2184,_ZNSt3__16vectorIbNS_9allocatorIbEEE26__internal_cap_to_externalEm
FN:2187,_ZNSt3__16vectorIbNS_9allocatorIbEEE26__external_cap_to_internalEm
FN:2280,_ZNKSt3__16vectorIbNS_9allocatorIbEEE4sizeEv
FN:2292,_ZNKSt3__16vectorIbNS_9allocatorIbEEE5beginEv
FN:2298,_ZNKSt3__16vectorIbNS_9allocatorIbEEE3endEv
FN:2430,_ZNSt3__16vectorIbNS_9allocatorIbEEE11__make_iterEm
FN:2433,_ZNKSt3__16vectorIbNS_9allocatorIbEEE11__make_iterEm
FN:2490,_ZNSt3__16vectorIbNS_9allocatorIbEEE26__invalidate_all_iteratorsEv
FN:2503,_ZNSt3__16vectorIbNS_9allocatorIbEEE8allocateEm
FN:2528,_ZNKSt3__16vectorIbNS_9allocatorIbEEE8max_sizeEv
FN:2573,_ZNSt3__16vectorIbNS_9allocatorIbEEE18__construct_at_endINS_14__bit_iteratorIS3_Lb1ELm0EEEEENS_9enable_ifIXsr21__is_forward_iteratorIT_EE5valueEvE4typeES8_S8_
FN:2573,_ZNSt3__16vectorIbNS_9allocatorIbEEE18__construct_at_endIPKbEENS_9enable_ifIXsr21__is_forward_iteratorIT_EE5valueEvE4typeES8_S8_
FN:2582,_ZNSt3__16vectorIbNS_9allocatorIbEEEC1Ev
FN:2582,_ZNSt3__16vectorIbNS_9allocatorIbEEEC2Ev
FN:2747,_ZNSt3__16vectorIbNS_9allocatorIbEEEC1ESt16initializer_listIbE
FN:2747,_ZNSt3__16vectorIbNS_9allocatorIbEEEC2ESt16initializer_listIbE
FN:2777,_ZNSt3__16vectorIbNS_9allocatorIbEEED2Ev
FN:2777,_ZNSt3__16vectorIbNS_9allocatorIbEEED1Ev
FN:2785,_ZNSt3__16vectorIbNS_9allocatorIbEEEC2ERKS3_
FN:2785,_ZNSt3__16vectorIbNS_9allocatorIbEEEC1ERKS3_
FN:3298,_ZNSt3__1eqINS_5tupleIJiiEEENS_9allocatorIS2_EEEEbRKNS_6vectorIT_T0_EESA_
FNDA:34,_ZNSt3__120__vector_base_commonILb1EEC2Ev
FNDA:0,_ZNSt3__113__vector_baseINS_6vectorIbNS_9allocatorIbEEEENS2_IS4_EEE7__allocEv
FNDA:36,_ZNSt3__113__vector_baseINS_5tupleIJiiEEENS_9allocatorIS2_EEE7__allocEv
FNDA:12,_ZNKSt3__113__vector_baseINS_5tupleIJiiEEENS_9allocatorIS2_EEE7__allocEv
FNDA:0,_ZNKSt3__113__vector_baseINS_6vectorIbNS_9allocatorIbEEEENS2_IS4_EEE7__allocEv
FNDA:18,_ZNSt3__113__vector_baseINS_5tupleIJiiEEENS_9allocatorIS2_EEE9__end_capEv
FNDA:0,_ZNSt3__113__vector_baseINS_6vectorIbNS_9allocatorIbEEEENS2_IS4_EEE9__end_capEv
FNDA:0,_ZNKSt3__113__vector_baseINS_6vectorIbNS_9allocatorIbEEEENS2_IS4_EEE9__end_capEv
FNDA:36,_ZNKSt3__113__vector_baseINS_5tupleIJiiEEENS_9allocatorIS2_EEE9__end_capEv
FNDA:0,_ZNSt3__113__vector_baseINS_6vectorIbNS_9allocatorIbEEEENS2_IS4_EEE5clearEv
FNDA:0,_ZNSt3__113__vector_baseINS_5tupleIJiiEEENS_9allocatorIS2_EEE5clearEv
FNDA:0,_ZNKSt3__113__vector_baseINS_6vectorIbNS_9allocatorIbEEEENS2_IS4_EEE8capacityEv
FNDA:36,_ZNKSt3__113__vector_baseINS_5tupleIJiiEEENS_9allocatorIS2_EEE8capacityEv
FNDA:0,_ZNSt3__113__vector_baseINS_6vectorIbNS_9allocatorIbEEEENS2_IS4_EEE17__destruct_at_endEPS4_
FNDA:0,_ZNSt3__113__vector_baseINS_5tupleIJiiEEENS_9allocatorIS2_EEE17__destruct_at_endEPS2_
FNDA:10,_ZNSt3__113__vector_baseINS_6vectorIbNS_9allocatorIbEEEENS2_IS4_EEEC2Ev
FNDA:10,_ZNSt3__113__vector_baseINS_5tupleIJiiEEENS_9allocatorIS2_EEEC2Ev
FNDA:12,_ZNSt3__113__vector_baseINS_5tupleIJiiEEENS_9allocatorIS2_EEEC2ERKS4_
FNDA:0,_ZNSt3__113__vector_baseINS_6vectorIbNS_9allocatorIbEEEENS2_IS4_EEEC2ERKS5_
FNDA:0,_ZNSt3__113__vector_baseINS_6vectorIbNS_9allocatorIbEEEENS2_IS4_EEED2Ev
FNDA:0,_ZNSt3__113__vector_baseINS_5tupleIJiiEEENS_9allocatorIS2_EEED2Ev
FNDA:0,_ZNSt3__16vectorINS0_IbNS_9allocatorIbEEEENS1_IS3_EEED1Ev
FNDA:0,_ZNSt3__16vectorINS_5tupleIJiiEEENS_9allocatorIS2_EEED1Ev
FNDA:0,_ZNSt3__16vectorINS0_IbNS_9allocatorIbEEEENS1_IS3_EEED2Ev
FNDA:0,_ZNSt3__16vectorINS_5tupleIJiiEEENS_9allocatorIS2_EEED2Ev
FNDA:4,_ZNSt3__16vectorINS_5tupleIJiiEEENS_9allocatorIS2_EEEC1Ev
FNDA:4,_ZNSt3__16vectorINS_5tupleIJiiEEENS_9allocatorIS2_EEEC2Ev
FNDA:32,_ZNKSt3__16vectorINS_5tupleIJiiEEENS_9allocatorIS2_EEE4sizeEv
FNDA:0,_ZNKSt3__16vectorINS0_IbNS_9allocatorIbEEEENS1_IS3_EEE4sizeEv
FNDA:36,_ZNKSt3__16vectorINS_5tupleIJiiEEENS_9allocatorIS2_EEE8capacityEv
FNDA:0,_ZNKSt3__16vectorINS0_IbNS_9allocatorIbEEEENS1_IS3_EEE8capacityEv
FNDA:72,_ZNKSt3__16vectorINS_5tupleIJiiEEENS_9allocatorIS2_EEE4dataEv
FNDA:0,_ZNKSt3__16vectorINS0_IbNS_9allocatorIbEEEENS1_IS3_EEE4dataEv
FNDA:18,_ZNKSt3__16vectorINS_5tupleIJiiEEENS_9allocatorIS2_EEE31__annotate_contiguous_containerEPKvS7_S7_S7_
FNDA:0,_ZNKSt3__16vectorINS0_IbNS_9allocatorIbEEEENS1_IS3_EEE31__annotate_contiguous_containerEPKvS7_S7_S7_
FNDA:18,_ZNKSt3__16vectorINS_5tupleIJiiEEENS_9allocatorIS2_EEE14__annotate_newEm
FNDA:0,_ZNKSt3__16vectorINS0_IbNS_9allocatorIbEEEENS1_IS3_EEE14__annotate_newEm
FNDA:18,_ZNSt3__16vectorINS_5tupleIJiiEEENS_9allocatorIS2_EEE24__RAII_IncreaseAnnotatorC1ERKS5_m
FNDA:18,_ZNSt3__16vectorINS_5tupleIJiiEEENS_9allocatorIS2_EEE24__RAII_IncreaseAnnotatorC2ERKS5_m
FNDA:0,_ZNSt3__16vectorINS0_IbNS_9allocatorIbEEEENS1_IS3_EEE24__RAII_IncreaseAnnotatorC1ERKS5_m
FNDA:0,_ZNSt3__16vectorINS0_IbNS_9allocatorIbEEEENS1_IS3_EEE24__RAII_IncreaseAnnotatorC2ERKS5_m
FNDA:18,_ZNSt3__16vectorINS_5tupleIJiiEEENS_9allocatorIS2_EEE24__RAII_IncreaseAnnotator6__doneEv
FNDA:0,_ZNSt3__16vectorINS0_IbNS_9allocatorIbEEEENS1_IS3_EEE24__RAII_IncreaseAnnotator6__doneEv
FNDA:18,_ZNSt3__16vectorINS_5tupleIJiiEEENS_9allocatorIS2_EEE8allocateEm
FNDA:0,_ZNSt3__16vectorINS0_IbNS_9allocatorIbEEEENS1_IS3_EEE8allocateEm
FNDA:0,_ZNKSt3__16vectorINS_5tupleIJiiEEENS_9allocatorIS2_EEE8max_sizeEv
FNDA:0,_ZNKSt3__16vectorINS0_IbNS_9allocatorIbEEEENS1_IS3_EEE8max_sizeEv
FNDA:12,_ZNSt3__16vectorINS_5tupleIJiiEEENS_9allocatorIS2_EEE18__construct_at_endIPS2_EENS_9enable_ifIXsr21__is_forward_iteratorIT_EE5valueEvE4typeES9_S9_m
FNDA:0,_ZNSt3__16vectorINS0_IbNS_9allocatorIbEEEENS1_IS3_EEE18__construct_at_endIPKS3_EENS_9enable_ifIXsr21__is_forward_iteratorIT_EE5valueEvE4typeESA_SA_m
FNDA:0,_ZNSt3__16vectorINS0_IbNS_9allocatorIbEEEENS1_IS3_EEE18__construct_at_endIPS3_EENS_9enable_ifIXsr21__is_forward_iteratorIT_EE5valueEvE4typeES9_S9_m
FNDA:6,_ZNSt3__16vectorINS_5tupleIJiiEEENS_9allocatorIS2_EEE18__construct_at_endIPKS2_EENS_9enable_ifIXsr21__is_forward_iteratorIT_EE5valueEvE4typeESA_SA_m
FNDA:12,_ZNSt3__16vectorINS_5tupleIJiiEEENS_9allocatorIS2_EEEC1ERKS5_
FNDA:0,_ZNSt3__16vectorINS0_IbNS_9allocatorIbEEEENS1_IS3_EEEC1ERKS5_
FNDA:12,_ZNSt3__16vectorINS_5tupleIJiiEEENS_9allocatorIS2_EEEC2ERKS5_
FNDA:0,_ZNSt3__16vectorINS0_IbNS_9allocatorIbEEEENS1_IS3_EEEC2ERKS5_
FNDA:10,_ZNSt3__16vectorINS0_IbNS_9allocatorIbEEEENS1_IS3_EEEC1ESt16initializer_listIS3_E
FNDA:6,_ZNSt3__16vectorINS_5tupleIJiiEEENS_9allocatorIS2_EEEC1ESt16initializer_listIS2_E
FNDA:10,_ZNSt3__16vectorINS0_IbNS_9allocatorIbEEEENS1_IS3_EEEC2ESt16initializer_listIS3_E
FNDA:6,_ZNSt3__16vectorINS_5tupleIJiiEEENS_9allocatorIS2_EEEC2ESt16initializer_listIS2_E
FNDA:24,_ZNSt3__16vectorINS_5tupleIJiiEEENS_9allocatorIS2_EEE11__make_iterEPS2_
FNDA:30,_ZNKSt3__16vectorINS_5tupleIJiiEEENS_9allocatorIS2_EEE11__make_iterEPKS2_
FNDA:12,_ZNSt3__16vectorINS_5tupleIJiiEEENS_9allocatorIS2_EEE5beginEv
FNDA:20,_ZNKSt3__16vectorINS_5tupleIJiiEEENS_9allocatorIS2_EEE5beginEv
FNDA:12,_ZNSt3__16vectorINS_5tupleIJiiEEENS_9allocatorIS2_EEE3endEv
FNDA:10,_ZNKSt3__16vectorINS_5tupleIJiiEEENS_9allocatorIS2_EEE3endEv
FNDA:0,_ZNSt3__16vectorIbNS_9allocatorIbEEE5__capEv
FNDA:0,_ZNSt3__16vectorIbNS_9allocatorIbEEE7__allocEv
FNDA:0,_ZNKSt3__16vectorIbNS_9allocatorIbEEE7__allocEv
FNDA:0,_ZNSt3__16vectorIbNS_9allocatorIbEEE26__internal_cap_to_externalEm
FNDA:0,_ZNSt3__16vectorIbNS_9allocatorIbEEE26__external_cap_to_internalEm
FNDA:0,_ZNKSt3__16vectorIbNS_9allocatorIbEEE4sizeEv
FNDA:0,_ZNKSt3__16vectorIbNS_9allocatorIbEEE5beginEv
FNDA:0,_ZNKSt3__16vectorIbNS_9allocatorIbEEE3endEv
FNDA:0,_ZNSt3__16vectorIbNS_9allocatorIbEEE11__make_iterEm
FNDA:0,_ZNKSt3__16vectorIbNS_9allocatorIbEEE11__make_iterEm
FNDA:0,_ZNSt3__16vectorIbNS_9allocatorIbEEE26__invalidate_all_iteratorsEv
FNDA:0,_ZNSt3__16vectorIbNS_9allocatorIbEEE8allocateEm
FNDA:0,_ZNKSt3__16vectorIbNS_9allocatorIbEEE8max_sizeEv
FNDA:0,_ZNSt3__16vectorIbNS_9allocatorIbEEE18__construct_at_endIPKbEENS_9enable_ifIXsr21__is_forward_iteratorIT_EE5valueEvE4typeES8_S8_
FNDA:0,_ZNSt3__16vectorIbNS_9allocatorIbEEE18__construct_at_endINS_14__bit_iteratorIS3_Lb1ELm0EEEEENS_9enable_ifIXsr21__is_forward_iteratorIT_EE5valueEvE4typeES8_S8_
FNDA:2,_ZNSt3__16vectorIbNS_9allocatorIbEEEC1Ev
FNDA:2,_ZNSt3__16vectorIbNS_9allocatorIbEEEC2Ev
FNDA:0,_ZNSt3__16vectorIbNS_9allocatorIbEEEC1ESt16initializer_listIbE
FNDA:0,_ZNSt3__16vectorIbNS_9allocatorIbEEEC2ESt16initializer_listIbE
FNDA:0,_ZNSt3__16vectorIbNS_9allocatorIbEEED1Ev
FNDA:0,_ZNSt3__16vectorIbNS_9allocatorIbEEED2Ev
FNDA:0,_ZNSt3__16vectorIbNS_9allocatorIbEEEC1ERKS3_
FNDA:0,_ZNSt3__16vectorIbNS_9allocatorIbEEEC2ERKS3_
FNDA:10,_ZNSt3__1eqINS_5tupleIJiiEEENS_9allocatorIS2_EEEEbRKNS_6vectorIT_T0_EESA_
FNF:89
FNH:37
DA:294,34
DA:338,36
DA:341,12
DA:344,18
DA:347,36
DA:350,20
DA:352,12
DA:356,0
DA:359,36
DA:411,0
DA:412,0
DA:413,0
DA:414,0
DA:415,0
DA:421,20
DA:422,20
DA:423,20
DA:424,20
DA:425,20
DA:430,12
DA:431,12
DA:432,12
DA:433,12
DA:434,12
DA:439,0
DA:441,0
DA:442,0
DA:443,0
DA:444,0
DA:447,0
DA:473,4
DA:474,8
DA:478,8
DA:541,16
DA:633,32
DA:636,36
DA:675,72
DA:828,18
DA:832,36
DA:833,18
DA:834,18
DA:875,36
DA:876,18
DA:924,18
DA:925,0
DA:926,18
DA:927,18
DA:928,18
DA:929,18
DA:947,0
DA:948,0
DA:1017,18
DA:1018,18
DA:1019,18
DA:1020,18
DA:1021,18
DA:1193,12
DA:1194,24
DA:1198,12
DA:1199,12
DA:1201,12
DA:1202,12
DA:1203,12
DA:1204,24
DA:1271,32
DA:1275,16
DA:1277,16
DA:1278,16
DA:1279,16
DA:1280,32
DA:1439,24
DA:1451,30
DA:1460,12
DA:1468,20
DA:1476,12
DA:1484,10
DA:2170,0
DA:2176,0
DA:2179,0
DA:2185,0
DA:2188,0
DA:2192,2
DA:2222,0
DA:2227,0
DA:2281,0
DA:2293,0
DA:2299,0
DA:2431,0
DA:2434,0
DA:2492,0
DA:2505,0
DA:2506,0
DA:2507,0
DA:2508,0
DA:2509,0
DA:2510,0
DA:2511,0
DA:2530,0
DA:2531,0
DA:2532,0
DA:2533,0
DA:2534,0
DA:2535,0
DA:2575,0
DA:2576,0
DA:2577,0
DA:2578,0
DA:2584,2
DA:2585,2
DA:2586,2
DA:2587,4
DA:2588,4
DA:2748,0
DA:2749,0
DA:2750,0
DA:2751,0
DA:2752,0
DA:2753,0
DA:2755,0
DA:2756,0
DA:2757,0
DA:2758,0
DA:2778,0
DA:2779,0
DA:2780,0
DA:2781,0
DA:2782,0
DA:2786,0
DA:2787,0
DA:2788,0
DA:2789,0
DA:2790,0
DA:2792,0
DA:2793,0
DA:2794,0
DA:2795,0
DA:3300,10
DA:3301,30
LF:138
LH:69
end_of_record
SF:/Users/vpomsztein/Documents/PrivateRepositories/Algoritmos1/TPI/juegoDeLaVida/lib/googletest-master/googletest/include/gtest/gtest-message.h
FN:85,_ZN7testing7MessageD1Ev
FN:85,_ZN7testing7MessageD2Ev
FNDA:0,_ZN7testing7MessageD1Ev
FNDA:0,_ZN7testing7MessageD2Ev
FNF:2
FNH:0
DA:85,0
LF:1
LH:0
end_of_record
SF:/Users/vpomsztein/Documents/PrivateRepositories/Algoritmos1/TPI/juegoDeLaVida/lib/googletest-master/googletest/include/gtest/gtest-printers.h
FN:222,_ZN16testing_internal26DefaultPrintNonContainerToIiEEvRKT_PNSt3__113basic_ostreamIcNS4_11char_traitsIcEEEE
FN:275,_ZN7testing8internal19FormatForComparisonINSt3__16vectorINS2_5tupleIJiiEEENS2_9allocatorIS5_EEEES8_E6FormatERKS8_
FN:349,_ZN7testing8internal33FormatForComparisonFailureMessageINSt3__16vectorINS2_5tupleIJiiEEENS2_9allocatorIS5_EEEES8_EENS2_12basic_stringIcNS2_11char_traitsIcEENS6_IcEEEERKT_RKT0_
FN:378,_ZN7testing8internal14DefaultPrintToINSt3__16vectorINS2_5tupleIJiiEEENS2_9allocatorIS5_EEEEEEvNS0_15WrapPrinterTypeILNS0_18DefaultPrinterTypeE0EEERKT_PNS2_13basic_ostreamIcNS2_11char_traitsIcEEEE
FN:442,_ZN7testing8internal14DefaultPrintToIiEEvNS0_15WrapPrinterTypeILNS0_18DefaultPrinterTypeE3EEERKT_PNSt3__113basic_ostreamIcNS8_11char_traitsIcEEEE
FN:459,_ZN7testing8internal7PrintToIiEEvRKT_PNSt3__113basic_ostreamIcNS5_11char_traitsIcEEEE
FN:459,_ZN7testing8internal7PrintToINSt3__16vectorINS2_5tupleIJiiEEENS2_9allocatorIS5_EEEEEEvRKT_PNS2_13basic_ostreamIcNS2_11char_traitsIcEEEE
FN:626,_ZN7testing8internal7PrintToIiiEEvRKNSt3__15tupleIJT_T0_EEEPNS2_13basic_ostreamIcNS2_11char_traitsIcEEEE
FN:714,_ZN7testing8internal16UniversalPrinterINSt3__15tupleIJiiEEEE5PrintERKS4_PNS2_13basic_ostreamIcNS2_11char_traitsIcEEEE
FN:714,_ZN7testing8internal16UniversalPrinterIiE5PrintERKiPNSt3__113basic_ostreamIcNS5_11char_traitsIcEEEE
FN:714,_ZN7testing8internal16UniversalPrinterINSt3__16vectorINS2_5tupleIJiiEEENS2_9allocatorIS5_EEEEE5PrintERKS8_PNS2_13basic_ostreamIcNS2_11char_traitsIcEEEE
FN:799,_ZN7testing8internal21UniversalTersePrinterINSt3__16vectorINS2_5tupleIJiiEEENS2_9allocatorIS5_EEEEE5PrintERKS8_PNS2_13basic_ostreamIcNS2_11char_traitsIcEEEE
FN:868,_ZN7testing8internal14UniversalPrintINSt3__16vectorINS2_5tupleIJiiEEENS2_9allocatorIS5_EEEEEEvRKT_PNS2_13basic_ostreamIcNS2_11char_traitsIcEEEE
FN:868,_ZN7testing8internal14UniversalPrintINSt3__15tupleIJiiEEEEEvRKT_PNS2_13basic_ostreamIcNS2_11char_traitsIcEEEE
FN:917,_ZN7testing8internal11TuplePolicyINSt3__15tupleIJiiEEEE3getILm0EEERKNS2_13tuple_elementIXT_ES4_E4typeERKS4_
FN:917,_ZN7testing8internal11TuplePolicyINSt3__15tupleIJiiEEEE3getILm1EEERKNS2_13tuple_elementIXT_ES4_E4typeERKS4_
FN:939,_ZN7testing8internal18TuplePrefixPrinterILm1EE13PrintPrefixToINSt3__15tupleIJiiEEEEEvRKT_PNS4_13basic_ostreamIcNS4_11char_traitsIcEEEE
FN:939,_ZN7testing8internal18TuplePrefixPrinterILm2EE13PrintPrefixToINSt3__15tupleIJiiEEEEEvRKT_PNS4_13basic_ostreamIcNS4_11char_traitsIcEEEE
FN:966,_ZN7testing8internal18TuplePrefixPrinterILm0EE13PrintPrefixToINSt3__15tupleIJiiEEEEEvRKT_PNS4_13basic_ostreamIcNS4_11char_traitsIcEEEE
FN:975,_ZN7testing8internal12PrintTupleToINSt3__15tupleIJiiEEEEEvRKT_PNS2_13basic_ostreamIcNS2_11char_traitsIcEEEE
FN:996,_ZN7testing13PrintToStringINSt3__16vectorINS1_5tupleIJiiEEENS1_9allocatorIS4_EEEEEENS1_12basic_stringIcNS1_11char_traitsIcEENS5_IcEEEERKT_
FNDA:0,_ZN16testing_internal26DefaultPrintNonContainerToIiEEvRKT_PNSt3__113basic_ostreamIcNS4_11char_traitsIcEEEE
FNDA:0,_ZN7testing8internal19FormatForComparisonINSt3__16vectorINS2_5tupleIJiiEEENS2_9allocatorIS5_EEEES8_E6FormatERKS8_
FNDA:0,_ZN7testing8internal33FormatForComparisonFailureMessageINSt3__16vectorINS2_5tupleIJiiEEENS2_9allocatorIS5_EEEES8_EENS2_12basic_stringIcNS2_11char_traitsIcEENS6_IcEEEERKT_RKT0_
FNDA:0,_ZN7testing8internal14DefaultPrintToINSt3__16vectorINS2_5tupleIJiiEEENS2_9allocatorIS5_EEEEEEvNS0_15WrapPrinterTypeILNS0_18DefaultPrinterTypeE0EEERKT_PNS2_13basic_ostreamIcNS2_11char_traitsIcEEEE
FNDA:0,_ZN7testing8internal14DefaultPrintToIiEEvNS0_15WrapPrinterTypeILNS0_18DefaultPrinterTypeE3EEERKT_PNSt3__113basic_ostreamIcNS8_11char_traitsIcEEEE
FNDA:0,_ZN7testing8internal7PrintToINSt3__16vectorINS2_5tupleIJiiEEENS2_9allocatorIS5_EEEEEEvRKT_PNS2_13basic_ostreamIcNS2_11char_traitsIcEEEE
FNDA:0,_ZN7testing8internal7PrintToIiEEvRKT_PNSt3__113basic_ostreamIcNS5_11char_traitsIcEEEE
FNDA:0,_ZN7testing8internal7PrintToIiiEEvRKNSt3__15tupleIJT_T0_EEEPNS2_13basic_ostreamIcNS2_11char_traitsIcEEEE
FNDA:0,_ZN7testing8internal16UniversalPrinterINSt3__16vectorINS2_5tupleIJiiEEENS2_9allocatorIS5_EEEEE5PrintERKS8_PNS2_13basic_ostreamIcNS2_11char_traitsIcEEEE
FNDA:0,_ZN7testing8internal16UniversalPrinterINSt3__15tupleIJiiEEEE5PrintERKS4_PNS2_13basic_ostreamIcNS2_11char_traitsIcEEEE
FNDA:0,_ZN7testing8internal16UniversalPrinterIiE5PrintERKiPNSt3__113basic_ostreamIcNS5_11char_traitsIcEEEE
FNDA:0,_ZN7testing8internal21UniversalTersePrinterINSt3__16vectorINS2_5tupleIJiiEEENS2_9allocatorIS5_EEEEE5PrintERKS8_PNS2_13basic_ostreamIcNS2_11char_traitsIcEEEE
FNDA:0,_ZN7testing8internal14UniversalPrintINSt3__16vectorINS2_5tupleIJiiEEENS2_9allocatorIS5_EEEEEEvRKT_PNS2_13basic_ostreamIcNS2_11char_traitsIcEEEE
FNDA:0,_ZN7testing8internal14UniversalPrintINSt3__15tupleIJiiEEEEEvRKT_PNS2_13basic_ostreamIcNS2_11char_traitsIcEEEE
FNDA:0,_ZN7testing8internal11TuplePolicyINSt3__15tupleIJiiEEEE3getILm1EEERKNS2_13tuple_elementIXT_ES4_E4typeERKS4_
FNDA:0,_ZN7testing8internal11TuplePolicyINSt3__15tupleIJiiEEEE3getILm0EEERKNS2_13tuple_elementIXT_ES4_E4typeERKS4_
FNDA:0,_ZN7testing8internal18TuplePrefixPrinterILm2EE13PrintPrefixToINSt3__15tupleIJiiEEEEEvRKT_PNS4_13basic_ostreamIcNS4_11char_traitsIcEEEE
FNDA:0,_ZN7testing8internal18TuplePrefixPrinterILm1EE13PrintPrefixToINSt3__15tupleIJiiEEEEEvRKT_PNS4_13basic_ostreamIcNS4_11char_traitsIcEEEE
FNDA:0,_ZN7testing8internal18TuplePrefixPrinterILm0EE13PrintPrefixToINSt3__15tupleIJiiEEEEEvRKT_PNS4_13basic_ostreamIcNS4_11char_traitsIcEEEE
FNDA:0,_ZN7testing8internal12PrintTupleToINSt3__15tupleIJiiEEEEEvRKT_PNS2_13basic_ostreamIcNS2_11char_traitsIcEEEE
FNDA:0,_ZN7testing13PrintToStringINSt3__16vectorINS1_5tupleIJiiEEENS1_9allocatorIS4_EEEEEENS1_12basic_stringIcNS1_11char_traitsIcEENS5_IcEEEERKT_
FNF:21
FNH:0
DA:249,0
DA:250,0
DA:276,0
DA:351,0
DA:380,0
DA:381,0
DA:382,0
DA:383,0
DA:384,0
DA:385,0
DA:386,0
DA:387,0
DA:388,0
DA:389,0
DA:391,0
DA:392,0
DA:395,0
DA:396,0
DA:398,0
DA:399,0
DA:400,0
DA:401,0
DA:402,0
DA:444,0
DA:445,0
DA:481,0
DA:493,0
DA:494,0
DA:627,0
DA:628,0
DA:723,0
DA:724,0
DA:800,0
DA:801,0
DA:872,0
DA:873,0
DA:919,0
DA:940,0
DA:944,0
DA:946,0
DA:948,0
DA:949,0
DA:966,0
DA:976,0
DA:977,0
DA:978,0
DA:979,0
DA:997,0
DA:998,0
DA:999,0
DA:1000,0
LF:51
LH:0
end_of_record
SF:/Users/vpomsztein/Documents/PrivateRepositories/Algoritmos1/TPI/juegoDeLaVida/lib/googletest-master/googletest/include/gtest/gtest.h
FN:256,_ZN7testing15AssertionResultD1Ev
FN:256,_ZN7testing15AssertionResultD2Ev
FN:288,_ZNK7testing15AssertionResultcvbEv
FN:297,_ZNK7testing15AssertionResult7messageEv
FN:302,_ZNK7testing15AssertionResult15failure_messageEv
FN:389,_ZN7testing4Test13SetUpTestCaseEv
FN:397,_ZN7testing4Test16TearDownTestCaseEv
FN:474,_ZN7testing4Test5SetupEv
FN:1375,_ZN7testing8internal18CmpHelperEQFailureINSt3__16vectorINS2_5tupleIJiiEEENS2_9allocatorIS5_EEEES8_EENS_15AssertionResultEPKcSB_RKT_RKT0_
FN:1387,_ZN7testing8internal11CmpHelperEQINSt3__16vectorINS2_5tupleIJiiEEENS2_9allocatorIS5_EEEES8_EENS_15AssertionResultEPKcSB_RKT_RKT0_
FN:1417,_ZN7testing8internal8EqHelperILb0EE7CompareINSt3__16vectorINS4_5tupleIJiiEEENS4_9allocatorIS7_EEEESA_EENS_15AssertionResultEPKcSD_RKT_RKT0_
FNDA:0,_ZN7testing15AssertionResultD1Ev
FNDA:0,_ZN7testing15AssertionResultD2Ev
FNDA:0,_ZNK7testing15AssertionResultcvbEv
FNDA:1,_ZNK7testing15AssertionResult7messageEv
FNDA:0,_ZNK7testing15AssertionResult15failure_messageEv
FNDA:0,_ZN7testing4Test13SetUpTestCaseEv
FNDA:0,_ZN7testing4Test16TearDownTestCaseEv
FNDA:0,_ZN7testing4Test5SetupEv
FNDA:0,_ZN7testing8internal18CmpHelperEQFailureINSt3__16vectorINS2_5tupleIJiiEEENS2_9allocatorIS5_EEEES8_EENS_15AssertionResultEPKcSB_RKT_RKT0_
FNDA:10,_ZN7testing8internal11CmpHelperEQINSt3__16vectorINS2_5tupleIJiiEEENS2_9allocatorIS5_EEEES8_EENS_15AssertionResultEPKcSB_RKT_RKT0_
FNDA:10,_ZN7testing8internal8EqHelperILb0EE7CompareINSt3__16vectorINS4_5tupleIJiiEEENS4_9allocatorIS7_EEEESA_EENS_15AssertionResultEPKcSD_RKT_RKT0_
FNF:11
FNH:3
DA:256,0
DA:288,0
DA:298,3
DA:302,0
DA:389,0
DA:397,0
DA:474,0
DA:1378,0
DA:1379,0
DA:1380,0
DA:1381,0
DA:1383,0
DA:1392,10
DA:1393,10
DA:1397,0
DA:1398,10
DA:1421,10
LF:17
LH:5
end_of_record
SF:/Users/vpomsztein/Documents/PrivateRepositories/Algoritmos1/TPI/juegoDeLaVida/lib/googletest-master/googletest/include/gtest/internal/gtest-internal.h
FN:466,_ZN7testing8internal15TestFactoryBaseD0Ev
FN:466,_ZN7testing8internal15TestFactoryBaseD2Ev
FN:466,_ZN7testing8internal15TestFactoryBaseD1Ev
FN:473,_ZN7testing8internal15TestFactoryBaseC2Ev
FN:482,_ZN7testing8internal15TestFactoryImplI53posicionesVivasTEST_toroideTodoPosicionesMuertas_TestEC2Ev
FN:482,_ZN7testing8internal15TestFactoryImplI37posicionesVivasTEST_toroideVacio_TestED1Ev
FN:482,_ZN7testing8internal15TestFactoryImplI32posicionesVivasTEST_unaFila_TestEC2Ev
FN:482,_ZN7testing8internal15TestFactoryImplI53posicionesVivasTEST_toroideTodoPosicionesMuertas_TestED1Ev
FN:482,_ZN7testing8internal15TestFactoryImplI51posicionesVivasTEST_toroideTodoPosicionesVivas_TestED2Ev
FN:482,_ZN7testing8internal15TestFactoryImplI45posicionesVivasTEST_toroideDiagonalVivas_TestED2Ev
FN:482,_ZN7testing8internal15TestFactoryImplI51posicionesVivasTEST_toroideTodoPosicionesVivas_TestEC1Ev
FN:482,_ZN7testing8internal15TestFactoryImplI45posicionesVivasTEST_toroideDiagonalVivas_TestED1Ev
FN:482,_ZN7testing8internal15TestFactoryImplI32posicionesVivasTEST_unaFila_TestED2Ev
FN:482,_ZN7testing8internal15TestFactoryImplI32posicionesVivasTEST_unaFila_TestED1Ev
FN:482,_ZN7testing8internal15TestFactoryImplI37posicionesVivasTEST_toroideVacio_TestEC1Ev
FN:482,_ZN7testing8internal15TestFactoryImplI51posicionesVivasTEST_toroideTodoPosicionesVivas_TestED1Ev
FN:482,_ZN7testing8internal15TestFactoryImplI53posicionesVivasTEST_toroideTodoPosicionesMuertas_TestED2Ev
FN:482,_ZN7testing8internal15TestFactoryImplI53posicionesVivasTEST_toroideTodoPosicionesMuertas_TestEC1Ev
FN:482,_ZN7testing8internal15TestFactoryImplI45posicionesVivasTEST_toroideDiagonalVivas_TestED0Ev
FN:482,_ZN7testing8internal15TestFactoryImplI37posicionesVivasTEST_toroideVacio_TestEC2Ev
FN:482,_ZN7testing8internal15TestFactoryImplI45posicionesVivasTEST_toroideDiagonalVivas_TestEC1Ev
FN:482,_ZN7testing8internal15TestFactoryImplI32posicionesVivasTEST_unaFila_TestEC1Ev
FN:482,_ZN7testing8internal15TestFactoryImplI45posicionesVivasTEST_toroideDiagonalVivas_TestEC2Ev
FN:482,_ZN7testing8internal15TestFactoryImplI53posicionesVivasTEST_toroideTodoPosicionesMuertas_TestED0Ev
FN:482,_ZN7testing8internal15TestFactoryImplI51posicionesVivasTEST_toroideTodoPosicionesVivas_TestEC2Ev
FN:482,_ZN7testing8internal15TestFactoryImplI32posicionesVivasTEST_unaFila_TestED0Ev
FN:482,_ZN7testing8internal15TestFactoryImplI51posicionesVivasTEST_toroideTodoPosicionesVivas_TestED0Ev
FN:482,_ZN7testing8internal15TestFactoryImplI37posicionesVivasTEST_toroideVacio_TestED0Ev
FN:482,_ZN7testing8internal15TestFactoryImplI37posicionesVivasTEST_toroideVacio_TestED2Ev
FN:484,_ZN7testing8internal15TestFactoryImplI45posicionesVivasTEST_toroideDiagonalVivas_TestE10CreateTestEv
FN:484,_ZN7testing8internal15TestFactoryImplI51posicionesVivasTEST_toroideTodoPosicionesVivas_TestE10CreateTestEv
FN:484,_ZN7testing8internal15TestFactoryImplI32posicionesVivasTEST_unaFila_TestE10CreateTestEv
FN:484,_ZN7testing8internal15TestFactoryImplI37posicionesVivasTEST_toroideVacio_TestE10CreateTestEv
FN:484,_ZN7testing8internal15TestFactoryImplI53posicionesVivasTEST_toroideTodoPosicionesMuertas_TestE10CreateTestEv
FN:504,_ZN7testing8internal12CodeLocationD1Ev
FN:504,_ZN7testing8internal12CodeLocationD2Ev
FN:505,_ZN7testing8internal12CodeLocationC2ERKNSt3__112basic_stringIcNS2_11char_traitsIcEENS2_9allocatorIcEEEEi
FN:505,_ZN7testing8internal12CodeLocationC1ERKNSt3__112basic_stringIcNS2_11char_traitsIcEENS2_9allocatorIcEEEEi
FNDA:0,_ZN7testing8internal15TestFactoryBaseD1Ev
FNDA:0,_ZN7testing8internal15TestFactoryBaseD0Ev
FNDA:0,_ZN7testing8internal15TestFactoryBaseD2Ev
FNDA:0,_ZN7testing8internal15TestFactoryBaseC2Ev
FNDA:4,_ZN7testing8internal15TestFactoryImplI37posicionesVivasTEST_toroideVacio_TestEC1Ev
FNDA:4,_ZN7testing8internal15TestFactoryImplI53posicionesVivasTEST_toroideTodoPosicionesMuertas_TestEC1Ev
FNDA:4,_ZN7testing8internal15TestFactoryImplI45posicionesVivasTEST_toroideDiagonalVivas_TestEC1Ev
FNDA:4,_ZN7testing8internal15TestFactoryImplI51posicionesVivasTEST_toroideTodoPosicionesVivas_TestEC1Ev
FNDA:4,_ZN7testing8internal15TestFactoryImplI32posicionesVivasTEST_unaFila_TestEC1Ev
FNDA:4,_ZN7testing8internal15TestFactoryImplI37posicionesVivasTEST_toroideVacio_TestEC2Ev
FNDA:4,_ZN7testing8internal15TestFactoryImplI37posicionesVivasTEST_toroideVacio_TestED1Ev
FNDA:4,_ZN7testing8internal15TestFactoryImplI37posicionesVivasTEST_toroideVacio_TestED0Ev
FNDA:4,_ZN7testing8internal15TestFactoryImplI37posicionesVivasTEST_toroideVacio_TestED2Ev
FNDA:4,_ZN7testing8internal15TestFactoryImplI53posicionesVivasTEST_toroideTodoPosicionesMuertas_TestEC2Ev
FNDA:4,_ZN7testing8internal15TestFactoryImplI53posicionesVivasTEST_toroideTodoPosicionesMuertas_TestED1Ev
FNDA:4,_ZN7testing8internal15TestFactoryImplI53posicionesVivasTEST_toroideTodoPosicionesMuertas_TestED0Ev
FNDA:4,_ZN7testing8internal15TestFactoryImplI53posicionesVivasTEST_toroideTodoPosicionesMuertas_TestED2Ev
FNDA:4,_ZN7testing8internal15TestFactoryImplI45posicionesVivasTEST_toroideDiagonalVivas_TestEC2Ev
FNDA:4,_ZN7testing8internal15TestFactoryImplI45posicionesVivasTEST_toroideDiagonalVivas_TestED1Ev
FNDA:4,_ZN7testing8internal15TestFactoryImplI45posicionesVivasTEST_toroideDiagonalVivas_TestED0Ev
FNDA:4,_ZN7testing8internal15TestFactoryImplI45posicionesVivasTEST_toroideDiagonalVivas_TestED2Ev
FNDA:4,_ZN7testing8internal15TestFactoryImplI51posicionesVivasTEST_toroideTodoPosicionesVivas_TestEC2Ev
FNDA:4,_ZN7testing8internal15TestFactoryImplI51posicionesVivasTEST_toroideTodoPosicionesVivas_TestED1Ev
FNDA:4,_ZN7testing8internal15TestFactoryImplI51posicionesVivasTEST_toroideTodoPosicionesVivas_TestED0Ev
FNDA:4,_ZN7testing8internal15TestFactoryImplI51posicionesVivasTEST_toroideTodoPosicionesVivas_TestED2Ev
FNDA:4,_ZN7testing8internal15TestFactoryImplI32posicionesVivasTEST_unaFila_TestEC2Ev
FNDA:4,_ZN7testing8internal15TestFactoryImplI32posicionesVivasTEST_unaFila_TestED1Ev
FNDA:4,_ZN7testing8internal15TestFactoryImplI32posicionesVivasTEST_unaFila_TestED0Ev
FNDA:4,_ZN7testing8internal15TestFactoryImplI32posicionesVivasTEST_unaFila_TestED2Ev
FNDA:2,_ZN7testing8internal15TestFactoryImplI37posicionesVivasTEST_toroideVacio_TestE10CreateTestEv
FNDA:2,_ZN7testing8internal15TestFactoryImplI53posicionesVivasTEST_toroideTodoPosicionesMuertas_TestE10CreateTestEv
FNDA:2,_ZN7testing8internal15TestFactoryImplI45posicionesVivasTEST_toroideDiagonalVivas_TestE10CreateTestEv
FNDA:2,_ZN7testing8internal15TestFactoryImplI51posicionesVivasTEST_toroideTodoPosicionesVivas_TestE10CreateTestEv
FNDA:2,_ZN7testing8internal15TestFactoryImplI32posicionesVivasTEST_unaFila_TestE10CreateTestEv
FNDA:0,_ZN7testing8internal12CodeLocationD1Ev
FNDA:0,_ZN7testing8internal12CodeLocationD2Ev
FNDA:0,_ZN7testing8internal12CodeLocationC1ERKNSt3__112basic_stringIcNS2_11char_traitsIcEENS2_9allocatorIcEEEEi
FNDA:0,_ZN7testing8internal12CodeLocationC2ERKNSt3__112basic_stringIcNS2_11char_traitsIcEENS2_9allocatorIcEEEEi
FNF:38
FNH:30
DA:466,0
DA:473,0
DA:482,100
DA:484,20
DA:504,0
DA:506,0
LF:6
LH:2
end_of_record
SF:/Users/vpomsztein/Documents/PrivateRepositories/Algoritmos1/TPI/juegoDeLaVida/lib/googletest-master/googletest/include/gtest/internal/gtest-port.h
FN:1157,_ZN7testing8internal10scoped_ptrINSt3__112basic_stringIcNS2_11char_traitsIcEENS2_9allocatorIcEEEEED1Ev
FN:1157,_ZN7testing8internal10scoped_ptrINSt3__118basic_stringstreamIcNS2_11char_traitsIcEENS2_9allocatorIcEEEEED2Ev
FN:1157,_ZN7testing8internal10scoped_ptrINSt3__118basic_stringstreamIcNS2_11char_traitsIcEENS2_9allocatorIcEEEEED1Ev
FN:1157,_ZN7testing8internal10scoped_ptrINSt3__112basic_stringIcNS2_11char_traitsIcEENS2_9allocatorIcEEEEED2Ev
FN:1160,_ZNK7testing8internal10scoped_ptrINSt3__112basic_stringIcNS2_11char_traitsIcEENS2_9allocatorIcEEEEEptEv
FN:1161,_ZNK7testing8internal10scoped_ptrINSt3__112basic_stringIcNS2_11char_traitsIcEENS2_9allocatorIcEEEEE3getEv
FN:1169,_ZN7testing8internal10scoped_ptrINSt3__112basic_stringIcNS2_11char_traitsIcEENS2_9allocatorIcEEEEE5resetEPS8_
FN:1169,_ZN7testing8internal10scoped_ptrINSt3__118basic_stringstreamIcNS2_11char_traitsIcEENS2_9allocatorIcEEEEE5resetEPS8_
FNDA:0,_ZN7testing8internal10scoped_ptrINSt3__118basic_stringstreamIcNS2_11char_traitsIcEENS2_9allocatorIcEEEEED1Ev
FNDA:0,_ZN7testing8internal10scoped_ptrINSt3__118basic_stringstreamIcNS2_11char_traitsIcEENS2_9allocatorIcEEEEED2Ev
FNDA:0,_ZN7testing8internal10scoped_ptrINSt3__112basic_stringIcNS2_11char_traitsIcEENS2_9allocatorIcEEEEED1Ev
FNDA:0,_ZN7testing8internal10scoped_ptrINSt3__112basic_stringIcNS2_11char_traitsIcEENS2_9allocatorIcEEEEED2Ev
FNDA:0,_ZNK7testing8internal10scoped_ptrINSt3__112basic_stringIcNS2_11char_traitsIcEENS2_9allocatorIcEEEEEptEv
FNDA:1,_ZNK7testing8internal10scoped_ptrINSt3__112basic_stringIcNS2_11char_traitsIcEENS2_9allocatorIcEEEEE3getEv
FNDA:0,_ZN7testing8internal10scoped_ptrINSt3__118basic_stringstreamIcNS2_11char_traitsIcEENS2_9allocatorIcEEEEE5resetEPS8_
FNDA:0,_ZN7testing8internal10scoped_ptrINSt3__112basic_stringIcNS2_11char_traitsIcEENS2_9allocatorIcEEEEE5resetEPS8_
FNF:8
FNH:1
DA:1157,0
DA:1160,0
DA:1161,1
DA:1170,0
DA:1171,0
DA:1172,0
DA:1173,0
DA:1174,0
DA:1175,0
DA:1176,0
LF:10
LH:1
end_of_record
SF:/Users/vpomsztein/Documents/PrivateRepositories/Algoritmos1/TPI/juegoDeLaVida/tests/posicionesVivasTEST.cpp
FN:6,_Z7ordenarRNSt3__16vectorINS_5tupleIJiiEEENS_9allocatorIS2_EEEE
FN:11,_ZN37posicionesVivasTEST_toroideVacio_TestC1Ev
FN:11,_ZN37posicionesVivasTEST_toroideVacio_TestD0Ev
FN:11,_ZN37posicionesVivasTEST_toroideVacio_TestC2Ev
FN:11,__cxx_global_var_init
FN:11,_ZN37posicionesVivasTEST_toroideVacio_TestD1Ev
FN:11,_ZN37posicionesVivasTEST_toroideVacio_Test8TestBodyEv
FN:11,_ZN37posicionesVivasTEST_toroideVacio_TestD2Ev
FN:18,_ZN53posicionesVivasTEST_toroideTodoPosicionesMuertas_Test8TestBodyEv
FN:18,__cxx_global_var_init.5
FN:18,_ZN53posicionesVivasTEST_toroideTodoPosicionesMuertas_TestC1Ev
FN:18,_ZN53posicionesVivasTEST_toroideTodoPosicionesMuertas_TestD2Ev
FN:18,_ZN53posicionesVivasTEST_toroideTodoPosicionesMuertas_TestC2Ev
FN:18,_ZN53posicionesVivasTEST_toroideTodoPosicionesMuertas_TestD1Ev
FN:18,_ZN53posicionesVivasTEST_toroideTodoPosicionesMuertas_TestD0Ev
FN:26,_Z2mtii
FN:29,_ZN45posicionesVivasTEST_toroideDiagonalVivas_TestD1Ev
FN:29,_ZN45posicionesVivasTEST_toroideDiagonalVivas_TestC1Ev
FN:29,_ZN45posicionesVivasTEST_toroideDiagonalVivas_TestD0Ev
FN:29,_ZN45posicionesVivasTEST_toroideDiagonalVivas_Test8TestBodyEv
FN:29,__cxx_global_var_init.7
FN:29,_ZN45posicionesVivasTEST_toroideDiagonalVivas_TestD2Ev
FN:29,_ZN45posicionesVivasTEST_toroideDiagonalVivas_TestC2Ev
FN:42,__cxx_global_var_init.17
FN:42,_ZN51posicionesVivasTEST_toroideTodoPosicionesVivas_TestC1Ev
FN:42,_ZN51posicionesVivasTEST_toroideTodoPosicionesVivas_TestD1Ev
FN:42,_ZN51posicionesVivasTEST_toroideTodoPosicionesVivas_TestC2Ev
FN:42,_ZN51posicionesVivasTEST_toroideTodoPosicionesVivas_TestD2Ev
FN:42,_ZN51posicionesVivasTEST_toroideTodoPosicionesVivas_TestD0Ev
FN:42,_ZN51posicionesVivasTEST_toroideTodoPosicionesVivas_Test8TestBodyEv
FN:58,_ZN32posicionesVivasTEST_unaFila_TestC1Ev
FN:58,_ZN32posicionesVivasTEST_unaFila_TestC2Ev
FN:58,_ZN32posicionesVivasTEST_unaFila_Test8TestBodyEv
FN:58,_ZN32posicionesVivasTEST_unaFila_TestD0Ev
FN:58,_ZN32posicionesVivasTEST_unaFila_TestD1Ev
FN:58,__cxx_global_var_init.20
FN:58,_ZN32posicionesVivasTEST_unaFila_TestD2Ev
FNDA:12,_Z7ordenarRNSt3__16vectorINS_5tupleIJiiEEENS_9allocatorIS2_EEEE
FNDA:4,__cxx_global_var_init
FNDA:2,_ZN37posicionesVivasTEST_toroideVacio_Test8TestBodyEv
FNDA:2,_ZN37posicionesVivasTEST_toroideVacio_TestD1Ev
FNDA:2,_ZN37posicionesVivasTEST_toroideVacio_TestD0Ev
FNDA:2,_ZN37posicionesVivasTEST_toroideVacio_TestC1Ev
FNDA:2,_ZN37posicionesVivasTEST_toroideVacio_TestC2Ev
FNDA:2,_ZN37posicionesVivasTEST_toroideVacio_TestD2Ev
FNDA:4,__cxx_global_var_init.5
FNDA:2,_ZN53posicionesVivasTEST_toroideTodoPosicionesMuertas_Test8TestBodyEv
FNDA:2,_ZN53posicionesVivasTEST_toroideTodoPosicionesMuertas_TestD1Ev
FNDA:2,_ZN53posicionesVivasTEST_toroideTodoPosicionesMuertas_TestD0Ev
FNDA:2,_ZN53posicionesVivasTEST_toroideTodoPosicionesMuertas_TestC1Ev
FNDA:2,_ZN53posicionesVivasTEST_toroideTodoPosicionesMuertas_TestC2Ev
FNDA:2,_ZN53posicionesVivasTEST_toroideTodoPosicionesMuertas_TestD2Ev
FNDA:40,_Z2mtii
FNDA:4,__cxx_global_var_init.7
FNDA:2,_ZN45posicionesVivasTEST_toroideDiagonalVivas_Test8TestBodyEv
FNDA:2,_ZN45posicionesVivasTEST_toroideDiagonalVivas_TestD1Ev
FNDA:2,_ZN45posicionesVivasTEST_toroideDiagonalVivas_TestD0Ev
FNDA:2,_ZN45posicionesVivasTEST_toroideDiagonalVivas_TestC1Ev
FNDA:2,_ZN45posicionesVivasTEST_toroideDiagonalVivas_TestC2Ev
FNDA:2,_ZN45posicionesVivasTEST_toroideDiagonalVivas_TestD2Ev
FNDA:4,__cxx_global_var_init.17
FNDA:2,_ZN51posicionesVivasTEST_toroideTodoPosicionesVivas_Test8TestBodyEv
FNDA:2,_ZN51posicionesVivasTEST_toroideTodoPosicionesVivas_TestD1Ev
FNDA:2,_ZN51posicionesVivasTEST_toroideTodoPosicionesVivas_TestD0Ev
FNDA:2,_ZN51posicionesVivasTEST_toroideTodoPosicionesVivas_TestC1Ev
FNDA:2,_ZN51posicionesVivasTEST_toroideTodoPosicionesVivas_TestC2Ev
FNDA:2,_ZN51posicionesVivasTEST_toroideTodoPosicionesVivas_TestD2Ev
FNDA:4,__cxx_global_var_init.20
FNDA:2,_ZN32posicionesVivasTEST_unaFila_Test8TestBodyEv
FNDA:2,_ZN32posicionesVivasTEST_unaFila_TestD1Ev
FNDA:2,_ZN32posicionesVivasTEST_unaFila_TestD0Ev
FNDA:2,_ZN32posicionesVivasTEST_unaFila_TestC1Ev
FNDA:2,_ZN32posicionesVivasTEST_unaFila_TestC2Ev
FNDA:2,_ZN32posicionesVivasTEST_unaFila_TestD2Ev
FNF:37
FNH:37
DA:7,12
DA:8,12
DA:11,38
DA:12,6
DA:13,2
DA:14,6
DA:15,10
DA:16,2
DA:18,38
DA:19,2
DA:20,32
DA:21,2
DA:22,6
DA:23,10
DA:24,2
DA:27,40
DA:29,38
DA:30,28
DA:31,2
DA:32,2
DA:33,2
DA:34,2
DA:35,2
DA:36,2
DA:38,14
DA:39,6
DA:40,14
DA:41,2
DA:42,38
DA:43,2
DA:44,20
DA:45,2
DA:46,2
DA:47,2
DA:48,2
DA:50,26
DA:51,12
DA:52,12
DA:53,12
DA:54,12
DA:55,6
DA:56,14
DA:57,2
DA:58,38
DA:59,8
DA:60,2
DA:62,6
DA:63,6
DA:64,14
DA:65,2
LF:50
LH:50
end_of_record
TN:
SF:/Applications/Xcode.app/Contents/Developer/Toolchains/XcodeDefault.xctoolchain/usr/include/c++/v1/__bit_reference
FN:56,_ZNSt3__115__bit_referenceINS_6vectorIbNS_9allocatorIbEEEELb1EEaSEb
FN:74,_ZNSt3__115__bit_referenceINS_6vectorIbNS_9allocatorIbEEEELb1EEC1EPmm
FN:74,_ZNSt3__115__bit_referenceINS_6vectorIbNS_9allocatorIbEEEELb1EEC2EPmm
FN:404,_ZNSt3__114__copy_alignedINS_6vectorIbNS_9allocatorIbEEEELb1EEENS_14__bit_iteratorIT_Lb0EXLi0EEEENS5_IS6_XT0_EXLi0EEEES8_S7_
FN:453,_ZNSt3__116__copy_unalignedINS_6vectorIbNS_9allocatorIbEEEELb1EEENS_14__bit_iteratorIT_Lb0EXLi0EEEENS5_IS6_XT0_EXLi0EEEES8_S7_
FN:532,_ZNSt3__14copyINS_6vectorIbNS_9allocatorIbEEEELb1EEENS_14__bit_iteratorIT_Lb0EXLi0EEEENS5_IS6_XT0_EXLi0EEEES8_S7_
FN:1112,_ZNSt3__114__bit_iteratorINS_6vectorIbNS_9allocatorIbEEEELb0ELm0EEC2ERKS5_
FN:1112,_ZNSt3__114__bit_iteratorINS_6vectorIbNS_9allocatorIbEEEELb0ELm0EEC1ERKS5_
FN:1115,_ZNKSt3__114__bit_iteratorINS_6vectorIbNS_9allocatorIbEEEELb0ELm0EEdeEv
FN:1118,_ZNSt3__114__bit_iteratorINS_6vectorIbNS_9allocatorIbEEEELb0ELm0EEppEv
FN:1191,_ZNSt3__1miERKNS_14__bit_iteratorINS_6vectorIbNS_9allocatorIbEEEELb1ELm0EEES7_
FN:1216,_ZNSt3__114__bit_iteratorINS_6vectorIbNS_9allocatorIbEEEELb0ELm0EEC1EPmj
FN:1216,_ZNSt3__114__bit_iteratorINS_6vectorIbNS_9allocatorIbEEEELb0ELm0EEC2EPmj
FN:1216,_ZNSt3__114__bit_iteratorINS_6vectorIbNS_9allocatorIbEEEELb1ELm0EEC2EPKmj
FN:1216,_ZNSt3__114__bit_iteratorINS_6vectorIbNS_9allocatorIbEEEELb1ELm0EEC1EPKmj
FNDA:0,_ZNSt3__115__bit_referenceINS_6vectorIbNS_9allocatorIbEEEELb1EEaSEb
FNDA:0,_ZNSt3__115__bit_referenceINS_6vectorIbNS_9allocatorIbEEEELb1EEC1EPmm
FNDA:0,_ZNSt3__115__bit_referenceINS_6vectorIbNS_9allocatorIbEEEELb1EEC2EPmm
FNDA:0,_ZNSt3__114__copy_alignedINS_6vectorIbNS_9allocatorIbEEEELb1EEENS_14__bit_iteratorIT_Lb0EXLi0EEEENS5_IS6_XT0_EXLi0EEEES8_S7_
FNDA:0,_ZNSt3__116__copy_unalignedINS_6vectorIbNS_9allocatorIbEEEELb1EEENS_14__bit_iteratorIT_Lb0EXLi0EEEENS5_IS6_XT0_EXLi0EEEES8_S7_
FNDA:0,_ZNSt3__14copyINS_6vectorIbNS_9allocatorIbEEEELb1EEENS_14__bit_iteratorIT_Lb0EXLi0EEEENS5_IS6_XT0_EXLi0EEEES8_S7_
FNDA:0,_ZNSt3__114__bit_iteratorINS_6vectorIbNS_9allocatorIbEEEELb0ELm0EEC1ERKS5_
FNDA:0,_ZNSt3__114__bit_iteratorINS_6vectorIbNS_9allocatorIbEEEELb0ELm0EEC2ERKS5_
FNDA:0,_ZNKSt3__114__bit_iteratorINS_6vectorIbNS_9allocatorIbEEEELb0ELm0EEdeEv
FNDA:0,_ZNSt3__114__bit_iteratorINS_6vectorIbNS_9allocatorIbEEEELb0ELm0EEppEv
FNDA:0,_ZNSt3__1miERKNS_14__bit_iteratorINS_6vectorIbNS_9allocatorIbEEEELb1ELm0EEES7_
FNDA:0,_ZNSt3__114__bit_iteratorINS_6vectorIbNS_9allocatorIbEEEELb0ELm0EEC1EPmj
FNDA:0,_ZNSt3__114__bit_iteratorINS_6vectorIbNS_9allocatorIbEEEELb0ELm0EEC2EPmj
FNDA:0,_ZNSt3__114__bit_iteratorINS_6vectorIbNS_9allocatorIbEEEELb1ELm0EEC1EPKmj
FNDA:0,_ZNSt3__114__bit_iteratorINS_6vectorIbNS_9allocatorIbEEEELb1ELm0EEC2EPKmj
FNF:15
FNH:0
DA:58,0
DA:59,0
DA:61,0
DA:62,0
DA:75,0
DA:410,0
DA:411,0
DA:412,0
DA:415,0
DA:417,0
DA:418,0
DA:419,0
DA:420,0
DA:421,0
DA:422,0
DA:423,0
DA:424,0
DA:425,0
DA:426,0
DA:428,0
DA:431,0
DA:432,0
DA:433,0
DA:434,0
DA:435,0
DA:436,0
DA:438,0
DA:440,0
DA:441,0
DA:442,0
DA:443,0
DA:444,0
DA:445,0
DA:446,0
DA:447,0
DA:448,0
DA:460,0
DA:461,0
DA:464,0
DA:466,0
DA:467,0
DA:468,0
DA:469,0
DA:470,0
DA:471,0
DA:472,0
DA:473,0
DA:474,0
DA:475,0
DA:476,0
DA:478,0
DA:479,0
DA:480,0
DA:481,0
DA:482,0
DA:484,0
DA:485,0
DA:486,0
DA:487,0
DA:488,0
DA:489,0
DA:491,0
DA:494,0
DA:495,0
DA:496,0
DA:498,0
DA:499,0
DA:500,0
DA:501,0
DA:502,0
DA:503,0
DA:504,0
DA:506,0
DA:508,0
DA:509,0
DA:510,0
DA:511,0
DA:512,0
DA:513,0
DA:514,0
DA:515,0
DA:516,0
DA:517,0
DA:519,0
DA:520,0
DA:521,0
DA:522,0
DA:523,0
DA:524,0
DA:525,0
DA:526,0
DA:534,0
DA:535,0
DA:536,0
DA:537,0
DA:1113,0
DA:1116,0
DA:1120,0
DA:1121,0
DA:1124,0
DA:1125,0
DA:1127,0
DA:1192,0
DA:1217,0
LF:104
LH:0
end_of_record
SF:/Applications/Xcode.app/Contents/Developer/Toolchains/XcodeDefault.xctoolchain/usr/include/c++/v1/__string
FN:217,_ZNSt3__111char_traitsIcE6lengthEPKc
FNDA:0,_ZNSt3__111char_traitsIcE6lengthEPKc
FNF:1
FNH:0
DA:217,0
LF:1
LH:0
end_of_record
SF:/Applications/Xcode.app/Contents/Developer/Toolchains/XcodeDefault.xctoolchain/usr/include/c++/v1/algorithm
FN:719,_ZNKSt3__16__lessIllEclERKlS3_
FN:719,_ZNKSt3__16__lessImmEclERKmS3_
FN:1759,_ZNSt3__113__unwrap_iterINS_14__bit_iteratorINS_6vectorIbNS_9allocatorIbEEEELb0ELm0EEEEET_S7_
FN:1759,_ZNSt3__113__unwrap_iterIPKbEET_S3_
FN:1809,_ZNSt3__16__copyIPKbNS_14__bit_iteratorINS_6vectorIbNS_9allocatorIbEEEELb0ELm0EEEEET0_T_SA_S9_
FN:1835,_ZNSt3__14copyIPKbNS_14__bit_iteratorINS_6vectorIbNS_9allocatorIbEEEELb0ELm0EEEEET0_T_SA_S9_
FN:2644,_ZNSt3__13minImNS_6__lessImmEEEERKT_S5_S5_T0_
FN:2644,_ZNSt3__13minIlNS_6__lessIllEEEERKT_S5_S5_T0_
FN:2652,_ZNSt3__13minImEERKT_S3_S3_
FN:2652,_ZNSt3__13minIlEERKT_S3_S3_
FNDA:0,_ZNKSt3__16__lessImmEclERKmS3_
FNDA:0,_ZNKSt3__16__lessIllEclERKlS3_
FNDA:0,_ZNSt3__113__unwrap_iterIPKbEET_S3_
FNDA:0,_ZNSt3__113__unwrap_iterINS_14__bit_iteratorINS_6vectorIbNS_9allocatorIbEEEELb0ELm0EEEEET_S7_
FNDA:0,_ZNSt3__16__copyIPKbNS_14__bit_iteratorINS_6vectorIbNS_9allocatorIbEEEELb0ELm0EEEEET0_T_SA_S9_
FNDA:0,_ZNSt3__14copyIPKbNS_14__bit_iteratorINS_6vectorIbNS_9allocatorIbEEEELb0ELm0EEEEET0_T_SA_S9_
FNDA:0,_ZNSt3__13minImNS_6__lessImmEEEERKT_S5_S5_T0_
FNDA:0,_ZNSt3__13minIlNS_6__lessIllEEEERKT_S5_S5_T0_
FNDA:0,_ZNSt3__13minImEERKT_S3_S3_
FNDA:0,_ZNSt3__13minIlEERKT_S3_S3_
FNF:10
FNH:0
DA:719,0
DA:1761,0
DA:1811,0
DA:1812,0
DA:1813,0
DA:1837,0
DA:2646,0
DA:2654,0
LF:8
LH:0
end_of_record
SF:/Applications/Xcode.app/Contents/Developer/Toolchains/XcodeDefault.xctoolchain/usr/include/c++/v1/initializer_list
FN:85,_ZNKSt16initializer_listIbE4sizeEv
FN:85,_ZNKSt16initializer_listINSt3__16vectorIbNS0_9allocatorIbEEEEE4sizeEv
FN:89,_ZNKSt16initializer_listIbE5beginEv
FN:89,_ZNKSt16initializer_listINSt3__16vectorIbNS0_9allocatorIbEEEEE5beginEv
FN:93,_ZNKSt16initializer_listINSt3__16vectorIbNS0_9allocatorIbEEEEE3endEv
FN:93,_ZNKSt16initializer_listIbE3endEv
FNDA:36,_ZNKSt16initializer_listINSt3__16vectorIbNS0_9allocatorIbEEEEE4sizeEv
FNDA:0,_ZNKSt16initializer_listIbE4sizeEv
FNDA:12,_ZNKSt16initializer_listINSt3__16vectorIbNS0_9allocatorIbEEEEE5beginEv
FNDA:0,_ZNKSt16initializer_listIbE5beginEv
FNDA:12,_ZNKSt16initializer_listINSt3__16vectorIbNS0_9allocatorIbEEEEE3endEv
FNDA:0,_ZNKSt16initializer_listIbE3endEv
FNF:6
FNH:3
DA:85,36
DA:89,12
DA:93,12
LF:3
LH:3
end_of_record
SF:/Applications/Xcode.app/Contents/Developer/Toolchains/XcodeDefault.xctoolchain/usr/include/c++/v1/iterator
FN:592,_ZNSt3__110__distanceIPKbEENS_15iterator_traitsIT_E15difference_typeES4_S4_NS_26random_access_iterator_tagE
FN:592,_ZNSt3__110__distanceINS_14__bit_iteratorINS_6vectorIbNS_9allocatorIbEEEELb1ELm0EEEEENS_15iterator_traitsIT_E15difference_typeES8_S8_NS_26random_access_iterator_tagE
FN:600,_ZNSt3__18distanceIPKbEENS_15iterator_traitsIT_E15difference_typeES4_S4_
FN:600,_ZNSt3__18distanceINS_14__bit_iteratorINS_6vectorIbNS_9allocatorIbEEEELb1ELm0EEEEENS_15iterator_traitsIT_E15difference_typeES8_S8_
FNDA:0,_ZNSt3__110__distanceINS_14__bit_iteratorINS_6vectorIbNS_9allocatorIbEEEELb1ELm0EEEEENS_15iterator_traitsIT_E15difference_typeES8_S8_NS_26random_access_iterator_tagE
FNDA:0,_ZNSt3__110__distanceIPKbEENS_15iterator_traitsIT_E15difference_typeES4_S4_NS_26random_access_iterator_tagE
FNDA:0,_ZNSt3__18distanceINS_14__bit_iteratorINS_6vectorIbNS_9allocatorIbEEEELb1ELm0EEEEENS_15iterator_traitsIT_E15difference_typeES8_S8_
FNDA:0,_ZNSt3__18distanceIPKbEENS_15iterator_traitsIT_E15difference_typeES4_S4_
FNF:4
FNH:0
DA:594,0
DA:602,0
LF:2
LH:0
end_of_record
SF:/Applications/Xcode.app/Contents/Developer/Toolchains/XcodeDefault.xctoolchain/usr/include/c++/v1/limits
FN:213,_ZNSt3__123__libcpp_numeric_limitsIlLb1EE3maxEv
FN:213,_ZNSt3__123__libcpp_numeric_limitsImLb1EE3maxEv
FN:450,_ZNSt3__114numeric_limitsIlE3maxEv
FN:450,_ZNSt3__114numeric_limitsImE3maxEv
FNDA:0,_ZNSt3__123__libcpp_numeric_limitsIlLb1EE3maxEv
FNDA:0,_ZNSt3__123__libcpp_numeric_limitsImLb1EE3maxEv
FNDA:0,_ZNSt3__114numeric_limitsIlE3maxEv
FNDA:0,_ZNSt3__114numeric_limitsImE3maxEv
FNF:4
FNH:0
DA:213,0
DA:450,0
LF:2
LH:0
end_of_record
SF:/Applications/Xcode.app/Contents/Developer/Toolchains/XcodeDefault.xctoolchain/usr/include/c++/v1/memory
FN:977,_ZNSt3__114pointer_traitsIPKcE10pointer_toERS1_
FN:1095,_ZNSt3__116__to_raw_pointerIKmEEPT_S3_
FN:1095,_ZNSt3__116__to_raw_pointerImEEPT_S2_
FN:1095,_ZNSt3__116__to_raw_pointerINS_6vectorIbNS_9allocatorIbEEEEEEPT_S6_
FN:1095,_ZNSt3__116__to_raw_pointerIKcEEPT_S3_
FN:1501,_ZNSt3__116allocator_traitsINS_9allocatorImEEE8allocateERS2_m
FN:1501,_ZNSt3__116allocator_traitsINS_9allocatorINS_6vectorIbNS1_IbEEEEEEE8allocateERS5_m
FN:1509,_ZNSt3__116allocator_traitsINS_9allocatorImEEE10deallocateERS2_Pmm
FN:1509,_ZNSt3__116allocator_traitsINS_9allocatorINS_6vectorIbNS1_IbEEEEEEE10deallocateERS5_PS4_m
FN:1515,_ZNSt3__116allocator_traitsINS_9allocatorINS_6vectorIbNS1_IbEEEEEEE9constructIS4_JRKS4_EEEvRS5_PT_DpOT0_
FN:1515,_ZNSt3__116allocator_traitsINS_9allocatorINS_6vectorIbNS1_IbEEEEEEE9constructIS4_JRS4_EEEvRS5_PT_DpOT0_
FN:1549,_ZNSt3__116allocator_traitsINS_9allocatorINS_6vectorIbNS1_IbEEEEEEE7destroyIS4_EEvRS5_PT_
FN:1553,_ZNSt3__116allocator_traitsINS_9allocatorImEEE8max_sizeERKS2_
FN:1553,_ZNSt3__116allocator_traitsINS_9allocatorINS_6vectorIbNS1_IbEEEEEEE8max_sizeERKS5_
FN:1558,_ZNSt3__116allocator_traitsINS_9allocatorImEEE37select_on_container_copy_constructionERKS2_
FN:1558,_ZNSt3__116allocator_traitsINS_9allocatorINS_6vectorIbNS1_IbEEEEEEE37select_on_container_copy_constructionERKS5_
FN:1597,_ZNSt3__116allocator_traitsINS_9allocatorINS_6vectorIbNS1_IbEEEEEEE25__construct_range_forwardIPS4_S8_EEvRS5_T_SA_RT0_
FN:1597,_ZNSt3__116allocator_traitsINS_9allocatorINS_6vectorIbNS1_IbEEEEEEE25__construct_range_forwardIPKS4_PS4_EEvRS5_T_SC_RT0_
FN:1669,_ZNSt3__116allocator_traitsINS_9allocatorINS_6vectorIbNS1_IbEEEEEEE11__constructIS4_JRS4_EEEvNS_17integral_constantIbLb1EEERS5_PT_DpOT0_
FN:1669,_ZNSt3__116allocator_traitsINS_9allocatorINS_6vectorIbNS1_IbEEEEEEE11__constructIS4_JRKS4_EEEvNS_17integral_constantIbLb1EEERS5_PT_DpOT0_
FN:1681,_ZNSt3__116allocator_traitsINS_9allocatorINS_6vectorIbNS1_IbEEEEEEE9__destroyIS4_EEvNS_17integral_constantIbLb1EEERS5_PT_
FN:1691,_ZNSt3__116allocator_traitsINS_9allocatorImEEE10__max_sizeENS_17integral_constantIbLb1EEERKS2_
FN:1691,_ZNSt3__116allocator_traitsINS_9allocatorINS_6vectorIbNS1_IbEEEEEEE10__max_sizeENS_17integral_constantIbLb1EEERKS5_
FN:1703,_ZNSt3__116allocator_traitsINS_9allocatorINS_6vectorIbNS1_IbEEEEEEE39__select_on_container_copy_constructionENS_17integral_constantIbLb0EEERKS5_
FN:1703,_ZNSt3__116allocator_traitsINS_9allocatorImEEE39__select_on_container_copy_constructionENS_17integral_constantIbLb0EEERKS2_
FN:1736,_ZNSt3__19allocatorImEC2Ev
FN:1736,_ZNSt3__19allocatorIcEC2Ev
FN:1736,_ZNSt3__19allocatorINS_6vectorIbNS0_IbEEEEEC2Ev
FN:1742,_ZNSt3__19allocatorImE8allocateEmPKv
FN:1742,_ZNSt3__19allocatorINS_6vectorIbNS0_IbEEEEE8allocateEmPKv
FN:1749,_ZNSt3__19allocatorImE10deallocateEPmm
FN:1749,_ZNSt3__19allocatorINS_6vectorIbNS0_IbEEEEE10deallocateEPS3_m
FN:1751,_ZNKSt3__19allocatorImE8max_sizeEv
FN:1751,_ZNKSt3__19allocatorINS_6vectorIbNS0_IbEEEEE8max_sizeEv
FN:1757,_ZNSt3__19allocatorINS_6vectorIbNS0_IbEEEEE9constructIS3_JRS3_EEEvPT_DpOT0_
FN:1757,_ZNSt3__19allocatorINS_6vectorIbNS0_IbEEEEE9constructIS3_JRKS3_EEEvPT_DpOT0_
FN:1814,_ZNSt3__19allocatorINS_6vectorIbNS0_IbEEEEE7destroyEPS3_
FN:2043,_ZNSt3__122__compressed_pair_elemINS_12basic_stringIcNS_11char_traitsIcEENS_9allocatorIcEEE5__repELi0ELb0EEC2Ev
FN:2050,_ZNSt3__122__compressed_pair_elemImLi0ELb0EEC2IivEEOT_
FN:2050,_ZNSt3__122__compressed_pair_elemIPNS_6vectorIbNS_9allocatorIbEEEELi0ELb0EEC2IDnvEEOT_
FN:2064,_ZNSt3__122__compressed_pair_elemImLi0ELb0EE5__getEv
FN:2064,_ZNSt3__122__compressed_pair_elemIPNS_6vectorIbNS_9allocatorIbEEEELi0ELb0EE5__getEv
FN:2066,_ZNKSt3__122__compressed_pair_elemIPNS_6vectorIbNS_9allocatorIbEEEELi0ELb0EE5__getEv
FN:2066,_ZNKSt3__122__compressed_pair_elemINS_12basic_stringIcNS_11char_traitsIcEENS_9allocatorIcEEE5__repELi0ELb0EE5__getEv
FN:2080,_ZNSt3__122__compressed_pair_elemINS_9allocatorImEELi1ELb1EEC2Ev
FN:2080,_ZNSt3__122__compressed_pair_elemINS_9allocatorINS_6vectorIbNS1_IbEEEEEELi1ELb1EEC2Ev
FN:2080,_ZNSt3__122__compressed_pair_elemINS_9allocatorIcEELi1ELb1EEC2Ev
FN:2087,_ZNSt3__122__compressed_pair_elemINS_9allocatorImEELi1ELb1EEC2IS2_vEEOT_
FN:2087,_ZNSt3__122__compressed_pair_elemINS_9allocatorINS_6vectorIbNS1_IbEEEEEELi1ELb1EEC2IRKS5_vEEOT_
FN:2102,_ZNSt3__122__compressed_pair_elemINS_9allocatorINS_6vectorIbNS1_IbEEEEEELi1ELb1EE5__getEv
FN:2102,_ZNSt3__122__compressed_pair_elemINS_9allocatorImEELi1ELb1EE5__getEv
FN:2104,_ZNKSt3__122__compressed_pair_elemINS_9allocatorINS_6vectorIbNS1_IbEEEEEELi1ELb1EE5__getEv
FN:2104,_ZNKSt3__122__compressed_pair_elemINS_9allocatorImEELi1ELb1EE5__getEv
FN:2134,_ZNSt3__117__compressed_pairINS_12basic_stringIcNS_11char_traitsIcEENS_9allocatorIcEEE5__repES5_EC1ILb1EvEEv
FN:2134,_ZNSt3__117__compressed_pairINS_12basic_stringIcNS_11char_traitsIcEENS_9allocatorIcEEE5__repES5_EC2ILb1EvEEv
FN:2140,_ZNSt3__117__compressed_pairImNS_9allocatorImEEEC1IiLb1EEEOT_
FN:2140,_ZNSt3__117__compressed_pairIPNS_6vectorIbNS_9allocatorIbEEEENS2_IS4_EEEC1IDnLb1EEEOT_
FN:2140,_ZNSt3__117__compressed_pairIPNS_6vectorIbNS_9allocatorIbEEEENS2_IS4_EEEC2IDnLb1EEEOT_
FN:2140,_ZNSt3__117__compressed_pairImNS_9allocatorImEEEC2IiLb1EEEOT_
FN:2150,_ZNSt3__117__compressed_pairImNS_9allocatorImEEEC1IiS2_EEOT_OT0_
FN:2150,_ZNSt3__117__compressed_pairIPNS_6vectorIbNS_9allocatorIbEEEENS2_IS4_EEEC1IDnRKS6_EEOT_OT0_
FN:2150,_ZNSt3__117__compressed_pairIPNS_6vectorIbNS_9allocatorIbEEEENS2_IS4_EEEC2IDnRKS6_EEOT_OT0_
FN:2150,_ZNSt3__117__compressed_pairImNS_9allocatorImEEEC2IiS2_EEOT_OT0_
FN:2179,_ZNSt3__117__compressed_pairImNS_9allocatorImEEE5firstEv
FN:2179,_ZNSt3__117__compressed_pairIPNS_6vectorIbNS_9allocatorIbEEEENS2_IS4_EEE5firstEv
FN:2184,_ZNKSt3__117__compressed_pairINS_12basic_stringIcNS_11char_traitsIcEENS_9allocatorIcEEE5__repES5_E5firstEv
FN:2184,_ZNKSt3__117__compressed_pairIPNS_6vectorIbNS_9allocatorIbEEEENS2_IS4_EEE5firstEv
FN:2189,_ZNSt3__117__compressed_pairIPNS_6vectorIbNS_9allocatorIbEEEENS2_IS4_EEE6secondEv
FN:2189,_ZNSt3__117__compressed_pairImNS_9allocatorImEEE6secondEv
FN:2194,_ZNKSt3__117__compressed_pairIPNS_6vectorIbNS_9allocatorIbEEEENS2_IS4_EEE6secondEv
FN:2194,_ZNKSt3__117__compressed_pairImNS_9allocatorImEEE6secondEv
FNDA:0,_ZNSt3__114pointer_traitsIPKcE10pointer_toERS1_
FNDA:0,_ZNSt3__116__to_raw_pointerINS_6vectorIbNS_9allocatorIbEEEEEEPT_S6_
FNDA:0,_ZNSt3__116__to_raw_pointerIKcEEPT_S3_
FNDA:0,_ZNSt3__116__to_raw_pointerImEEPT_S2_
FNDA:0,_ZNSt3__116__to_raw_pointerIKmEEPT_S3_
FNDA:0,_ZNSt3__116allocator_traitsINS_9allocatorINS_6vectorIbNS1_IbEEEEEEE8allocateERS5_m
FNDA:0,_ZNSt3__116allocator_traitsINS_9allocatorImEEE8allocateERS2_m
FNDA:0,_ZNSt3__116allocator_traitsINS_9allocatorINS_6vectorIbNS1_IbEEEEEEE10deallocateERS5_PS4_m
FNDA:0,_ZNSt3__116allocator_traitsINS_9allocatorImEEE10deallocateERS2_Pmm
FNDA:0,_ZNSt3__116allocator_traitsINS_9allocatorINS_6vectorIbNS1_IbEEEEEEE9constructIS4_JRS4_EEEvRS5_PT_DpOT0_
FNDA:0,_ZNSt3__116allocator_traitsINS_9allocatorINS_6vectorIbNS1_IbEEEEEEE9constructIS4_JRKS4_EEEvRS5_PT_DpOT0_
FNDA:0,_ZNSt3__116allocator_traitsINS_9allocatorINS_6vectorIbNS1_IbEEEEEEE7destroyIS4_EEvRS5_PT_
FNDA:0,_ZNSt3__116allocator_traitsINS_9allocatorINS_6vectorIbNS1_IbEEEEEEE8max_sizeERKS5_
FNDA:0,_ZNSt3__116allocator_traitsINS_9allocatorImEEE8max_sizeERKS2_
FNDA:0,_ZNSt3__116allocator_traitsINS_9allocatorINS_6vectorIbNS1_IbEEEEEEE37select_on_container_copy_constructionERKS5_
FNDA:0,_ZNSt3__116allocator_traitsINS_9allocatorImEEE37select_on_container_copy_constructionERKS2_
FNDA:0,_ZNSt3__116allocator_traitsINS_9allocatorINS_6vectorIbNS1_IbEEEEEEE25__construct_range_forwardIPS4_S8_EEvRS5_T_SA_RT0_
FNDA:0,_ZNSt3__116allocator_traitsINS_9allocatorINS_6vectorIbNS1_IbEEEEEEE25__construct_range_forwardIPKS4_PS4_EEvRS5_T_SC_RT0_
FNDA:0,_ZNSt3__116allocator_traitsINS_9allocatorINS_6vectorIbNS1_IbEEEEEEE11__constructIS4_JRS4_EEEvNS_17integral_constantIbLb1EEERS5_PT_DpOT0_
FNDA:0,_ZNSt3__116allocator_traitsINS_9allocatorINS_6vectorIbNS1_IbEEEEEEE11__constructIS4_JRKS4_EEEvNS_17integral_constantIbLb1EEERS5_PT_DpOT0_
FNDA:0,_ZNSt3__116allocator_traitsINS_9allocatorINS_6vectorIbNS1_IbEEEEEEE9__destroyIS4_EEvNS_17integral_constantIbLb1EEERS5_PT_
FNDA:0,_ZNSt3__116allocator_traitsINS_9allocatorINS_6vectorIbNS1_IbEEEEEEE10__max_sizeENS_17integral_constantIbLb1EEERKS5_
FNDA:0,_ZNSt3__116allocator_traitsINS_9allocatorImEEE10__max_sizeENS_17integral_constantIbLb1EEERKS2_
FNDA:0,_ZNSt3__116allocator_traitsINS_9allocatorINS_6vectorIbNS1_IbEEEEEEE39__select_on_container_copy_constructionENS_17integral_constantIbLb0EEERKS5_
FNDA:0,_ZNSt3__116allocator_traitsINS_9allocatorImEEE39__select_on_container_copy_constructionENS_17integral_constantIbLb0EEERKS2_
FNDA:28,_ZNSt3__19allocatorIcEC2Ev
FNDA:14,_ZNSt3__19allocatorINS_6vectorIbNS0_IbEEEEEC2Ev
FNDA:6,_ZNSt3__19allocatorImEC2Ev
FNDA:0,_ZNSt3__19allocatorINS_6vectorIbNS0_IbEEEEE8allocateEmPKv
FNDA:0,_ZNSt3__19allocatorImE8allocateEmPKv
FNDA:0,_ZNSt3__19allocatorINS_6vectorIbNS0_IbEEEEE10deallocateEPS3_m
FNDA:0,_ZNSt3__19allocatorImE10deallocateEPmm
FNDA:0,_ZNKSt3__19allocatorINS_6vectorIbNS0_IbEEEEE8max_sizeEv
FNDA:0,_ZNKSt3__19allocatorImE8max_sizeEv
FNDA:0,_ZNSt3__19allocatorINS_6vectorIbNS0_IbEEEEE9constructIS3_JRS3_EEEvPT_DpOT0_
FNDA:0,_ZNSt3__19allocatorINS_6vectorIbNS0_IbEEEEE9constructIS3_JRKS3_EEEvPT_DpOT0_
FNDA:0,_ZNSt3__19allocatorINS_6vectorIbNS0_IbEEEEE7destroyEPS3_
FNDA:28,_ZNSt3__122__compressed_pair_elemINS_12basic_stringIcNS_11char_traitsIcEENS_9allocatorIcEEE5__repELi0ELb0EEC2Ev
FNDA:14,_ZNSt3__122__compressed_pair_elemIPNS_6vectorIbNS_9allocatorIbEEEELi0ELb0EEC2IDnvEEOT_
FNDA:6,_ZNSt3__122__compressed_pair_elemImLi0ELb0EEC2IivEEOT_
FNDA:0,_ZNSt3__122__compressed_pair_elemIPNS_6vectorIbNS_9allocatorIbEEEELi0ELb0EE5__getEv
FNDA:0,_ZNSt3__122__compressed_pair_elemImLi0ELb0EE5__getEv
FNDA:0,_ZNKSt3__122__compressed_pair_elemIPNS_6vectorIbNS_9allocatorIbEEEELi0ELb0EE5__getEv
FNDA:0,_ZNKSt3__122__compressed_pair_elemINS_12basic_stringIcNS_11char_traitsIcEENS_9allocatorIcEEE5__repELi0ELb0EE5__getEv
FNDA:28,_ZNSt3__122__compressed_pair_elemINS_9allocatorIcEELi1ELb1EEC2Ev
FNDA:14,_ZNSt3__122__compressed_pair_elemINS_9allocatorINS_6vectorIbNS1_IbEEEEEELi1ELb1EEC2Ev
FNDA:6,_ZNSt3__122__compressed_pair_elemINS_9allocatorImEELi1ELb1EEC2Ev
FNDA:0,_ZNSt3__122__compressed_pair_elemINS_9allocatorINS_6vectorIbNS1_IbEEEEEELi1ELb1EEC2IRKS5_vEEOT_
FNDA:0,_ZNSt3__122__compressed_pair_elemINS_9allocatorImEELi1ELb1EEC2IS2_vEEOT_
FNDA:0,_ZNSt3__122__compressed_pair_elemINS_9allocatorINS_6vectorIbNS1_IbEEEEEELi1ELb1EE5__getEv
FNDA:0,_ZNSt3__122__compressed_pair_elemINS_9allocatorImEELi1ELb1EE5__getEv
FNDA:0,_ZNKSt3__122__compressed_pair_elemINS_9allocatorINS_6vectorIbNS1_IbEEEEEELi1ELb1EE5__getEv
FNDA:0,_ZNKSt3__122__compressed_pair_elemINS_9allocatorImEELi1ELb1EE5__getEv
FNDA:28,_ZNSt3__117__compressed_pairINS_12basic_stringIcNS_11char_traitsIcEENS_9allocatorIcEEE5__repES5_EC1ILb1EvEEv
FNDA:28,_ZNSt3__117__compressed_pairINS_12basic_stringIcNS_11char_traitsIcEENS_9allocatorIcEEE5__repES5_EC2ILb1EvEEv
FNDA:14,_ZNSt3__117__compressed_pairIPNS_6vectorIbNS_9allocatorIbEEEENS2_IS4_EEEC1IDnLb1EEEOT_
FNDA:14,_ZNSt3__117__compressed_pairIPNS_6vectorIbNS_9allocatorIbEEEENS2_IS4_EEEC2IDnLb1EEEOT_
FNDA:6,_ZNSt3__117__compressed_pairImNS_9allocatorImEEEC1IiLb1EEEOT_
FNDA:6,_ZNSt3__117__compressed_pairImNS_9allocatorImEEEC2IiLb1EEEOT_
FNDA:0,_ZNSt3__117__compressed_pairIPNS_6vectorIbNS_9allocatorIbEEEENS2_IS4_EEEC1IDnRKS6_EEOT_OT0_
FNDA:0,_ZNSt3__117__compressed_pairIPNS_6vectorIbNS_9allocatorIbEEEENS2_IS4_EEEC2IDnRKS6_EEOT_OT0_
FNDA:0,_ZNSt3__117__compressed_pairImNS_9allocatorImEEEC1IiS2_EEOT_OT0_
FNDA:0,_ZNSt3__117__compressed_pairImNS_9allocatorImEEEC2IiS2_EEOT_OT0_
FNDA:0,_ZNSt3__117__compressed_pairIPNS_6vectorIbNS_9allocatorIbEEEENS2_IS4_EEE5firstEv
FNDA:0,_ZNSt3__117__compressed_pairImNS_9allocatorImEEE5firstEv
FNDA:0,_ZNKSt3__117__compressed_pairIPNS_6vectorIbNS_9allocatorIbEEEENS2_IS4_EEE5firstEv
FNDA:0,_ZNKSt3__117__compressed_pairINS_12basic_stringIcNS_11char_traitsIcEENS_9allocatorIcEEE5__repES5_E5firstEv
FNDA:0,_ZNSt3__117__compressed_pairIPNS_6vectorIbNS_9allocatorIbEEEENS2_IS4_EEE6secondEv
FNDA:0,_ZNSt3__117__compressed_pairImNS_9allocatorImEEE6secondEv
FNDA:0,_ZNKSt3__117__compressed_pairIPNS_6vectorIbNS_9allocatorIbEEEENS2_IS4_EEE6secondEv
FNDA:0,_ZNKSt3__117__compressed_pairImNS_9allocatorImEEE6secondEv
FNF:71
FNH:15
DA:979,0
DA:1097,0
DA:1502,0
DA:1510,0
DA:1516,0
DA:1517,0
DA:1550,0
DA:1554,0
DA:1559,0
DA:1560,0
DA:1561,0
DA:1599,0
DA:1600,0
DA:1601,0
DA:1670,0
DA:1682,0
DA:1692,0
DA:1704,0
DA:1736,48
DA:1744,0
DA:1745,0
DA:1747,0
DA:1750,0
DA:1752,0
DA:1759,0
DA:1760,0
DA:1814,0
DA:2043,28
DA:2051,20
DA:2064,0
DA:2066,0
DA:2080,48
DA:2088,0
DA:2102,0
DA:2104,0
DA:2134,56
DA:2141,40
DA:2151,0
DA:2180,0
DA:2185,0
DA:2190,0
DA:2195,0
LF:42
LH:6
end_of_record
SF:/Applications/Xcode.app/Contents/Developer/Toolchains/XcodeDefault.xctoolchain/usr/include/c++/v1/new
FN:222,_ZNSt3__110__allocateEm
FN:230,_ZNSt3__119__libcpp_deallocateEPv
FNDA:0,_ZNSt3__110__allocateEm
FNDA:0,_ZNSt3__119__libcpp_deallocateEPv
FNF:2
FNH:0
DA:226,0
DA:234,0
DA:236,0
LF:3
LH:0
end_of_record
SF:/Applications/Xcode.app/Contents/Developer/Toolchains/XcodeDefault.xctoolchain/usr/include/c++/v1/stdexcept
FN:136,_ZNSt12length_errorC2EPKc
FN:136,_ZNSt12length_errorC1EPKc
FN:222,_ZNSt3__120__throw_length_errorEPKc
FNDA:0,_ZNSt12length_errorC1EPKc
FNDA:0,_ZNSt12length_errorC2EPKc
FNDA:0,_ZNSt3__120__throw_length_errorEPKc
FNF:3
FNH:0
DA:136,0
DA:225,0
DA:230,0
LF:3
LH:0
end_of_record
SF:/Applications/Xcode.app/Contents/Developer/Toolchains/XcodeDefault.xctoolchain/usr/include/c++/v1/string
FN:1127,_ZNKSt3__112basic_stringIcNS_11char_traitsIcEENS_9allocatorIcEEE5c_strEv
FN:1129,_ZNKSt3__112basic_stringIcNS_11char_traitsIcEENS_9allocatorIcEEE4dataEv
FN:1220,_ZNKSt3__112basic_stringIcNS_11char_traitsIcEENS_9allocatorIcEEE9__is_longEv
FN:1302,_ZNKSt3__112basic_stringIcNS_11char_traitsIcEENS_9allocatorIcEEE18__get_long_pointerEv
FN:1308,_ZNKSt3__112basic_stringIcNS_11char_traitsIcEENS_9allocatorIcEEE19__get_short_pointerEv
FN:1314,_ZNKSt3__112basic_stringIcNS_11char_traitsIcEENS_9allocatorIcEEE13__get_pointerEv
FN:1568,_ZNSt3__112basic_stringIcNS_11char_traitsIcEENS_9allocatorIcEEEC1EPKc
FN:1568,_ZNSt3__112basic_stringIcNS_11char_traitsIcEENS_9allocatorIcEEEC2EPKc
FNDA:0,_ZNKSt3__112basic_stringIcNS_11char_traitsIcEENS_9allocatorIcEEE5c_strEv
FNDA:0,_ZNKSt3__112basic_stringIcNS_11char_traitsIcEENS_9allocatorIcEEE4dataEv
FNDA:0,_ZNKSt3__112basic_stringIcNS_11char_traitsIcEENS_9allocatorIcEEE9__is_longEv
FNDA:0,_ZNKSt3__112basic_stringIcNS_11char_traitsIcEENS_9allocatorIcEEE18__get_long_pointerEv
FNDA:0,_ZNKSt3__112basic_stringIcNS_11char_traitsIcEENS_9allocatorIcEEE19__get_short_pointerEv
FNDA:0,_ZNKSt3__112basic_stringIcNS_11char_traitsIcEENS_9allocatorIcEEE13__get_pointerEv
FNDA:28,_ZNSt3__112basic_stringIcNS_11char_traitsIcEENS_9allocatorIcEEEC1EPKc
FNDA:28,_ZNSt3__112basic_stringIcNS_11char_traitsIcEENS_9allocatorIcEEEC2EPKc
FNF:8
FNH:2
DA:775,28
DA:1127,0
DA:1129,0
DA:1221,0
DA:1303,0
DA:1309,0
DA:1315,0
DA:1569,56
DA:1571,28
DA:1575,56
LF:10
LH:4
end_of_record
SF:/Applications/Xcode.app/Contents/Developer/Toolchains/XcodeDefault.xctoolchain/usr/include/c++/v1/type_traits
FN:437,_ZNSt3__19addressofIKcEEPT_RS2_
FN:2219,_ZNSt3__17forwardIDnEEOT_RNS_16remove_referenceIS1_E4typeE
FN:2219,_ZNSt3__17forwardIRKNS_6vectorIbNS_9allocatorIbEEEEEEOT_RNS_16remove_referenceIS7_E4typeE
FN:2219,_ZNSt3__17forwardIiEEOT_RNS_16remove_referenceIS1_E4typeE
FN:2219,_ZNSt3__17forwardIRNS_6vectorIbNS_9allocatorIbEEEEEEOT_RNS_16remove_referenceIS6_E4typeE
FN:2219,_ZNSt3__17forwardIRKNS_9allocatorINS_6vectorIbNS1_IbEEEEEEEEOT_RNS_16remove_referenceIS8_E4typeE
FN:2219,_ZNSt3__17forwardINS_9allocatorImEEEEOT_RNS_16remove_referenceIS3_E4typeE
FNDA:0,_ZNSt3__19addressofIKcEEPT_RS2_
FNDA:28,_ZNSt3__17forwardIDnEEOT_RNS_16remove_referenceIS1_E4typeE
FNDA:0,_ZNSt3__17forwardIRKNS_9allocatorINS_6vectorIbNS1_IbEEEEEEEEOT_RNS_16remove_referenceIS8_E4typeE
FNDA:0,_ZNSt3__17forwardIRNS_6vectorIbNS_9allocatorIbEEEEEEOT_RNS_16remove_referenceIS6_E4typeE
FNDA:12,_ZNSt3__17forwardIiEEOT_RNS_16remove_referenceIS1_E4typeE
FNDA:0,_ZNSt3__17forwardIRKNS_6vectorIbNS_9allocatorIbEEEEEEOT_RNS_16remove_referenceIS7_E4typeE
FNDA:0,_ZNSt3__17forwardINS_9allocatorImEEEEOT_RNS_16remove_referenceIS3_E4typeE
FNF:7
FNH:2
DA:439,0
DA:2221,40
LF:2
LH:1
end_of_record
SF:/Applications/Xcode.app/Contents/Developer/Toolchains/XcodeDefault.xctoolchain/usr/include/c++/v1/vector
FN:294,_ZNSt3__120__vector_base_commonILb1EEC2Ev
FN:337,_ZNSt3__113__vector_baseINS_6vectorIbNS_9allocatorIbEEEENS2_IS4_EEE7__allocEv
FN:340,_ZNKSt3__113__vector_baseINS_6vectorIbNS_9allocatorIbEEEENS2_IS4_EEE7__allocEv
FN:343,_ZNSt3__113__vector_baseINS_6vectorIbNS_9allocatorIbEEEENS2_IS4_EEE9__end_capEv
FN:346,_ZNKSt3__113__vector_baseINS_6vectorIbNS_9allocatorIbEEEENS2_IS4_EEE9__end_capEv
FN:356,_ZNSt3__113__vector_baseINS_6vectorIbNS_9allocatorIbEEEENS2_IS4_EEE5clearEv
FN:358,_ZNKSt3__113__vector_baseINS_6vectorIbNS_9allocatorIbEEEENS2_IS4_EEE8capacityEv
FN:409,_ZNSt3__113__vector_baseINS_6vectorIbNS_9allocatorIbEEEENS2_IS4_EEE17__destruct_at_endEPS4_
FN:419,_ZNSt3__113__vector_baseINS_6vectorIbNS_9allocatorIbEEEENS2_IS4_EEEC2Ev
FN:429,_ZNSt3__113__vector_baseINS_6vectorIbNS_9allocatorIbEEEENS2_IS4_EEEC2ERKS5_
FN:437,_ZNSt3__113__vector_baseINS_6vectorIbNS_9allocatorIbEEEENS2_IS4_EEED2Ev
FN:447,_ZNSt3__16vectorINS0_IbNS_9allocatorIbEEEENS1_IS3_EEED1Ev
FN:447,_ZNSt3__16vectorINS0_IbNS_9allocatorIbEEEENS1_IS3_EEED2Ev
FN:473,_ZNSt3__16vectorINS0_IbNS_9allocatorIbEEEENS1_IS3_EEEC2Ev
FN:473,_ZNSt3__16vectorINS0_IbNS_9allocatorIbEEEENS1_IS3_EEEC1Ev
FN:632,_ZNKSt3__16vectorINS0_IbNS_9allocatorIbEEEENS1_IS3_EEE4sizeEv
FN:635,_ZNKSt3__16vectorINS0_IbNS_9allocatorIbEEEENS1_IS3_EEE8capacityEv
FN:674,_ZNKSt3__16vectorINS0_IbNS_9allocatorIbEEEENS1_IS3_EEE4dataEv
FN:827,_ZNKSt3__16vectorINS0_IbNS_9allocatorIbEEEENS1_IS3_EEE31__annotate_contiguous_containerEPKvS7_S7_S7_
FN:831,_ZNKSt3__16vectorINS0_IbNS_9allocatorIbEEEENS1_IS3_EEE14__annotate_newEm
FN:875,_ZNSt3__16vectorINS0_IbNS_9allocatorIbEEEENS1_IS3_EEE24__RAII_IncreaseAnnotatorC2ERKS5_m
FN:875,_ZNSt3__16vectorINS0_IbNS_9allocatorIbEEEENS1_IS3_EEE24__RAII_IncreaseAnnotatorC1ERKS5_m
FN:876,_ZNSt3__16vectorINS0_IbNS_9allocatorIbEEEENS1_IS3_EEE24__RAII_IncreaseAnnotator6__doneEv
FN:922,_ZNSt3__16vectorINS0_IbNS_9allocatorIbEEEENS1_IS3_EEE8allocateEm
FN:945,_ZNKSt3__16vectorINS0_IbNS_9allocatorIbEEEENS1_IS3_EEE8max_sizeEv
FN:1015,_ZNSt3__16vectorINS0_IbNS_9allocatorIbEEEENS1_IS3_EEE18__construct_at_endIPKS3_EENS_9enable_ifIXsr21__is_forward_iteratorIT_EE5valueEvE4typeESA_SA_m
FN:1015,_ZNSt3__16vectorINS0_IbNS_9allocatorIbEEEENS1_IS3_EEE18__construct_at_endIPS3_EENS_9enable_ifIXsr21__is_forward_iteratorIT_EE5valueEvE4typeES9_S9_m
FN:1192,_ZNSt3__16vectorINS0_IbNS_9allocatorIbEEEENS1_IS3_EEEC2ERKS5_
FN:1192,_ZNSt3__16vectorINS0_IbNS_9allocatorIbEEEENS1_IS3_EEEC1ERKS5_
FN:1270,_ZNSt3__16vectorINS0_IbNS_9allocatorIbEEEENS1_IS3_EEEC2ESt16initializer_listIS3_E
FN:1270,_ZNSt3__16vectorINS0_IbNS_9allocatorIbEEEENS1_IS3_EEEC1ESt16initializer_listIS3_E
FN:2169,_ZNSt3__16vectorIbNS_9allocatorIbEEE5__capEv
FN:2175,_ZNSt3__16vectorIbNS_9allocatorIbEEE7__allocEv
FN:2178,_ZNKSt3__16vectorIbNS_9allocatorIbEEE7__allocEv
FN:2184,_ZNSt3__16vectorIbNS_9allocatorIbEEE26__internal_cap_to_externalEm
FN:2187,_ZNSt3__16vectorIbNS_9allocatorIbEEE26__external_cap_to_internalEm
FN:2280,_ZNKSt3__16vectorIbNS_9allocatorIbEEE4sizeEv
FN:2292,_ZNKSt3__16vectorIbNS_9allocatorIbEEE5beginEv
FN:2298,_ZNKSt3__16vectorIbNS_9allocatorIbEEE3endEv
FN:2430,_ZNSt3__16vectorIbNS_9allocatorIbEEE11__make_iterEm
FN:2433,_ZNKSt3__16vectorIbNS_9allocatorIbEEE11__make_iterEm
FN:2490,_ZNSt3__16vectorIbNS_9allocatorIbEEE26__invalidate_all_iteratorsEv
FN:2503,_ZNSt3__16vectorIbNS_9allocatorIbEEE8allocateEm
FN:2528,_ZNKSt3__16vectorIbNS_9allocatorIbEEE8max_sizeEv
FN:2573,_ZNSt3__16vectorIbNS_9allocatorIbEEE18__construct_at_endIPKbEENS_9enable_ifIXsr21__is_forward_iteratorIT_EE5valueEvE4typeES8_S8_
FN:2573,_ZNSt3__16vectorIbNS_9allocatorIbEEE18__construct_at_endINS_14__bit_iteratorIS3_Lb1ELm0EEEEENS_9enable_ifIXsr21__is_forward_iteratorIT_EE5valueEvE4typeES8_S8_
FN:2582,_ZNSt3__16vectorIbNS_9allocatorIbEEEC2Ev
FN:2582,_ZNSt3__16vectorIbNS_9allocatorIbEEEC1Ev
FN:2747,_ZNSt3__16vectorIbNS_9allocatorIbEEEC2ESt16initializer_listIbE
FN:2747,_ZNSt3__16vectorIbNS_9allocatorIbEEEC1ESt16initializer_listIbE
FN:2777,_ZNSt3__16vectorIbNS_9allocatorIbEEED1Ev
FN:2777,_ZNSt3__16vectorIbNS_9allocatorIbEEED2Ev
FN:2785,_ZNSt3__16vectorIbNS_9allocatorIbEEEC1ERKS3_
FN:2785,_ZNSt3__16vectorIbNS_9allocatorIbEEEC2ERKS3_
FNDA:20,_ZNSt3__120__vector_base_commonILb1EEC2Ev
FNDA:0,_ZNSt3__113__vector_baseINS_6vectorIbNS_9allocatorIbEEEENS2_IS4_EEE7__allocEv
FNDA:0,_ZNKSt3__113__vector_baseINS_6vectorIbNS_9allocatorIbEEEENS2_IS4_EEE7__allocEv
FNDA:0,_ZNSt3__113__vector_baseINS_6vectorIbNS_9allocatorIbEEEENS2_IS4_EEE9__end_capEv
FNDA:0,_ZNKSt3__113__vector_baseINS_6vectorIbNS_9allocatorIbEEEENS2_IS4_EEE9__end_capEv
FNDA:0,_ZNSt3__113__vector_baseINS_6vectorIbNS_9allocatorIbEEEENS2_IS4_EEE5clearEv
FNDA:0,_ZNKSt3__113__vector_baseINS_6vectorIbNS_9allocatorIbEEEENS2_IS4_EEE8capacityEv
FNDA:0,_ZNSt3__113__vector_baseINS_6vectorIbNS_9allocatorIbEEEENS2_IS4_EEE17__destruct_at_endEPS4_
FNDA:14,_ZNSt3__113__vector_baseINS_6vectorIbNS_9allocatorIbEEEENS2_IS4_EEEC2Ev
FNDA:0,_ZNSt3__113__vector_baseINS_6vectorIbNS_9allocatorIbEEEENS2_IS4_EEEC2ERKS5_
FNDA:0,_ZNSt3__113__vector_baseINS_6vectorIbNS_9allocatorIbEEEENS2_IS4_EEED2Ev
FNDA:0,_ZNSt3__16vectorINS0_IbNS_9allocatorIbEEEENS1_IS3_EEED1Ev
FNDA:0,_ZNSt3__16vectorINS0_IbNS_9allocatorIbEEEENS1_IS3_EEED2Ev
FNDA:2,_ZNSt3__16vectorINS0_IbNS_9allocatorIbEEEENS1_IS3_EEEC1Ev
FNDA:2,_ZNSt3__16vectorINS0_IbNS_9allocatorIbEEEENS1_IS3_EEEC2Ev
FNDA:0,_ZNKSt3__16vectorINS0_IbNS_9allocatorIbEEEENS1_IS3_EEE4sizeEv
FNDA:0,_ZNKSt3__16vectorINS0_IbNS_9allocatorIbEEEENS1_IS3_EEE8capacityEv
FNDA:0,_ZNKSt3__16vectorINS0_IbNS_9allocatorIbEEEENS1_IS3_EEE4dataEv
FNDA:0,_ZNKSt3__16vectorINS0_IbNS_9allocatorIbEEEENS1_IS3_EEE31__annotate_contiguous_containerEPKvS7_S7_S7_
FNDA:0,_ZNKSt3__16vectorINS0_IbNS_9allocatorIbEEEENS1_IS3_EEE14__annotate_newEm
FNDA:0,_ZNSt3__16vectorINS0_IbNS_9allocatorIbEEEENS1_IS3_EEE24__RAII_IncreaseAnnotatorC1ERKS5_m
FNDA:0,_ZNSt3__16vectorINS0_IbNS_9allocatorIbEEEENS1_IS3_EEE24__RAII_IncreaseAnnotatorC2ERKS5_m
FNDA:0,_ZNSt3__16vectorINS0_IbNS_9allocatorIbEEEENS1_IS3_EEE24__RAII_IncreaseAnnotator6__doneEv
FNDA:0,_ZNSt3__16vectorINS0_IbNS_9allocatorIbEEEENS1_IS3_EEE8allocateEm
FNDA:0,_ZNKSt3__16vectorINS0_IbNS_9allocatorIbEEEENS1_IS3_EEE8max_sizeEv
FNDA:0,_ZNSt3__16vectorINS0_IbNS_9allocatorIbEEEENS1_IS3_EEE18__construct_at_endIPS3_EENS_9enable_ifIXsr21__is_forward_iteratorIT_EE5valueEvE4typeES9_S9_m
FNDA:0,_ZNSt3__16vectorINS0_IbNS_9allocatorIbEEEENS1_IS3_EEE18__construct_at_endIPKS3_EENS_9enable_ifIXsr21__is_forward_iteratorIT_EE5valueEvE4typeESA_SA_m
FNDA:0,_ZNSt3__16vectorINS0_IbNS_9allocatorIbEEEENS1_IS3_EEEC1ERKS5_
FNDA:0,_ZNSt3__16vectorINS0_IbNS_9allocatorIbEEEENS1_IS3_EEEC2ERKS5_
FNDA:12,_ZNSt3__16vectorINS0_IbNS_9allocatorIbEEEENS1_IS3_EEEC1ESt16initializer_listIS3_E
FNDA:12,_ZNSt3__16vectorINS0_IbNS_9allocatorIbEEEENS1_IS3_EEEC2ESt16initializer_listIS3_E
FNDA:0,_ZNSt3__16vectorIbNS_9allocatorIbEEE5__capEv
FNDA:0,_ZNSt3__16vectorIbNS_9allocatorIbEEE7__allocEv
FNDA:0,_ZNKSt3__16vectorIbNS_9allocatorIbEEE7__allocEv
FNDA:0,_ZNSt3__16vectorIbNS_9allocatorIbEEE26__internal_cap_to_externalEm
FNDA:0,_ZNSt3__16vectorIbNS_9allocatorIbEEE26__external_cap_to_internalEm
FNDA:0,_ZNKSt3__16vectorIbNS_9allocatorIbEEE4sizeEv
FNDA:0,_ZNKSt3__16vectorIbNS_9allocatorIbEEE5beginEv
FNDA:0,_ZNKSt3__16vectorIbNS_9allocatorIbEEE3endEv
FNDA:0,_ZNSt3__16vectorIbNS_9allocatorIbEEE11__make_iterEm
FNDA:0,_ZNKSt3__16vectorIbNS_9allocatorIbEEE11__make_iterEm
FNDA:0,_ZNSt3__16vectorIbNS_9allocatorIbEEE26__invalidate_all_iteratorsEv
FNDA:0,_ZNSt3__16vectorIbNS_9allocatorIbEEE8allocateEm
FNDA:0,_ZNKSt3__16vectorIbNS_9allocatorIbEEE8max_sizeEv
FNDA:0,_ZNSt3__16vectorIbNS_9allocatorIbEEE18__construct_at_endINS_14__bit_iteratorIS3_Lb1ELm0EEEEENS_9enable_ifIXsr21__is_forward_iteratorIT_EE5valueEvE4typeES8_S8_
FNDA:0,_ZNSt3__16vectorIbNS_9allocatorIbEEE18__construct_at_endIPKbEENS_9enable_ifIXsr21__is_forward_iteratorIT_EE5valueEvE4typeES8_S8_
FNDA:6,_ZNSt3__16vectorIbNS_9allocatorIbEEEC1Ev
FNDA:6,_ZNSt3__16vectorIbNS_9allocatorIbEEEC2Ev
FNDA:0,_ZNSt3__16vectorIbNS_9allocatorIbEEEC1ESt16initializer_listIbE
FNDA:0,_ZNSt3__16vectorIbNS_9allocatorIbEEEC2ESt16initializer_listIbE
FNDA:0,_ZNSt3__16vectorIbNS_9allocatorIbEEED1Ev
FNDA:0,_ZNSt3__16vectorIbNS_9allocatorIbEEED2Ev
FNDA:0,_ZNSt3__16vectorIbNS_9allocatorIbEEEC1ERKS3_
FNDA:0,_ZNSt3__16vectorIbNS_9allocatorIbEEEC2ERKS3_
FNF:54
FNH:8
DA:294,20
DA:338,0
DA:341,0
DA:344,0
DA:347,0
DA:350,14
DA:352,0
DA:356,0
DA:359,0
DA:411,0
DA:412,0
DA:413,0
DA:414,0
DA:415,0
DA:421,14
DA:422,14
DA:423,14
DA:424,14
DA:425,14
DA:430,0
DA:431,0
DA:432,0
DA:433,0
DA:434,0
DA:439,0
DA:441,0
DA:442,0
DA:443,0
DA:444,0
DA:447,0
DA:473,2
DA:474,4
DA:478,4
DA:541,12
DA:633,0
DA:636,0
DA:675,0
DA:828,0
DA:832,0
DA:833,0
DA:834,0
DA:875,0
DA:876,0
DA:924,0
DA:925,0
DA:926,0
DA:927,0
DA:928,0
DA:929,0
DA:947,0
DA:948,0
DA:1017,0
DA:1018,0
DA:1019,0
DA:1020,0
DA:1021,0
DA:1193,0
DA:1194,0
DA:1198,0
DA:1199,0
DA:1201,0
DA:1202,0
DA:1203,0
DA:1204,0
DA:1271,24
DA:1275,12
DA:1277,12
DA:1278,12
DA:1279,12
DA:1280,24
DA:2170,0
DA:2176,0
DA:2179,0
DA:2185,0
DA:2188,0
DA:2192,6
DA:2222,0
DA:2227,0
DA:2281,0
DA:2293,0
DA:2299,0
DA:2431,0
DA:2434,0
DA:2492,0
DA:2505,0
DA:2506,0
DA:2507,0
DA:2508,0
DA:2509,0
DA:2510,0
DA:2511,0
DA:2530,0
DA:2531,0
DA:2532,0
DA:2533,0
DA:2534,0
DA:2535,0
DA:2575,0
DA:2576,0
DA:2577,0
DA:2578,0
DA:2584,6
DA:2585,6
DA:2586,6
DA:2587,12
DA:2588,12
DA:2748,0
DA:2749,0
DA:2750,0
DA:2751,0
DA:2752,0
DA:2753,0
DA:2755,0
DA:2756,0
DA:2757,0
DA:2758,0
DA:2778,0
DA:2779,0
DA:2780,0
DA:2781,0
DA:2782,0
DA:2786,0
DA:2787,0
DA:2788,0
DA:2789,0
DA:2790,0
DA:2792,0
DA:2793,0
DA:2794,0
DA:2795,0
LF:130
LH:23
end_of_record
SF:/Users/vpomsztein/Documents/PrivateRepositories/Algoritmos1/TPI/juegoDeLaVida/lib/googletest-master/googletest/include/gtest/gtest-message.h
FN:85,_ZN7testing7MessageD1Ev
FN:85,_ZN7testing7MessageD2Ev
FNDA:0,_ZN7testing7MessageD1Ev
FNDA:0,_ZN7testing7MessageD2Ev
FNF:2
FNH:0
DA:85,0
LF:1
LH:0
end_of_record
SF:/Users/vpomsztein/Documents/PrivateRepositories/Algoritmos1/TPI/juegoDeLaVida/lib/googletest-master/googletest/include/gtest/gtest.h
FN:256,_ZN7testing15AssertionResultD2Ev
FN:256,_ZN7testing15AssertionResultD1Ev
FN:272,_ZN7testing15AssertionResultC2IbEERKT_PNS_8internal8EnableIfIXntsr8internal21ImplicitlyConvertibleIS2_S0_EE5valueEE4typeE
FN:272,_ZN7testing15AssertionResultC1IbEERKT_PNS_8internal8EnableIfIXntsr8internal21ImplicitlyConvertibleIS2_S0_EE5valueEE4typeE
FN:288,_ZNK7testing15AssertionResultcvbEv
FN:389,_ZN7testing4Test13SetUpTestCaseEv
FN:397,_ZN7testing4Test16TearDownTestCaseEv
FN:474,_ZN7testing4Test5SetupEv
FNDA:0,_ZN7testing15AssertionResultD1Ev
FNDA:0,_ZN7testing15AssertionResultD2Ev
FNDA:0,_ZN7testing15AssertionResultC1IbEERKT_PNS_8internal8EnableIfIXntsr8internal21ImplicitlyConvertibleIS2_S0_EE5valueEE4typeE
FNDA:0,_ZN7testing15AssertionResultC2IbEERKT_PNS_8internal8EnableIfIXntsr8internal21ImplicitlyConvertibleIS2_S0_EE5valueEE4typeE
FNDA:0,_ZNK7testing15AssertionResultcvbEv
FNDA:0,_ZN7testing4Test13SetUpTestCaseEv
FNDA:0,_ZN7testing4Test16TearDownTestCaseEv
FNDA:0,_ZN7testing4Test5SetupEv
FNF:8
FNH:0
DA:256,0
DA:272,0
DA:277,0
DA:288,0
DA:389,0
DA:397,0
DA:474,0
LF:7
LH:0
end_of_record
SF:/Users/vpomsztein/Documents/PrivateRepositories/Algoritmos1/TPI/juegoDeLaVida/lib/googletest-master/googletest/include/gtest/internal/gtest-internal.h
FN:466,_ZN7testing8internal15TestFactoryBaseD0Ev
FN:466,_ZN7testing8internal15TestFactoryBaseD1Ev
FN:466,_ZN7testing8internal15TestFactoryBaseD2Ev
FN:473,_ZN7testing8internal15TestFactoryBaseC2Ev
FN:482,_ZN7testing8internal15TestFactoryImplI35esValidoTEST_toroideVacio1Fila_TestEC2Ev
FN:482,_ZN7testing8internal15TestFactoryImplI32esValidoTEST_distintasFilas_TestED0Ev
FN:482,_ZN7testing8internal15TestFactoryImplI29esValidoTEST_tresPorTres_TestEC2Ev
FN:482,_ZN7testing8internal15TestFactoryImplI32esValidoTEST_distintasFilas_TestEC1Ev
FN:482,_ZN7testing8internal15TestFactoryImplI41esValidoTEST_distintasFilasSinVacias_TestED2Ev
FN:482,_ZN7testing8internal15TestFactoryImplI30esValidoTEST_toroideVacio_TestED2Ev
FN:482,_ZN7testing8internal15TestFactoryImplI27esValidoTEST_unoPorUno_TestEC2Ev
FN:482,_ZN7testing8internal15TestFactoryImplI35esValidoTEST_toroideVacio1Fila_TestED2Ev
FN:482,_ZN7testing8internal15TestFactoryImplI27esValidoTEST_unoPorUno_TestED1Ev
FN:482,_ZN7testing8internal15TestFactoryImplI41esValidoTEST_distintasFilasSinVacias_TestED1Ev
FN:482,_ZN7testing8internal15TestFactoryImplI35esValidoTEST_toroideVacio1Fila_TestED0Ev
FN:482,_ZN7testing8internal15TestFactoryImplI27esValidoTEST_unoPorUno_TestEC1Ev
FN:482,_ZN7testing8internal15TestFactoryImplI41esValidoTEST_distintasFilasSinVacias_TestED0Ev
FN:482,_ZN7testing8internal15TestFactoryImplI32esValidoTEST_distintasFilas_TestED2Ev
FN:482,_ZN7testing8internal15TestFactoryImplI30esValidoTEST_toroideVacio_TestED1Ev
FN:482,_ZN7testing8internal15TestFactoryImplI41esValidoTEST_distintasFilasSinVacias_TestEC1Ev
FN:482,_ZN7testing8internal15TestFactoryImplI29esValidoTEST_tresPorTres_TestED0Ev
FN:482,_ZN7testing8internal15TestFactoryImplI41esValidoTEST_distintasFilasSinVacias_TestEC2Ev
FN:482,_ZN7testing8internal15TestFactoryImplI36esValidoTEST_toroideVacio5Filas_TestEC1Ev
FN:482,_ZN7testing8internal15TestFactoryImplI36esValidoTEST_toroideVacio5Filas_TestED0Ev
FN:482,_ZN7testing8internal15TestFactoryImplI35esValidoTEST_toroideVacio1Fila_TestED1Ev
FN:482,_ZN7testing8internal15TestFactoryImplI30esValidoTEST_toroideVacio_TestEC1Ev
FN:482,_ZN7testing8internal15TestFactoryImplI36esValidoTEST_toroideVacio5Filas_TestED2Ev
FN:482,_ZN7testing8internal15TestFactoryImplI32esValidoTEST_distintasFilas_TestEC2Ev
FN:482,_ZN7testing8internal15TestFactoryImplI29esValidoTEST_tresPorTres_TestED1Ev
FN:482,_ZN7testing8internal15TestFactoryImplI27esValidoTEST_unoPorUno_TestED0Ev
FN:482,_ZN7testing8internal15TestFactoryImplI30esValidoTEST_toroideVacio_TestED0Ev
FN:482,_ZN7testing8internal15TestFactoryImplI36esValidoTEST_toroideVacio5Filas_TestEC2Ev
FN:482,_ZN7testing8internal15TestFactoryImplI29esValidoTEST_tresPorTres_TestED2Ev
FN:482,_ZN7testing8internal15TestFactoryImplI29esValidoTEST_tresPorTres_TestEC1Ev
FN:482,_ZN7testing8internal15TestFactoryImplI32esValidoTEST_distintasFilas_TestED1Ev
FN:482,_ZN7testing8internal15TestFactoryImplI35esValidoTEST_toroideVacio1Fila_TestEC1Ev
FN:482,_ZN7testing8internal15TestFactoryImplI27esValidoTEST_unoPorUno_TestED2Ev
FN:482,_ZN7testing8internal15TestFactoryImplI30esValidoTEST_toroideVacio_TestEC2Ev
FN:482,_ZN7testing8internal15TestFactoryImplI36esValidoTEST_toroideVacio5Filas_TestED1Ev
FN:484,_ZN7testing8internal15TestFactoryImplI29esValidoTEST_tresPorTres_TestE10CreateTestEv
FN:484,_ZN7testing8internal15TestFactoryImplI35esValidoTEST_toroideVacio1Fila_TestE10CreateTestEv
FN:484,_ZN7testing8internal15TestFactoryImplI30esValidoTEST_toroideVacio_TestE10CreateTestEv
FN:484,_ZN7testing8internal15TestFactoryImplI41esValidoTEST_distintasFilasSinVacias_TestE10CreateTestEv
FN:484,_ZN7testing8internal15TestFactoryImplI27esValidoTEST_unoPorUno_TestE10CreateTestEv
FN:484,_ZN7testing8internal15TestFactoryImplI36esValidoTEST_toroideVacio5Filas_TestE10CreateTestEv
FN:484,_ZN7testing8internal15TestFactoryImplI32esValidoTEST_distintasFilas_TestE10CreateTestEv
FN:504,_ZN7testing8internal12CodeLocationD1Ev
FN:504,_ZN7testing8internal12CodeLocationD2Ev
FN:505,_ZN7testing8internal12CodeLocationC2ERKNSt3__112basic_stringIcNS2_11char_traitsIcEENS2_9allocatorIcEEEEi
FN:505,_ZN7testing8internal12CodeLocationC1ERKNSt3__112basic_stringIcNS2_11char_traitsIcEENS2_9allocatorIcEEEEi
FNDA:0,_ZN7testing8internal15TestFactoryBaseD1Ev
FNDA:0,_ZN7testing8internal15TestFactoryBaseD0Ev
FNDA:0,_ZN7testing8internal15TestFactoryBaseD2Ev
FNDA:0,_ZN7testing8internal15TestFactoryBaseC2Ev
FNDA:4,_ZN7testing8internal15TestFactoryImplI30esValidoTEST_toroideVacio_TestEC1Ev
FNDA:4,_ZN7testing8internal15TestFactoryImplI35esValidoTEST_toroideVacio1Fila_TestEC1Ev
FNDA:4,_ZN7testing8internal15TestFactoryImplI36esValidoTEST_toroideVacio5Filas_TestEC1Ev
FNDA:4,_ZN7testing8internal15TestFactoryImplI32esValidoTEST_distintasFilas_TestEC1Ev
FNDA:4,_ZN7testing8internal15TestFactoryImplI41esValidoTEST_distintasFilasSinVacias_TestEC1Ev
FNDA:4,_ZN7testing8internal15TestFactoryImplI27esValidoTEST_unoPorUno_TestEC1Ev
FNDA:4,_ZN7testing8internal15TestFactoryImplI29esValidoTEST_tresPorTres_TestEC1Ev
FNDA:4,_ZN7testing8internal15TestFactoryImplI30esValidoTEST_toroideVacio_TestEC2Ev
FNDA:4,_ZN7testing8internal15TestFactoryImplI30esValidoTEST_toroideVacio_TestED1Ev
FNDA:4,_ZN7testing8internal15TestFactoryImplI30esValidoTEST_toroideVacio_TestED0Ev
FNDA:4,_ZN7testing8internal15TestFactoryImplI30esValidoTEST_toroideVacio_TestED2Ev
FNDA:4,_ZN7testing8internal15TestFactoryImplI35esValidoTEST_toroideVacio1Fila_TestEC2Ev
FNDA:4,_ZN7testing8internal15TestFactoryImplI35esValidoTEST_toroideVacio1Fila_TestED1Ev
FNDA:4,_ZN7testing8internal15TestFactoryImplI35esValidoTEST_toroideVacio1Fila_TestED0Ev
FNDA:4,_ZN7testing8internal15TestFactoryImplI35esValidoTEST_toroideVacio1Fila_TestED2Ev
FNDA:4,_ZN7testing8internal15TestFactoryImplI36esValidoTEST_toroideVacio5Filas_TestEC2Ev
FNDA:4,_ZN7testing8internal15TestFactoryImplI36esValidoTEST_toroideVacio5Filas_TestED1Ev
FNDA:4,_ZN7testing8internal15TestFactoryImplI36esValidoTEST_toroideVacio5Filas_TestED0Ev
FNDA:4,_ZN7testing8internal15TestFactoryImplI36esValidoTEST_toroideVacio5Filas_TestED2Ev
FNDA:4,_ZN7testing8internal15TestFactoryImplI32esValidoTEST_distintasFilas_TestEC2Ev
FNDA:4,_ZN7testing8internal15TestFactoryImplI32esValidoTEST_distintasFilas_TestED1Ev
FNDA:4,_ZN7testing8internal15TestFactoryImplI32esValidoTEST_distintasFilas_TestED0Ev
FNDA:4,_ZN7testing8internal15TestFactoryImplI32esValidoTEST_distintasFilas_TestED2Ev
FNDA:4,_ZN7testing8internal15TestFactoryImplI41esValidoTEST_distintasFilasSinVacias_TestEC2Ev
FNDA:4,_ZN7testing8internal15TestFactoryImplI41esValidoTEST_distintasFilasSinVacias_TestED1Ev
FNDA:4,_ZN7testing8internal15TestFactoryImplI41esValidoTEST_distintasFilasSinVacias_TestED0Ev
FNDA:4,_ZN7testing8internal15TestFactoryImplI41esValidoTEST_distintasFilasSinVacias_TestED2Ev
FNDA:4,_ZN7testing8internal15TestFactoryImplI27esValidoTEST_unoPorUno_TestEC2Ev
FNDA:4,_ZN7testing8internal15TestFactoryImplI27esValidoTEST_unoPorUno_TestED1Ev
FNDA:4,_ZN7testing8internal15TestFactoryImplI27esValidoTEST_unoPorUno_TestED0Ev
FNDA:4,_ZN7testing8internal15TestFactoryImplI27esValidoTEST_unoPorUno_TestED2Ev
FNDA:4,_ZN7testing8internal15TestFactoryImplI29esValidoTEST_tresPorTres_TestEC2Ev
FNDA:4,_ZN7testing8internal15TestFactoryImplI29esValidoTEST_tresPorTres_TestED1Ev
FNDA:4,_ZN7testing8internal15TestFactoryImplI29esValidoTEST_tresPorTres_TestED0Ev
FNDA:4,_ZN7testing8internal15TestFactoryImplI29esValidoTEST_tresPorTres_TestED2Ev
FNDA:2,_ZN7testing8internal15TestFactoryImplI30esValidoTEST_toroideVacio_TestE10CreateTestEv
FNDA:2,_ZN7testing8internal15TestFactoryImplI35esValidoTEST_toroideVacio1Fila_TestE10CreateTestEv
FNDA:2,_ZN7testing8internal15TestFactoryImplI36esValidoTEST_toroideVacio5Filas_TestE10CreateTestEv
FNDA:2,_ZN7testing8internal15TestFactoryImplI32esValidoTEST_distintasFilas_TestE10CreateTestEv
FNDA:2,_ZN7testing8internal15TestFactoryImplI41esValidoTEST_distintasFilasSinVacias_TestE10CreateTestEv
FNDA:2,_ZN7testing8internal15TestFactoryImplI27esValidoTEST_unoPorUno_TestE10CreateTestEv
FNDA:2,_ZN7testing8internal15TestFactoryImplI29esValidoTEST_tresPorTres_TestE10CreateTestEv
FNDA:0,_ZN7testing8internal12CodeLocationD1Ev
FNDA:0,_ZN7testing8internal12CodeLocationD2Ev
FNDA:0,_ZN7testing8internal12CodeLocationC1ERKNSt3__112basic_stringIcNS2_11char_traitsIcEENS2_9allocatorIcEEEEi
FNDA:0,_ZN7testing8internal12CodeLocationC2ERKNSt3__112basic_stringIcNS2_11char_traitsIcEENS2_9allocatorIcEEEEi
FNF:50
FNH:42
DA:466,0
DA:473,0
DA:482,140
DA:484,28
DA:504,0
DA:506,0
LF:6
LH:2
end_of_record
SF:/Users/vpomsztein/Documents/PrivateRepositories/Algoritmos1/TPI/juegoDeLaVida/lib/googletest-master/googletest/include/gtest/internal/gtest-port.h
FN:1156,_ZN7testing8internal10scoped_ptrINSt3__112basic_stringIcNS2_11char_traitsIcEENS2_9allocatorIcEEEEEC1EPS8_
FN:1156,_ZN7testing8internal10scoped_ptrINSt3__112basic_stringIcNS2_11char_traitsIcEENS2_9allocatorIcEEEEEC2EPS8_
FN:1157,_ZN7testing8internal10scoped_ptrINSt3__112basic_stringIcNS2_11char_traitsIcEENS2_9allocatorIcEEEEED1Ev
FN:1157,_ZN7testing8internal10scoped_ptrINSt3__118basic_stringstreamIcNS2_11char_traitsIcEENS2_9allocatorIcEEEEED2Ev
FN:1157,_ZN7testing8internal10scoped_ptrINSt3__118basic_stringstreamIcNS2_11char_traitsIcEENS2_9allocatorIcEEEEED1Ev
FN:1157,_ZN7testing8internal10scoped_ptrINSt3__112basic_stringIcNS2_11char_traitsIcEENS2_9allocatorIcEEEEED2Ev
FN:1169,_ZN7testing8internal10scoped_ptrINSt3__112basic_stringIcNS2_11char_traitsIcEENS2_9allocatorIcEEEEE5resetEPS8_
FN:1169,_ZN7testing8internal10scoped_ptrINSt3__118basic_stringstreamIcNS2_11char_traitsIcEENS2_9allocatorIcEEEEE5resetEPS8_
FNDA:0,_ZN7testing8internal10scoped_ptrINSt3__112basic_stringIcNS2_11char_traitsIcEENS2_9allocatorIcEEEEEC1EPS8_
FNDA:0,_ZN7testing8internal10scoped_ptrINSt3__112basic_stringIcNS2_11char_traitsIcEENS2_9allocatorIcEEEEEC2EPS8_
FNDA:0,_ZN7testing8internal10scoped_ptrINSt3__118basic_stringstreamIcNS2_11char_traitsIcEENS2_9allocatorIcEEEEED1Ev
FNDA:0,_ZN7testing8internal10scoped_ptrINSt3__118basic_stringstreamIcNS2_11char_traitsIcEENS2_9allocatorIcEEEEED2Ev
FNDA:0,_ZN7testing8internal10scoped_ptrINSt3__112basic_stringIcNS2_11char_traitsIcEENS2_9allocatorIcEEEEED1Ev
FNDA:0,_ZN7testing8internal10scoped_ptrINSt3__112basic_stringIcNS2_11char_traitsIcEENS2_9allocatorIcEEEEED2Ev
FNDA:0,_ZN7testing8internal10scoped_ptrINSt3__118basic_stringstreamIcNS2_11char_traitsIcEENS2_9allocatorIcEEEEE5resetEPS8_
FNDA:0,_ZN7testing8internal10scoped_ptrINSt3__112basic_stringIcNS2_11char_traitsIcEENS2_9allocatorIcEEEEE5resetEPS8_
FNF:8
FNH:0
DA:1156,0
DA:1157,0
DA:1170,0
DA:1171,0
DA:1172,0
DA:1173,0
DA:1174,0
DA:1175,0
DA:1176,0
LF:9
LH:0
end_of_record
SF:/Users/vpomsztein/Documents/PrivateRepositories/Algoritmos1/TPI/juegoDeLaVida/tests/esValidoTEST.cpp
FN:13,_ZN30esValidoTEST_toroideVacio_TestD2Ev
FN:13,__cxx_global_var_init
FN:13,_ZN30esValidoTEST_toroideVacio_TestD0Ev
FN:13,_ZN30esValidoTEST_toroideVacio_TestC1Ev
FN:13,_ZN30esValidoTEST_toroideVacio_TestC2Ev
FN:13,_ZN30esValidoTEST_toroideVacio_Test8TestBodyEv
FN:13,_ZN30esValidoTEST_toroideVacio_TestD1Ev
FN:18,_ZN35esValidoTEST_toroideVacio1Fila_TestC2Ev
FN:18,_ZN35esValidoTEST_toroideVacio1Fila_Test8TestBodyEv
FN:18,_ZN35esValidoTEST_toroideVacio1Fila_TestD0Ev
FN:18,_ZN35esValidoTEST_toroideVacio1Fila_TestD1Ev
FN:18,__cxx_global_var_init.6
FN:18,_ZN35esValidoTEST_toroideVacio1Fila_TestC1Ev
FN:18,_ZN35esValidoTEST_toroideVacio1Fila_TestD2Ev
FN:23,_ZN36esValidoTEST_toroideVacio5Filas_TestD2Ev
FN:23,_ZN36esValidoTEST_toroideVacio5Filas_TestD1Ev
FN:23,_ZN36esValidoTEST_toroideVacio5Filas_Test8TestBodyEv
FN:23,_ZN36esValidoTEST_toroideVacio5Filas_TestD0Ev
FN:23,_ZN36esValidoTEST_toroideVacio5Filas_TestC2Ev
FN:23,_ZN36esValidoTEST_toroideVacio5Filas_TestC1Ev
FN:23,__cxx_global_var_init.8
FN:29,_ZN32esValidoTEST_distintasFilas_TestD1Ev
FN:29,_ZN32esValidoTEST_distintasFilas_TestC2Ev
FN:29,_ZN32esValidoTEST_distintasFilas_TestC1Ev
FN:29,__cxx_global_var_init.10
FN:29,_ZN32esValidoTEST_distintasFilas_TestD2Ev
FN:29,_ZN32esValidoTEST_distintasFilas_Test8TestBodyEv
FN:29,_ZN32esValidoTEST_distintasFilas_TestD0Ev
FN:36,__cxx_global_var_init.12
FN:36,_ZN41esValidoTEST_distintasFilasSinVacias_TestC1Ev
FN:36,_ZN41esValidoTEST_distintasFilasSinVacias_Test8TestBodyEv
FN:36,_ZN41esValidoTEST_distintasFilasSinVacias_TestD1Ev
FN:36,_ZN41esValidoTEST_distintasFilasSinVacias_TestC2Ev
FN:36,_ZN41esValidoTEST_distintasFilasSinVacias_TestD0Ev
FN:36,_ZN41esValidoTEST_distintasFilasSinVacias_TestD2Ev
FN:43,_ZN27esValidoTEST_unoPorUno_TestD1Ev
FN:43,__cxx_global_var_init.16
FN:43,_ZN27esValidoTEST_unoPorUno_TestC2Ev
FN:43,_ZN27esValidoTEST_unoPorUno_Test8TestBodyEv
FN:43,_ZN27esValidoTEST_unoPorUno_TestC1Ev
FN:43,_ZN27esValidoTEST_unoPorUno_TestD0Ev
FN:43,_ZN27esValidoTEST_unoPorUno_TestD2Ev
FN:49,_ZN29esValidoTEST_tresPorTres_TestC2Ev
FN:49,__cxx_global_var_init.19
FN:49,_ZN29esValidoTEST_tresPorTres_TestC1Ev
FN:49,_ZN29esValidoTEST_tresPorTres_TestD1Ev
FN:49,_ZN29esValidoTEST_tresPorTres_Test8TestBodyEv
FN:49,_ZN29esValidoTEST_tresPorTres_TestD0Ev
FN:49,_ZN29esValidoTEST_tresPorTres_TestD2Ev
FNDA:4,__cxx_global_var_init
FNDA:2,_ZN30esValidoTEST_toroideVacio_Test8TestBodyEv
FNDA:2,_ZN30esValidoTEST_toroideVacio_TestD1Ev
FNDA:2,_ZN30esValidoTEST_toroideVacio_TestD0Ev
FNDA:2,_ZN30esValidoTEST_toroideVacio_TestC1Ev
FNDA:2,_ZN30esValidoTEST_toroideVacio_TestC2Ev
FNDA:2,_ZN30esValidoTEST_toroideVacio_TestD2Ev
FNDA:4,__cxx_global_var_init.6
FNDA:2,_ZN35esValidoTEST_toroideVacio1Fila_Test8TestBodyEv
FNDA:2,_ZN35esValidoTEST_toroideVacio1Fila_TestD1Ev
FNDA:2,_ZN35esValidoTEST_toroideVacio1Fila_TestD0Ev
FNDA:2,_ZN35esValidoTEST_toroideVacio1Fila_TestC1Ev
FNDA:2,_ZN35esValidoTEST_toroideVacio1Fila_TestC2Ev
FNDA:2,_ZN35esValidoTEST_toroideVacio1Fila_TestD2Ev
FNDA:4,__cxx_global_var_init.8
FNDA:2,_ZN36esValidoTEST_toroideVacio5Filas_Test8TestBodyEv
FNDA:2,_ZN36esValidoTEST_toroideVacio5Filas_TestD1Ev
FNDA:2,_ZN36esValidoTEST_toroideVacio5Filas_TestD0Ev
FNDA:2,_ZN36esValidoTEST_toroideVacio5Filas_TestC1Ev
FNDA:2,_ZN36esValidoTEST_toroideVacio5Filas_TestC2Ev
FNDA:2,_ZN36esValidoTEST_toroideVacio5Filas_TestD2Ev
FNDA:4,__cxx_global_var_init.10
FNDA:2,_ZN32esValidoTEST_distintasFilas_Test8TestBodyEv
FNDA:2,_ZN32esValidoTEST_distintasFilas_TestD1Ev
FNDA:2,_ZN32esValidoTEST_distintasFilas_TestD0Ev
FNDA:2,_ZN32esValidoTEST_distintasFilas_TestC1Ev
FNDA:2,_ZN32esValidoTEST_distintasFilas_TestC2Ev
FNDA:2,_ZN32esValidoTEST_distintasFilas_TestD2Ev
FNDA:4,__cxx_global_var_init.12
FNDA:2,_ZN41esValidoTEST_distintasFilasSinVacias_Test8TestBodyEv
FNDA:2,_ZN41esValidoTEST_distintasFilasSinVacias_TestD1Ev
FNDA:2,_ZN41esValidoTEST_distintasFilasSinVacias_TestD0Ev
FNDA:2,_ZN41esValidoTEST_distintasFilasSinVacias_TestC1Ev
FNDA:2,_ZN41esValidoTEST_distintasFilasSinVacias_TestC2Ev
FNDA:2,_ZN41esValidoTEST_distintasFilasSinVacias_TestD2Ev
FNDA:4,__cxx_global_var_init.16
FNDA:2,_ZN27esValidoTEST_unoPorUno_Test8TestBodyEv
FNDA:2,_ZN27esValidoTEST_unoPorUno_TestD1Ev
FNDA:2,_ZN27esValidoTEST_unoPorUno_TestD0Ev
FNDA:2,_ZN27esValidoTEST_unoPorUno_TestC1Ev
FNDA:2,_ZN27esValidoTEST_unoPorUno_TestC2Ev
FNDA:2,_ZN27esValidoTEST_unoPorUno_TestD2Ev
FNDA:4,__cxx_global_var_init.19
FNDA:2,_ZN29esValidoTEST_tresPorTres_Test8TestBodyEv
FNDA:2,_ZN29esValidoTEST_tresPorTres_TestD1Ev
FNDA:2,_ZN29esValidoTEST_tresPorTres_TestD0Ev
FNDA:2,_ZN29esValidoTEST_tresPorTres_TestC1Ev
FNDA:2,_ZN29esValidoTEST_tresPorTres_TestC2Ev
FNDA:2,_ZN29esValidoTEST_tresPorTres_TestD2Ev
FNF:49
FNH:49
DA:13,38
DA:14,2
DA:15,14
DA:16,2
DA:18,38
DA:19,6
DA:20,14
DA:21,2
DA:23,38
DA:24,2
DA:25,24
DA:26,14
DA:27,2
DA:29,38
DA:30,2
DA:31,2
DA:32,12
DA:33,14
DA:34,2
DA:36,38
DA:37,2
DA:38,2
DA:39,12
DA:40,14
DA:41,2
DA:43,38
DA:44,2
DA:45,8
DA:46,14
DA:47,2
DA:49,38
DA:50,16
DA:51,2
DA:52,2
DA:53,2
DA:54,14
DA:55,2
LF:37
LH:37
end_of_record
TN:
SF:/Applications/Xcode.app/Contents/Developer/Toolchains/XcodeDefault.xctoolchain/usr/include/c++/v1/__bit_reference
FN:56,_ZNSt3__115__bit_referenceINS_6vectorIbNS_9allocatorIbEEEELb1EEaSEb
FN:74,_ZNSt3__115__bit_referenceINS_6vectorIbNS_9allocatorIbEEEELb1EEC2EPmm
FN:74,_ZNSt3__115__bit_referenceINS_6vectorIbNS_9allocatorIbEEEELb1EEC1EPmm
FN:404,_ZNSt3__114__copy_alignedINS_6vectorIbNS_9allocatorIbEEEELb1EEENS_14__bit_iteratorIT_Lb0EXLi0EEEENS5_IS6_XT0_EXLi0EEEES8_S7_
FN:453,_ZNSt3__116__copy_unalignedINS_6vectorIbNS_9allocatorIbEEEELb1EEENS_14__bit_iteratorIT_Lb0EXLi0EEEENS5_IS6_XT0_EXLi0EEEES8_S7_
FN:532,_ZNSt3__14copyINS_6vectorIbNS_9allocatorIbEEEELb1EEENS_14__bit_iteratorIT_Lb0EXLi0EEEENS5_IS6_XT0_EXLi0EEEES8_S7_
FN:1112,_ZNSt3__114__bit_iteratorINS_6vectorIbNS_9allocatorIbEEEELb0ELm0EEC2ERKS5_
FN:1112,_ZNSt3__114__bit_iteratorINS_6vectorIbNS_9allocatorIbEEEELb0ELm0EEC1ERKS5_
FN:1115,_ZNKSt3__114__bit_iteratorINS_6vectorIbNS_9allocatorIbEEEELb0ELm0EEdeEv
FN:1118,_ZNSt3__114__bit_iteratorINS_6vectorIbNS_9allocatorIbEEEELb0ELm0EEppEv
FN:1191,_ZNSt3__1miERKNS_14__bit_iteratorINS_6vectorIbNS_9allocatorIbEEEELb1ELm0EEES7_
FN:1216,_ZNSt3__114__bit_iteratorINS_6vectorIbNS_9allocatorIbEEEELb0ELm0EEC2EPmj
FN:1216,_ZNSt3__114__bit_iteratorINS_6vectorIbNS_9allocatorIbEEEELb0ELm0EEC1EPmj
FN:1216,_ZNSt3__114__bit_iteratorINS_6vectorIbNS_9allocatorIbEEEELb1ELm0EEC1EPKmj
FN:1216,_ZNSt3__114__bit_iteratorINS_6vectorIbNS_9allocatorIbEEEELb1ELm0EEC2EPKmj
FNDA:0,_ZNSt3__115__bit_referenceINS_6vectorIbNS_9allocatorIbEEEELb1EEaSEb
FNDA:0,_ZNSt3__115__bit_referenceINS_6vectorIbNS_9allocatorIbEEEELb1EEC1EPmm
FNDA:0,_ZNSt3__115__bit_referenceINS_6vectorIbNS_9allocatorIbEEEELb1EEC2EPmm
FNDA:0,_ZNSt3__114__copy_alignedINS_6vectorIbNS_9allocatorIbEEEELb1EEENS_14__bit_iteratorIT_Lb0EXLi0EEEENS5_IS6_XT0_EXLi0EEEES8_S7_
FNDA:0,_ZNSt3__116__copy_unalignedINS_6vectorIbNS_9allocatorIbEEEELb1EEENS_14__bit_iteratorIT_Lb0EXLi0EEEENS5_IS6_XT0_EXLi0EEEES8_S7_
FNDA:0,_ZNSt3__14copyINS_6vectorIbNS_9allocatorIbEEEELb1EEENS_14__bit_iteratorIT_Lb0EXLi0EEEENS5_IS6_XT0_EXLi0EEEES8_S7_
FNDA:0,_ZNSt3__114__bit_iteratorINS_6vectorIbNS_9allocatorIbEEEELb0ELm0EEC1ERKS5_
FNDA:0,_ZNSt3__114__bit_iteratorINS_6vectorIbNS_9allocatorIbEEEELb0ELm0EEC2ERKS5_
FNDA:0,_ZNKSt3__114__bit_iteratorINS_6vectorIbNS_9allocatorIbEEEELb0ELm0EEdeEv
FNDA:0,_ZNSt3__114__bit_iteratorINS_6vectorIbNS_9allocatorIbEEEELb0ELm0EEppEv
FNDA:0,_ZNSt3__1miERKNS_14__bit_iteratorINS_6vectorIbNS_9allocatorIbEEEELb1ELm0EEES7_
FNDA:0,_ZNSt3__114__bit_iteratorINS_6vectorIbNS_9allocatorIbEEEELb0ELm0EEC1EPmj
FNDA:0,_ZNSt3__114__bit_iteratorINS_6vectorIbNS_9allocatorIbEEEELb0ELm0EEC2EPmj
FNDA:0,_ZNSt3__114__bit_iteratorINS_6vectorIbNS_9allocatorIbEEEELb1ELm0EEC1EPKmj
FNDA:0,_ZNSt3__114__bit_iteratorINS_6vectorIbNS_9allocatorIbEEEELb1ELm0EEC2EPKmj
FNF:15
FNH:0
DA:58,0
DA:59,0
DA:61,0
DA:62,0
DA:75,0
DA:410,0
DA:411,0
DA:412,0
DA:415,0
DA:417,0
DA:418,0
DA:419,0
DA:420,0
DA:421,0
DA:422,0
DA:423,0
DA:424,0
DA:425,0
DA:426,0
DA:428,0
DA:431,0
DA:432,0
DA:433,0
DA:434,0
DA:435,0
DA:436,0
DA:438,0
DA:440,0
DA:441,0
DA:442,0
DA:443,0
DA:444,0
DA:445,0
DA:446,0
DA:447,0
DA:448,0
DA:460,0
DA:461,0
DA:464,0
DA:466,0
DA:467,0
DA:468,0
DA:469,0
DA:470,0
DA:471,0
DA:472,0
DA:473,0
DA:474,0
DA:475,0
DA:476,0
DA:478,0
DA:479,0
DA:480,0
DA:481,0
DA:482,0
DA:484,0
DA:485,0
DA:486,0
DA:487,0
DA:488,0
DA:489,0
DA:491,0
DA:494,0
DA:495,0
DA:496,0
DA:498,0
DA:499,0
DA:500,0
DA:501,0
DA:502,0
DA:503,0
DA:504,0
DA:506,0
DA:508,0
DA:509,0
DA:510,0
DA:511,0
DA:512,0
DA:513,0
DA:514,0
DA:515,0
DA:516,0
DA:517,0
DA:519,0
DA:520,0
DA:521,0
DA:522,0
DA:523,0
DA:524,0
DA:525,0
DA:526,0
DA:534,0
DA:535,0
DA:536,0
DA:537,0
DA:1113,0
DA:1116,0
DA:1120,0
DA:1121,0
DA:1124,0
DA:1125,0
DA:1127,0
DA:1192,0
DA:1217,0
LF:104
LH:0
end_of_record
SF:/Applications/Xcode.app/Contents/Developer/Toolchains/XcodeDefault.xctoolchain/usr/include/c++/v1/__string
FN:217,_ZNSt3__111char_traitsIcE6lengthEPKc
FNDA:0,_ZNSt3__111char_traitsIcE6lengthEPKc
FNF:1
FNH:0
DA:217,0
LF:1
LH:0
end_of_record
SF:/Applications/Xcode.app/Contents/Developer/Toolchains/XcodeDefault.xctoolchain/usr/include/c++/v1/algorithm
FN:719,_ZNKSt3__16__lessIllEclERKlS3_
FN:719,_ZNKSt3__16__lessImmEclERKmS3_
FN:1759,_ZNSt3__113__unwrap_iterINS_14__bit_iteratorINS_6vectorIbNS_9allocatorIbEEEELb0ELm0EEEEET_S7_
FN:1759,_ZNSt3__113__unwrap_iterIPKbEET_S3_
FN:1809,_ZNSt3__16__copyIPKbNS_14__bit_iteratorINS_6vectorIbNS_9allocatorIbEEEELb0ELm0EEEEET0_T_SA_S9_
FN:1835,_ZNSt3__14copyIPKbNS_14__bit_iteratorINS_6vectorIbNS_9allocatorIbEEEELb0ELm0EEEEET0_T_SA_S9_
FN:2644,_ZNSt3__13minImNS_6__lessImmEEEERKT_S5_S5_T0_
FN:2644,_ZNSt3__13minIlNS_6__lessIllEEEERKT_S5_S5_T0_
FN:2652,_ZNSt3__13minImEERKT_S3_S3_
FN:2652,_ZNSt3__13minIlEERKT_S3_S3_
FNDA:0,_ZNKSt3__16__lessImmEclERKmS3_
FNDA:0,_ZNKSt3__16__lessIllEclERKlS3_
FNDA:0,_ZNSt3__113__unwrap_iterIPKbEET_S3_
FNDA:0,_ZNSt3__113__unwrap_iterINS_14__bit_iteratorINS_6vectorIbNS_9allocatorIbEEEELb0ELm0EEEEET_S7_
FNDA:0,_ZNSt3__16__copyIPKbNS_14__bit_iteratorINS_6vectorIbNS_9allocatorIbEEEELb0ELm0EEEEET0_T_SA_S9_
FNDA:0,_ZNSt3__14copyIPKbNS_14__bit_iteratorINS_6vectorIbNS_9allocatorIbEEEELb0ELm0EEEEET0_T_SA_S9_
FNDA:0,_ZNSt3__13minImNS_6__lessImmEEEERKT_S5_S5_T0_
FNDA:0,_ZNSt3__13minIlNS_6__lessIllEEEERKT_S5_S5_T0_
FNDA:0,_ZNSt3__13minImEERKT_S3_S3_
FNDA:0,_ZNSt3__13minIlEERKT_S3_S3_
FNF:10
FNH:0
DA:719,0
DA:1761,0
DA:1811,0
DA:1812,0
DA:1813,0
DA:1837,0
DA:2646,0
DA:2654,0
LF:8
LH:0
end_of_record
SF:/Applications/Xcode.app/Contents/Developer/Toolchains/XcodeDefault.xctoolchain/usr/include/c++/v1/initializer_list
FN:85,_ZNKSt16initializer_listIbE4sizeEv
FN:85,_ZNKSt16initializer_listINSt3__16vectorIbNS0_9allocatorIbEEEEE4sizeEv
FN:89,_ZNKSt16initializer_listIbE5beginEv
FN:89,_ZNKSt16initializer_listINSt3__16vectorIbNS0_9allocatorIbEEEEE5beginEv
FN:93,_ZNKSt16initializer_listIbE3endEv
FN:93,_ZNKSt16initializer_listINSt3__16vectorIbNS0_9allocatorIbEEEEE3endEv
FNDA:0,_ZNKSt16initializer_listIbE4sizeEv
FNDA:18,_ZNKSt16initializer_listINSt3__16vectorIbNS0_9allocatorIbEEEEE4sizeEv
FNDA:0,_ZNKSt16initializer_listIbE5beginEv
FNDA:6,_ZNKSt16initializer_listINSt3__16vectorIbNS0_9allocatorIbEEEEE5beginEv
FNDA:0,_ZNKSt16initializer_listIbE3endEv
FNDA:6,_ZNKSt16initializer_listINSt3__16vectorIbNS0_9allocatorIbEEEEE3endEv
FNF:6
FNH:3
DA:85,18
DA:89,6
DA:93,6
LF:3
LH:3
end_of_record
SF:/Applications/Xcode.app/Contents/Developer/Toolchains/XcodeDefault.xctoolchain/usr/include/c++/v1/iterator
FN:592,_ZNSt3__110__distanceINS_14__bit_iteratorINS_6vectorIbNS_9allocatorIbEEEELb1ELm0EEEEENS_15iterator_traitsIT_E15difference_typeES8_S8_NS_26random_access_iterator_tagE
FN:592,_ZNSt3__110__distanceIPKbEENS_15iterator_traitsIT_E15difference_typeES4_S4_NS_26random_access_iterator_tagE
FN:600,_ZNSt3__18distanceINS_14__bit_iteratorINS_6vectorIbNS_9allocatorIbEEEELb1ELm0EEEEENS_15iterator_traitsIT_E15difference_typeES8_S8_
FN:600,_ZNSt3__18distanceIPKbEENS_15iterator_traitsIT_E15difference_typeES4_S4_
FNDA:0,_ZNSt3__110__distanceIPKbEENS_15iterator_traitsIT_E15difference_typeES4_S4_NS_26random_access_iterator_tagE
FNDA:0,_ZNSt3__110__distanceINS_14__bit_iteratorINS_6vectorIbNS_9allocatorIbEEEELb1ELm0EEEEENS_15iterator_traitsIT_E15difference_typeES8_S8_NS_26random_access_iterator_tagE
FNDA:0,_ZNSt3__18distanceIPKbEENS_15iterator_traitsIT_E15difference_typeES4_S4_
FNDA:0,_ZNSt3__18distanceINS_14__bit_iteratorINS_6vectorIbNS_9allocatorIbEEEELb1ELm0EEEEENS_15iterator_traitsIT_E15difference_typeES8_S8_
FNF:4
FNH:0
DA:594,0
DA:602,0
LF:2
LH:0
end_of_record
SF:/Applications/Xcode.app/Contents/Developer/Toolchains/XcodeDefault.xctoolchain/usr/include/c++/v1/limits
FN:213,_ZNSt3__123__libcpp_numeric_limitsImLb1EE3maxEv
FN:213,_ZNSt3__123__libcpp_numeric_limitsIlLb1EE3maxEv
FN:450,_ZNSt3__114numeric_limitsIlE3maxEv
FN:450,_ZNSt3__114numeric_limitsImE3maxEv
FNDA:0,_ZNSt3__123__libcpp_numeric_limitsImLb1EE3maxEv
FNDA:0,_ZNSt3__123__libcpp_numeric_limitsIlLb1EE3maxEv
FNDA:0,_ZNSt3__114numeric_limitsImE3maxEv
FNDA:0,_ZNSt3__114numeric_limitsIlE3maxEv
FNF:4
FNH:0
DA:213,0
DA:450,0
LF:2
LH:0
end_of_record
SF:/Applications/Xcode.app/Contents/Developer/Toolchains/XcodeDefault.xctoolchain/usr/include/c++/v1/memory
FN:977,_ZNSt3__114pointer_traitsIPKcE10pointer_toERS1_
FN:1095,_ZNSt3__116__to_raw_pointerIKmEEPT_S3_
FN:1095,_ZNSt3__116__to_raw_pointerImEEPT_S2_
FN:1095,_ZNSt3__116__to_raw_pointerINS_6vectorIbNS_9allocatorIbEEEEEEPT_S6_
FN:1095,_ZNSt3__116__to_raw_pointerIKcEEPT_S3_
FN:1501,_ZNSt3__116allocator_traitsINS_9allocatorImEEE8allocateERS2_m
FN:1501,_ZNSt3__116allocator_traitsINS_9allocatorINS_6vectorIbNS1_IbEEEEEEE8allocateERS5_m
FN:1509,_ZNSt3__116allocator_traitsINS_9allocatorImEEE10deallocateERS2_Pmm
FN:1509,_ZNSt3__116allocator_traitsINS_9allocatorINS_6vectorIbNS1_IbEEEEEEE10deallocateERS5_PS4_m
FN:1515,_ZNSt3__116allocator_traitsINS_9allocatorINS_6vectorIbNS1_IbEEEEEEE9constructIS4_JRKS4_EEEvRS5_PT_DpOT0_
FN:1515,_ZNSt3__116allocator_traitsINS_9allocatorINS_6vectorIbNS1_IbEEEEEEE9constructIS4_JRS4_EEEvRS5_PT_DpOT0_
FN:1549,_ZNSt3__116allocator_traitsINS_9allocatorINS_6vectorIbNS1_IbEEEEEEE7destroyIS4_EEvRS5_PT_
FN:1553,_ZNSt3__116allocator_traitsINS_9allocatorINS_6vectorIbNS1_IbEEEEEEE8max_sizeERKS5_
FN:1553,_ZNSt3__116allocator_traitsINS_9allocatorImEEE8max_sizeERKS2_
FN:1558,_ZNSt3__116allocator_traitsINS_9allocatorImEEE37select_on_container_copy_constructionERKS2_
FN:1558,_ZNSt3__116allocator_traitsINS_9allocatorINS_6vectorIbNS1_IbEEEEEEE37select_on_container_copy_constructionERKS5_
FN:1597,_ZNSt3__116allocator_traitsINS_9allocatorINS_6vectorIbNS1_IbEEEEEEE25__construct_range_forwardIPS4_S8_EEvRS5_T_SA_RT0_
FN:1597,_ZNSt3__116allocator_traitsINS_9allocatorINS_6vectorIbNS1_IbEEEEEEE25__construct_range_forwardIPKS4_PS4_EEvRS5_T_SC_RT0_
FN:1669,_ZNSt3__116allocator_traitsINS_9allocatorINS_6vectorIbNS1_IbEEEEEEE11__constructIS4_JRS4_EEEvNS_17integral_constantIbLb1EEERS5_PT_DpOT0_
FN:1669,_ZNSt3__116allocator_traitsINS_9allocatorINS_6vectorIbNS1_IbEEEEEEE11__constructIS4_JRKS4_EEEvNS_17integral_constantIbLb1EEERS5_PT_DpOT0_
FN:1681,_ZNSt3__116allocator_traitsINS_9allocatorINS_6vectorIbNS1_IbEEEEEEE9__destroyIS4_EEvNS_17integral_constantIbLb1EEERS5_PT_
FN:1691,_ZNSt3__116allocator_traitsINS_9allocatorImEEE10__max_sizeENS_17integral_constantIbLb1EEERKS2_
FN:1691,_ZNSt3__116allocator_traitsINS_9allocatorINS_6vectorIbNS1_IbEEEEEEE10__max_sizeENS_17integral_constantIbLb1EEERKS5_
FN:1703,_ZNSt3__116allocator_traitsINS_9allocatorINS_6vectorIbNS1_IbEEEEEEE39__select_on_container_copy_constructionENS_17integral_constantIbLb0EEERKS5_
FN:1703,_ZNSt3__116allocator_traitsINS_9allocatorImEEE39__select_on_container_copy_constructionENS_17integral_constantIbLb0EEERKS2_
FN:1736,_ZNSt3__19allocatorImEC2Ev
FN:1736,_ZNSt3__19allocatorINS_6vectorIbNS0_IbEEEEEC2Ev
FN:1736,_ZNSt3__19allocatorIcEC2Ev
FN:1742,_ZNSt3__19allocatorImE8allocateEmPKv
FN:1742,_ZNSt3__19allocatorINS_6vectorIbNS0_IbEEEEE8allocateEmPKv
FN:1749,_ZNSt3__19allocatorImE10deallocateEPmm
FN:1749,_ZNSt3__19allocatorINS_6vectorIbNS0_IbEEEEE10deallocateEPS3_m
FN:1751,_ZNKSt3__19allocatorImE8max_sizeEv
FN:1751,_ZNKSt3__19allocatorINS_6vectorIbNS0_IbEEEEE8max_sizeEv
FN:1757,_ZNSt3__19allocatorINS_6vectorIbNS0_IbEEEEE9constructIS3_JRS3_EEEvPT_DpOT0_
FN:1757,_ZNSt3__19allocatorINS_6vectorIbNS0_IbEEEEE9constructIS3_JRKS3_EEEvPT_DpOT0_
FN:1814,_ZNSt3__19allocatorINS_6vectorIbNS0_IbEEEEE7destroyEPS3_
FN:2043,_ZNSt3__122__compressed_pair_elemINS_12basic_stringIcNS_11char_traitsIcEENS_9allocatorIcEEE5__repELi0ELb0EEC2Ev
FN:2050,_ZNSt3__122__compressed_pair_elemImLi0ELb0EEC2IivEEOT_
FN:2050,_ZNSt3__122__compressed_pair_elemIPNS_6vectorIbNS_9allocatorIbEEEELi0ELb0EEC2IDnvEEOT_
FN:2064,_ZNSt3__122__compressed_pair_elemImLi0ELb0EE5__getEv
FN:2064,_ZNSt3__122__compressed_pair_elemIPNS_6vectorIbNS_9allocatorIbEEEELi0ELb0EE5__getEv
FN:2066,_ZNKSt3__122__compressed_pair_elemINS_12basic_stringIcNS_11char_traitsIcEENS_9allocatorIcEEE5__repELi0ELb0EE5__getEv
FN:2066,_ZNKSt3__122__compressed_pair_elemIPNS_6vectorIbNS_9allocatorIbEEEELi0ELb0EE5__getEv
FN:2080,_ZNSt3__122__compressed_pair_elemINS_9allocatorINS_6vectorIbNS1_IbEEEEEELi1ELb1EEC2Ev
FN:2080,_ZNSt3__122__compressed_pair_elemINS_9allocatorImEELi1ELb1EEC2Ev
FN:2080,_ZNSt3__122__compressed_pair_elemINS_9allocatorIcEELi1ELb1EEC2Ev
FN:2087,_ZNSt3__122__compressed_pair_elemINS_9allocatorImEELi1ELb1EEC2IS2_vEEOT_
FN:2087,_ZNSt3__122__compressed_pair_elemINS_9allocatorINS_6vectorIbNS1_IbEEEEEELi1ELb1EEC2IRKS5_vEEOT_
FN:2102,_ZNSt3__122__compressed_pair_elemINS_9allocatorINS_6vectorIbNS1_IbEEEEEELi1ELb1EE5__getEv
FN:2102,_ZNSt3__122__compressed_pair_elemINS_9allocatorImEELi1ELb1EE5__getEv
FN:2104,_ZNKSt3__122__compressed_pair_elemINS_9allocatorINS_6vectorIbNS1_IbEEEEEELi1ELb1EE5__getEv
FN:2104,_ZNKSt3__122__compressed_pair_elemINS_9allocatorImEELi1ELb1EE5__getEv
FN:2134,_ZNSt3__117__compressed_pairINS_12basic_stringIcNS_11char_traitsIcEENS_9allocatorIcEEE5__repES5_EC1ILb1EvEEv
FN:2134,_ZNSt3__117__compressed_pairINS_12basic_stringIcNS_11char_traitsIcEENS_9allocatorIcEEE5__repES5_EC2ILb1EvEEv
FN:2140,_ZNSt3__117__compressed_pairIPNS_6vectorIbNS_9allocatorIbEEEENS2_IS4_EEEC1IDnLb1EEEOT_
FN:2140,_ZNSt3__117__compressed_pairImNS_9allocatorImEEEC1IiLb1EEEOT_
FN:2140,_ZNSt3__117__compressed_pairIPNS_6vectorIbNS_9allocatorIbEEEENS2_IS4_EEEC2IDnLb1EEEOT_
FN:2140,_ZNSt3__117__compressed_pairImNS_9allocatorImEEEC2IiLb1EEEOT_
FN:2150,_ZNSt3__117__compressed_pairImNS_9allocatorImEEEC1IiS2_EEOT_OT0_
FN:2150,_ZNSt3__117__compressed_pairIPNS_6vectorIbNS_9allocatorIbEEEENS2_IS4_EEEC1IDnRKS6_EEOT_OT0_
FN:2150,_ZNSt3__117__compressed_pairImNS_9allocatorImEEEC2IiS2_EEOT_OT0_
FN:2150,_ZNSt3__117__compressed_pairIPNS_6vectorIbNS_9allocatorIbEEEENS2_IS4_EEEC2IDnRKS6_EEOT_OT0_
FN:2179,_ZNSt3__117__compressed_pairImNS_9allocatorImEEE5firstEv
FN:2179,_ZNSt3__117__compressed_pairIPNS_6vectorIbNS_9allocatorIbEEEENS2_IS4_EEE5firstEv
FN:2184,_ZNKSt3__117__compressed_pairINS_12basic_stringIcNS_11char_traitsIcEENS_9allocatorIcEEE5__repES5_E5firstEv
FN:2184,_ZNKSt3__117__compressed_pairIPNS_6vectorIbNS_9allocatorIbEEEENS2_IS4_EEE5firstEv
FN:2189,_ZNSt3__117__compressed_pairImNS_9allocatorImEEE6secondEv
FN:2189,_ZNSt3__117__compressed_pairIPNS_6vectorIbNS_9allocatorIbEEEENS2_IS4_EEE6secondEv
FN:2194,_ZNKSt3__117__compressed_pairIPNS_6vectorIbNS_9allocatorIbEEEENS2_IS4_EEE6secondEv
FN:2194,_ZNKSt3__117__compressed_pairImNS_9allocatorImEEE6secondEv
FNDA:0,_ZNSt3__114pointer_traitsIPKcE10pointer_toERS1_
FNDA:0,_ZNSt3__116__to_raw_pointerINS_6vectorIbNS_9allocatorIbEEEEEEPT_S6_
FNDA:0,_ZNSt3__116__to_raw_pointerIKcEEPT_S3_
FNDA:0,_ZNSt3__116__to_raw_pointerImEEPT_S2_
FNDA:0,_ZNSt3__116__to_raw_pointerIKmEEPT_S3_
FNDA:0,_ZNSt3__116allocator_traitsINS_9allocatorImEEE8allocateERS2_m
FNDA:0,_ZNSt3__116allocator_traitsINS_9allocatorINS_6vectorIbNS1_IbEEEEEEE8allocateERS5_m
FNDA:0,_ZNSt3__116allocator_traitsINS_9allocatorINS_6vectorIbNS1_IbEEEEEEE10deallocateERS5_PS4_m
FNDA:0,_ZNSt3__116allocator_traitsINS_9allocatorImEEE10deallocateERS2_Pmm
FNDA:0,_ZNSt3__116allocator_traitsINS_9allocatorINS_6vectorIbNS1_IbEEEEEEE9constructIS4_JRKS4_EEEvRS5_PT_DpOT0_
FNDA:0,_ZNSt3__116allocator_traitsINS_9allocatorINS_6vectorIbNS1_IbEEEEEEE9constructIS4_JRS4_EEEvRS5_PT_DpOT0_
FNDA:0,_ZNSt3__116allocator_traitsINS_9allocatorINS_6vectorIbNS1_IbEEEEEEE7destroyIS4_EEvRS5_PT_
FNDA:0,_ZNSt3__116allocator_traitsINS_9allocatorImEEE8max_sizeERKS2_
FNDA:0,_ZNSt3__116allocator_traitsINS_9allocatorINS_6vectorIbNS1_IbEEEEEEE8max_sizeERKS5_
FNDA:0,_ZNSt3__116allocator_traitsINS_9allocatorImEEE37select_on_container_copy_constructionERKS2_
FNDA:0,_ZNSt3__116allocator_traitsINS_9allocatorINS_6vectorIbNS1_IbEEEEEEE37select_on_container_copy_constructionERKS5_
FNDA:0,_ZNSt3__116allocator_traitsINS_9allocatorINS_6vectorIbNS1_IbEEEEEEE25__construct_range_forwardIPKS4_PS4_EEvRS5_T_SC_RT0_
FNDA:0,_ZNSt3__116allocator_traitsINS_9allocatorINS_6vectorIbNS1_IbEEEEEEE25__construct_range_forwardIPS4_S8_EEvRS5_T_SA_RT0_
FNDA:0,_ZNSt3__116allocator_traitsINS_9allocatorINS_6vectorIbNS1_IbEEEEEEE11__constructIS4_JRKS4_EEEvNS_17integral_constantIbLb1EEERS5_PT_DpOT0_
FNDA:0,_ZNSt3__116allocator_traitsINS_9allocatorINS_6vectorIbNS1_IbEEEEEEE11__constructIS4_JRS4_EEEvNS_17integral_constantIbLb1EEERS5_PT_DpOT0_
FNDA:0,_ZNSt3__116allocator_traitsINS_9allocatorINS_6vectorIbNS1_IbEEEEEEE9__destroyIS4_EEvNS_17integral_constantIbLb1EEERS5_PT_
FNDA:0,_ZNSt3__116allocator_traitsINS_9allocatorImEEE10__max_sizeENS_17integral_constantIbLb1EEERKS2_
FNDA:0,_ZNSt3__116allocator_traitsINS_9allocatorINS_6vectorIbNS1_IbEEEEEEE10__max_sizeENS_17integral_constantIbLb1EEERKS5_
FNDA:0,_ZNSt3__116allocator_traitsINS_9allocatorImEEE39__select_on_container_copy_constructionENS_17integral_constantIbLb0EEERKS2_
FNDA:0,_ZNSt3__116allocator_traitsINS_9allocatorINS_6vectorIbNS1_IbEEEEEEE39__select_on_container_copy_constructionENS_17integral_constantIbLb0EEERKS5_
FNDA:12,_ZNSt3__19allocatorIcEC2Ev
FNDA:0,_ZNSt3__19allocatorImEC2Ev
FNDA:6,_ZNSt3__19allocatorINS_6vectorIbNS0_IbEEEEEC2Ev
FNDA:0,_ZNSt3__19allocatorImE8allocateEmPKv
FNDA:0,_ZNSt3__19allocatorINS_6vectorIbNS0_IbEEEEE8allocateEmPKv
FNDA:0,_ZNSt3__19allocatorINS_6vectorIbNS0_IbEEEEE10deallocateEPS3_m
FNDA:0,_ZNSt3__19allocatorImE10deallocateEPmm
FNDA:0,_ZNKSt3__19allocatorImE8max_sizeEv
FNDA:0,_ZNKSt3__19allocatorINS_6vectorIbNS0_IbEEEEE8max_sizeEv
FNDA:0,_ZNSt3__19allocatorINS_6vectorIbNS0_IbEEEEE9constructIS3_JRKS3_EEEvPT_DpOT0_
FNDA:0,_ZNSt3__19allocatorINS_6vectorIbNS0_IbEEEEE9constructIS3_JRS3_EEEvPT_DpOT0_
FNDA:0,_ZNSt3__19allocatorINS_6vectorIbNS0_IbEEEEE7destroyEPS3_
FNDA:12,_ZNSt3__122__compressed_pair_elemINS_12basic_stringIcNS_11char_traitsIcEENS_9allocatorIcEEE5__repELi0ELb0EEC2Ev
FNDA:0,_ZNSt3__122__compressed_pair_elemImLi0ELb0EEC2IivEEOT_
FNDA:6,_ZNSt3__122__compressed_pair_elemIPNS_6vectorIbNS_9allocatorIbEEEELi0ELb0EEC2IDnvEEOT_
FNDA:0,_ZNSt3__122__compressed_pair_elemImLi0ELb0EE5__getEv
FNDA:0,_ZNSt3__122__compressed_pair_elemIPNS_6vectorIbNS_9allocatorIbEEEELi0ELb0EE5__getEv
FNDA:0,_ZNKSt3__122__compressed_pair_elemIPNS_6vectorIbNS_9allocatorIbEEEELi0ELb0EE5__getEv
FNDA:0,_ZNKSt3__122__compressed_pair_elemINS_12basic_stringIcNS_11char_traitsIcEENS_9allocatorIcEEE5__repELi0ELb0EE5__getEv
FNDA:12,_ZNSt3__122__compressed_pair_elemINS_9allocatorIcEELi1ELb1EEC2Ev
FNDA:0,_ZNSt3__122__compressed_pair_elemINS_9allocatorImEELi1ELb1EEC2Ev
FNDA:6,_ZNSt3__122__compressed_pair_elemINS_9allocatorINS_6vectorIbNS1_IbEEEEEELi1ELb1EEC2Ev
FNDA:0,_ZNSt3__122__compressed_pair_elemINS_9allocatorImEELi1ELb1EEC2IS2_vEEOT_
FNDA:0,_ZNSt3__122__compressed_pair_elemINS_9allocatorINS_6vectorIbNS1_IbEEEEEELi1ELb1EEC2IRKS5_vEEOT_
FNDA:0,_ZNSt3__122__compressed_pair_elemINS_9allocatorINS_6vectorIbNS1_IbEEEEEELi1ELb1EE5__getEv
FNDA:0,_ZNSt3__122__compressed_pair_elemINS_9allocatorImEELi1ELb1EE5__getEv
FNDA:0,_ZNKSt3__122__compressed_pair_elemINS_9allocatorImEELi1ELb1EE5__getEv
FNDA:0,_ZNKSt3__122__compressed_pair_elemINS_9allocatorINS_6vectorIbNS1_IbEEEEEELi1ELb1EE5__getEv
FNDA:12,_ZNSt3__117__compressed_pairINS_12basic_stringIcNS_11char_traitsIcEENS_9allocatorIcEEE5__repES5_EC1ILb1EvEEv
FNDA:12,_ZNSt3__117__compressed_pairINS_12basic_stringIcNS_11char_traitsIcEENS_9allocatorIcEEE5__repES5_EC2ILb1EvEEv
FNDA:0,_ZNSt3__117__compressed_pairImNS_9allocatorImEEEC1IiLb1EEEOT_
FNDA:0,_ZNSt3__117__compressed_pairImNS_9allocatorImEEEC2IiLb1EEEOT_
FNDA:6,_ZNSt3__117__compressed_pairIPNS_6vectorIbNS_9allocatorIbEEEENS2_IS4_EEEC1IDnLb1EEEOT_
FNDA:6,_ZNSt3__117__compressed_pairIPNS_6vectorIbNS_9allocatorIbEEEENS2_IS4_EEEC2IDnLb1EEEOT_
FNDA:0,_ZNSt3__117__compressed_pairImNS_9allocatorImEEEC1IiS2_EEOT_OT0_
FNDA:0,_ZNSt3__117__compressed_pairImNS_9allocatorImEEEC2IiS2_EEOT_OT0_
FNDA:0,_ZNSt3__117__compressed_pairIPNS_6vectorIbNS_9allocatorIbEEEENS2_IS4_EEEC1IDnRKS6_EEOT_OT0_
FNDA:0,_ZNSt3__117__compressed_pairIPNS_6vectorIbNS_9allocatorIbEEEENS2_IS4_EEEC2IDnRKS6_EEOT_OT0_
FNDA:0,_ZNSt3__117__compressed_pairImNS_9allocatorImEEE5firstEv
FNDA:0,_ZNSt3__117__compressed_pairIPNS_6vectorIbNS_9allocatorIbEEEENS2_IS4_EEE5firstEv
FNDA:0,_ZNKSt3__117__compressed_pairIPNS_6vectorIbNS_9allocatorIbEEEENS2_IS4_EEE5firstEv
FNDA:0,_ZNKSt3__117__compressed_pairINS_12basic_stringIcNS_11char_traitsIcEENS_9allocatorIcEEE5__repES5_E5firstEv
FNDA:0,_ZNSt3__117__compressed_pairIPNS_6vectorIbNS_9allocatorIbEEEENS2_IS4_EEE6secondEv
FNDA:0,_ZNSt3__117__compressed_pairImNS_9allocatorImEEE6secondEv
FNDA:0,_ZNKSt3__117__compressed_pairImNS_9allocatorImEEE6secondEv
FNDA:0,_ZNKSt3__117__compressed_pairIPNS_6vectorIbNS_9allocatorIbEEEENS2_IS4_EEE6secondEv
FNF:71
FNH:10
DA:979,0
DA:1097,0
DA:1502,0
DA:1510,0
DA:1516,0
DA:1517,0
DA:1550,0
DA:1554,0
DA:1559,0
DA:1560,0
DA:1561,0
DA:1599,0
DA:1600,0
DA:1601,0
DA:1670,0
DA:1682,0
DA:1692,0
DA:1704,0
DA:1736,18
DA:1744,0
DA:1745,0
DA:1747,0
DA:1750,0
DA:1752,0
DA:1759,0
DA:1760,0
DA:1814,0
DA:2043,12
DA:2051,6
DA:2064,0
DA:2066,0
DA:2080,18
DA:2088,0
DA:2102,0
DA:2104,0
DA:2134,24
DA:2141,12
DA:2151,0
DA:2180,0
DA:2185,0
DA:2190,0
DA:2195,0
LF:42
LH:6
end_of_record
SF:/Applications/Xcode.app/Contents/Developer/Toolchains/XcodeDefault.xctoolchain/usr/include/c++/v1/new
FN:222,_ZNSt3__110__allocateEm
FN:230,_ZNSt3__119__libcpp_deallocateEPv
FNDA:0,_ZNSt3__110__allocateEm
FNDA:0,_ZNSt3__119__libcpp_deallocateEPv
FNF:2
FNH:0
DA:226,0
DA:234,0
DA:236,0
LF:3
LH:0
end_of_record
SF:/Applications/Xcode.app/Contents/Developer/Toolchains/XcodeDefault.xctoolchain/usr/include/c++/v1/stdexcept
FN:136,_ZNSt12length_errorC1EPKc
FN:136,_ZNSt12length_errorC2EPKc
FN:222,_ZNSt3__120__throw_length_errorEPKc
FNDA:0,_ZNSt12length_errorC1EPKc
FNDA:0,_ZNSt12length_errorC2EPKc
FNDA:0,_ZNSt3__120__throw_length_errorEPKc
FNF:3
FNH:0
DA:136,0
DA:225,0
DA:230,0
LF:3
LH:0
end_of_record
SF:/Applications/Xcode.app/Contents/Developer/Toolchains/XcodeDefault.xctoolchain/usr/include/c++/v1/string
FN:1127,_ZNKSt3__112basic_stringIcNS_11char_traitsIcEENS_9allocatorIcEEE5c_strEv
FN:1129,_ZNKSt3__112basic_stringIcNS_11char_traitsIcEENS_9allocatorIcEEE4dataEv
FN:1220,_ZNKSt3__112basic_stringIcNS_11char_traitsIcEENS_9allocatorIcEEE9__is_longEv
FN:1302,_ZNKSt3__112basic_stringIcNS_11char_traitsIcEENS_9allocatorIcEEE18__get_long_pointerEv
FN:1308,_ZNKSt3__112basic_stringIcNS_11char_traitsIcEENS_9allocatorIcEEE19__get_short_pointerEv
FN:1314,_ZNKSt3__112basic_stringIcNS_11char_traitsIcEENS_9allocatorIcEEE13__get_pointerEv
FN:1568,_ZNSt3__112basic_stringIcNS_11char_traitsIcEENS_9allocatorIcEEEC1EPKc
FN:1568,_ZNSt3__112basic_stringIcNS_11char_traitsIcEENS_9allocatorIcEEEC2EPKc
FNDA:0,_ZNKSt3__112basic_stringIcNS_11char_traitsIcEENS_9allocatorIcEEE5c_strEv
FNDA:0,_ZNKSt3__112basic_stringIcNS_11char_traitsIcEENS_9allocatorIcEEE4dataEv
FNDA:0,_ZNKSt3__112basic_stringIcNS_11char_traitsIcEENS_9allocatorIcEEE9__is_longEv
FNDA:0,_ZNKSt3__112basic_stringIcNS_11char_traitsIcEENS_9allocatorIcEEE18__get_long_pointerEv
FNDA:0,_ZNKSt3__112basic_stringIcNS_11char_traitsIcEENS_9allocatorIcEEE19__get_short_pointerEv
FNDA:0,_ZNKSt3__112basic_stringIcNS_11char_traitsIcEENS_9allocatorIcEEE13__get_pointerEv
FNDA:12,_ZNSt3__112basic_stringIcNS_11char_traitsIcEENS_9allocatorIcEEEC1EPKc
FNDA:12,_ZNSt3__112basic_stringIcNS_11char_traitsIcEENS_9allocatorIcEEEC2EPKc
FNF:8
FNH:2
DA:775,12
DA:1127,0
DA:1129,0
DA:1221,0
DA:1303,0
DA:1309,0
DA:1315,0
DA:1569,24
DA:1571,12
DA:1575,24
LF:10
LH:4
end_of_record
SF:/Applications/Xcode.app/Contents/Developer/Toolchains/XcodeDefault.xctoolchain/usr/include/c++/v1/type_traits
FN:437,_ZNSt3__19addressofIKcEEPT_RS2_
FN:2219,_ZNSt3__17forwardIRKNS_9allocatorINS_6vectorIbNS1_IbEEEEEEEEOT_RNS_16remove_referenceIS8_E4typeE
FN:2219,_ZNSt3__17forwardINS_9allocatorImEEEEOT_RNS_16remove_referenceIS3_E4typeE
FN:2219,_ZNSt3__17forwardIiEEOT_RNS_16remove_referenceIS1_E4typeE
FN:2219,_ZNSt3__17forwardIRKNS_6vectorIbNS_9allocatorIbEEEEEEOT_RNS_16remove_referenceIS7_E4typeE
FN:2219,_ZNSt3__17forwardIDnEEOT_RNS_16remove_referenceIS1_E4typeE
FN:2219,_ZNSt3__17forwardIRNS_6vectorIbNS_9allocatorIbEEEEEEOT_RNS_16remove_referenceIS6_E4typeE
FNDA:0,_ZNSt3__19addressofIKcEEPT_RS2_
FNDA:0,_ZNSt3__17forwardIiEEOT_RNS_16remove_referenceIS1_E4typeE
FNDA:12,_ZNSt3__17forwardIDnEEOT_RNS_16remove_referenceIS1_E4typeE
FNDA:0,_ZNSt3__17forwardIRKNS_6vectorIbNS_9allocatorIbEEEEEEOT_RNS_16remove_referenceIS7_E4typeE
FNDA:0,_ZNSt3__17forwardINS_9allocatorImEEEEOT_RNS_16remove_referenceIS3_E4typeE
FNDA:0,_ZNSt3__17forwardIRKNS_9allocatorINS_6vectorIbNS1_IbEEEEEEEEOT_RNS_16remove_referenceIS8_E4typeE
FNDA:0,_ZNSt3__17forwardIRNS_6vectorIbNS_9allocatorIbEEEEEEOT_RNS_16remove_referenceIS6_E4typeE
FNF:7
FNH:1
DA:439,0
DA:2221,12
LF:2
LH:1
end_of_record
SF:/Applications/Xcode.app/Contents/Developer/Toolchains/XcodeDefault.xctoolchain/usr/include/c++/v1/vector
FN:294,_ZNSt3__120__vector_base_commonILb1EEC2Ev
FN:337,_ZNSt3__113__vector_baseINS_6vectorIbNS_9allocatorIbEEEENS2_IS4_EEE7__allocEv
FN:340,_ZNKSt3__113__vector_baseINS_6vectorIbNS_9allocatorIbEEEENS2_IS4_EEE7__allocEv
FN:343,_ZNSt3__113__vector_baseINS_6vectorIbNS_9allocatorIbEEEENS2_IS4_EEE9__end_capEv
FN:346,_ZNKSt3__113__vector_baseINS_6vectorIbNS_9allocatorIbEEEENS2_IS4_EEE9__end_capEv
FN:356,_ZNSt3__113__vector_baseINS_6vectorIbNS_9allocatorIbEEEENS2_IS4_EEE5clearEv
FN:358,_ZNKSt3__113__vector_baseINS_6vectorIbNS_9allocatorIbEEEENS2_IS4_EEE8capacityEv
FN:409,_ZNSt3__113__vector_baseINS_6vectorIbNS_9allocatorIbEEEENS2_IS4_EEE17__destruct_at_endEPS4_
FN:419,_ZNSt3__113__vector_baseINS_6vectorIbNS_9allocatorIbEEEENS2_IS4_EEEC2Ev
FN:429,_ZNSt3__113__vector_baseINS_6vectorIbNS_9allocatorIbEEEENS2_IS4_EEEC2ERKS5_
FN:437,_ZNSt3__113__vector_baseINS_6vectorIbNS_9allocatorIbEEEENS2_IS4_EEED2Ev
FN:447,_ZNSt3__16vectorINS0_IbNS_9allocatorIbEEEENS1_IS3_EEED2Ev
FN:447,_ZNSt3__16vectorINS0_IbNS_9allocatorIbEEEENS1_IS3_EEED1Ev
FN:632,_ZNKSt3__16vectorINS0_IbNS_9allocatorIbEEEENS1_IS3_EEE4sizeEv
FN:635,_ZNKSt3__16vectorINS0_IbNS_9allocatorIbEEEENS1_IS3_EEE8capacityEv
FN:674,_ZNKSt3__16vectorINS0_IbNS_9allocatorIbEEEENS1_IS3_EEE4dataEv
FN:827,_ZNKSt3__16vectorINS0_IbNS_9allocatorIbEEEENS1_IS3_EEE31__annotate_contiguous_containerEPKvS7_S7_S7_
FN:831,_ZNKSt3__16vectorINS0_IbNS_9allocatorIbEEEENS1_IS3_EEE14__annotate_newEm
FN:875,_ZNSt3__16vectorINS0_IbNS_9allocatorIbEEEENS1_IS3_EEE24__RAII_IncreaseAnnotatorC1ERKS5_m
FN:875,_ZNSt3__16vectorINS0_IbNS_9allocatorIbEEEENS1_IS3_EEE24__RAII_IncreaseAnnotatorC2ERKS5_m
FN:876,_ZNSt3__16vectorINS0_IbNS_9allocatorIbEEEENS1_IS3_EEE24__RAII_IncreaseAnnotator6__doneEv
FN:922,_ZNSt3__16vectorINS0_IbNS_9allocatorIbEEEENS1_IS3_EEE8allocateEm
FN:945,_ZNKSt3__16vectorINS0_IbNS_9allocatorIbEEEENS1_IS3_EEE8max_sizeEv
FN:1015,_ZNSt3__16vectorINS0_IbNS_9allocatorIbEEEENS1_IS3_EEE18__construct_at_endIPS3_EENS_9enable_ifIXsr21__is_forward_iteratorIT_EE5valueEvE4typeES9_S9_m
FN:1015,_ZNSt3__16vectorINS0_IbNS_9allocatorIbEEEENS1_IS3_EEE18__construct_at_endIPKS3_EENS_9enable_ifIXsr21__is_forward_iteratorIT_EE5valueEvE4typeESA_SA_m
FN:1192,_ZNSt3__16vectorINS0_IbNS_9allocatorIbEEEENS1_IS3_EEEC1ERKS5_
FN:1192,_ZNSt3__16vectorINS0_IbNS_9allocatorIbEEEENS1_IS3_EEEC2ERKS5_
FN:1270,_ZNSt3__16vectorINS0_IbNS_9allocatorIbEEEENS1_IS3_EEEC2ESt16initializer_listIS3_E
FN:1270,_ZNSt3__16vectorINS0_IbNS_9allocatorIbEEEENS1_IS3_EEEC1ESt16initializer_listIS3_E
FN:2169,_ZNSt3__16vectorIbNS_9allocatorIbEEE5__capEv
FN:2175,_ZNSt3__16vectorIbNS_9allocatorIbEEE7__allocEv
FN:2178,_ZNKSt3__16vectorIbNS_9allocatorIbEEE7__allocEv
FN:2184,_ZNSt3__16vectorIbNS_9allocatorIbEEE26__internal_cap_to_externalEm
FN:2187,_ZNSt3__16vectorIbNS_9allocatorIbEEE26__external_cap_to_internalEm
FN:2280,_ZNKSt3__16vectorIbNS_9allocatorIbEEE4sizeEv
FN:2292,_ZNKSt3__16vectorIbNS_9allocatorIbEEE5beginEv
FN:2298,_ZNKSt3__16vectorIbNS_9allocatorIbEEE3endEv
FN:2430,_ZNSt3__16vectorIbNS_9allocatorIbEEE11__make_iterEm
FN:2433,_ZNKSt3__16vectorIbNS_9allocatorIbEEE11__make_iterEm
FN:2490,_ZNSt3__16vectorIbNS_9allocatorIbEEE26__invalidate_all_iteratorsEv
FN:2503,_ZNSt3__16vectorIbNS_9allocatorIbEEE8allocateEm
FN:2528,_ZNKSt3__16vectorIbNS_9allocatorIbEEE8max_sizeEv
FN:2573,_ZNSt3__16vectorIbNS_9allocatorIbEEE18__construct_at_endINS_14__bit_iteratorIS3_Lb1ELm0EEEEENS_9enable_ifIXsr21__is_forward_iteratorIT_EE5valueEvE4typeES8_S8_
FN:2573,_ZNSt3__16vectorIbNS_9allocatorIbEEE18__construct_at_endIPKbEENS_9enable_ifIXsr21__is_forward_iteratorIT_EE5valueEvE4typeES8_S8_
FN:2747,_ZNSt3__16vectorIbNS_9allocatorIbEEEC1ESt16initializer_listIbE
FN:2747,_ZNSt3__16vectorIbNS_9allocatorIbEEEC2ESt16initializer_listIbE
FN:2777,_ZNSt3__16vectorIbNS_9allocatorIbEEED2Ev
FN:2777,_ZNSt3__16vectorIbNS_9allocatorIbEEED1Ev
FN:2785,_ZNSt3__16vectorIbNS_9allocatorIbEEEC2ERKS3_
FN:2785,_ZNSt3__16vectorIbNS_9allocatorIbEEEC1ERKS3_
FNDA:6,_ZNSt3__120__vector_base_commonILb1EEC2Ev
FNDA:0,_ZNSt3__113__vector_baseINS_6vectorIbNS_9allocatorIbEEEENS2_IS4_EEE7__allocEv
FNDA:0,_ZNKSt3__113__vector_baseINS_6vectorIbNS_9allocatorIbEEEENS2_IS4_EEE7__allocEv
FNDA:0,_ZNSt3__113__vector_baseINS_6vectorIbNS_9allocatorIbEEEENS2_IS4_EEE9__end_capEv
FNDA:0,_ZNKSt3__113__vector_baseINS_6vectorIbNS_9allocatorIbEEEENS2_IS4_EEE9__end_capEv
FNDA:0,_ZNSt3__113__vector_baseINS_6vectorIbNS_9allocatorIbEEEENS2_IS4_EEE5clearEv
FNDA:0,_ZNKSt3__113__vector_baseINS_6vectorIbNS_9allocatorIbEEEENS2_IS4_EEE8capacityEv
FNDA:0,_ZNSt3__113__vector_baseINS_6vectorIbNS_9allocatorIbEEEENS2_IS4_EEE17__destruct_at_endEPS4_
FNDA:6,_ZNSt3__113__vector_baseINS_6vectorIbNS_9allocatorIbEEEENS2_IS4_EEEC2Ev
FNDA:0,_ZNSt3__113__vector_baseINS_6vectorIbNS_9allocatorIbEEEENS2_IS4_EEEC2ERKS5_
FNDA:0,_ZNSt3__113__vector_baseINS_6vectorIbNS_9allocatorIbEEEENS2_IS4_EEED2Ev
FNDA:0,_ZNSt3__16vectorINS0_IbNS_9allocatorIbEEEENS1_IS3_EEED1Ev
FNDA:0,_ZNSt3__16vectorINS0_IbNS_9allocatorIbEEEENS1_IS3_EEED2Ev
FNDA:0,_ZNKSt3__16vectorINS0_IbNS_9allocatorIbEEEENS1_IS3_EEE4sizeEv
FNDA:0,_ZNKSt3__16vectorINS0_IbNS_9allocatorIbEEEENS1_IS3_EEE8capacityEv
FNDA:0,_ZNKSt3__16vectorINS0_IbNS_9allocatorIbEEEENS1_IS3_EEE4dataEv
FNDA:0,_ZNKSt3__16vectorINS0_IbNS_9allocatorIbEEEENS1_IS3_EEE31__annotate_contiguous_containerEPKvS7_S7_S7_
FNDA:0,_ZNKSt3__16vectorINS0_IbNS_9allocatorIbEEEENS1_IS3_EEE14__annotate_newEm
FNDA:0,_ZNSt3__16vectorINS0_IbNS_9allocatorIbEEEENS1_IS3_EEE24__RAII_IncreaseAnnotatorC1ERKS5_m
FNDA:0,_ZNSt3__16vectorINS0_IbNS_9allocatorIbEEEENS1_IS3_EEE24__RAII_IncreaseAnnotatorC2ERKS5_m
FNDA:0,_ZNSt3__16vectorINS0_IbNS_9allocatorIbEEEENS1_IS3_EEE24__RAII_IncreaseAnnotator6__doneEv
FNDA:0,_ZNSt3__16vectorINS0_IbNS_9allocatorIbEEEENS1_IS3_EEE8allocateEm
FNDA:0,_ZNKSt3__16vectorINS0_IbNS_9allocatorIbEEEENS1_IS3_EEE8max_sizeEv
FNDA:0,_ZNSt3__16vectorINS0_IbNS_9allocatorIbEEEENS1_IS3_EEE18__construct_at_endIPKS3_EENS_9enable_ifIXsr21__is_forward_iteratorIT_EE5valueEvE4typeESA_SA_m
FNDA:0,_ZNSt3__16vectorINS0_IbNS_9allocatorIbEEEENS1_IS3_EEE18__construct_at_endIPS3_EENS_9enable_ifIXsr21__is_forward_iteratorIT_EE5valueEvE4typeES9_S9_m
FNDA:0,_ZNSt3__16vectorINS0_IbNS_9allocatorIbEEEENS1_IS3_EEEC1ERKS5_
FNDA:0,_ZNSt3__16vectorINS0_IbNS_9allocatorIbEEEENS1_IS3_EEEC2ERKS5_
FNDA:6,_ZNSt3__16vectorINS0_IbNS_9allocatorIbEEEENS1_IS3_EEEC1ESt16initializer_listIS3_E
FNDA:6,_ZNSt3__16vectorINS0_IbNS_9allocatorIbEEEENS1_IS3_EEEC2ESt16initializer_listIS3_E
FNDA:0,_ZNSt3__16vectorIbNS_9allocatorIbEEE5__capEv
FNDA:0,_ZNSt3__16vectorIbNS_9allocatorIbEEE7__allocEv
FNDA:0,_ZNKSt3__16vectorIbNS_9allocatorIbEEE7__allocEv
FNDA:0,_ZNSt3__16vectorIbNS_9allocatorIbEEE26__internal_cap_to_externalEm
FNDA:0,_ZNSt3__16vectorIbNS_9allocatorIbEEE26__external_cap_to_internalEm
FNDA:0,_ZNKSt3__16vectorIbNS_9allocatorIbEEE4sizeEv
FNDA:0,_ZNKSt3__16vectorIbNS_9allocatorIbEEE5beginEv
FNDA:0,_ZNKSt3__16vectorIbNS_9allocatorIbEEE3endEv
FNDA:0,_ZNSt3__16vectorIbNS_9allocatorIbEEE11__make_iterEm
FNDA:0,_ZNKSt3__16vectorIbNS_9allocatorIbEEE11__make_iterEm
FNDA:0,_ZNSt3__16vectorIbNS_9allocatorIbEEE26__invalidate_all_iteratorsEv
FNDA:0,_ZNSt3__16vectorIbNS_9allocatorIbEEE8allocateEm
FNDA:0,_ZNKSt3__16vectorIbNS_9allocatorIbEEE8max_sizeEv
FNDA:0,_ZNSt3__16vectorIbNS_9allocatorIbEEE18__construct_at_endIPKbEENS_9enable_ifIXsr21__is_forward_iteratorIT_EE5valueEvE4typeES8_S8_
FNDA:0,_ZNSt3__16vectorIbNS_9allocatorIbEEE18__construct_at_endINS_14__bit_iteratorIS3_Lb1ELm0EEEEENS_9enable_ifIXsr21__is_forward_iteratorIT_EE5valueEvE4typeES8_S8_
FNDA:0,_ZNSt3__16vectorIbNS_9allocatorIbEEEC1ESt16initializer_listIbE
FNDA:0,_ZNSt3__16vectorIbNS_9allocatorIbEEEC2ESt16initializer_listIbE
FNDA:0,_ZNSt3__16vectorIbNS_9allocatorIbEEED1Ev
FNDA:0,_ZNSt3__16vectorIbNS_9allocatorIbEEED2Ev
FNDA:0,_ZNSt3__16vectorIbNS_9allocatorIbEEEC1ERKS3_
FNDA:0,_ZNSt3__16vectorIbNS_9allocatorIbEEEC2ERKS3_
FNF:50
FNH:4
DA:294,6
DA:338,0
DA:341,0
DA:344,0
DA:347,0
DA:350,6
DA:352,0
DA:356,0
DA:359,0
DA:411,0
DA:412,0
DA:413,0
DA:414,0
DA:415,0
DA:421,6
DA:422,6
DA:423,6
DA:424,6
DA:425,6
DA:430,0
DA:431,0
DA:432,0
DA:433,0
DA:434,0
DA:439,0
DA:441,0
DA:442,0
DA:443,0
DA:444,0
DA:447,0
DA:541,6
DA:633,0
DA:636,0
DA:675,0
DA:828,0
DA:832,0
DA:833,0
DA:834,0
DA:875,0
DA:876,0
DA:924,0
DA:925,0
DA:926,0
DA:927,0
DA:928,0
DA:929,0
DA:947,0
DA:948,0
DA:1017,0
DA:1018,0
DA:1019,0
DA:1020,0
DA:1021,0
DA:1193,0
DA:1194,0
DA:1198,0
DA:1199,0
DA:1201,0
DA:1202,0
DA:1203,0
DA:1204,0
DA:1271,12
DA:1275,6
DA:1277,6
DA:1278,6
DA:1279,6
DA:1280,12
DA:2170,0
DA:2176,0
DA:2179,0
DA:2185,0
DA:2188,0
DA:2222,0
DA:2227,0
DA:2281,0
DA:2293,0
DA:2299,0
DA:2431,0
DA:2434,0
DA:2492,0
DA:2505,0
DA:2506,0
DA:2507,0
DA:2508,0
DA:2509,0
DA:2510,0
DA:2511,0
DA:2530,0
DA:2531,0
DA:2532,0
DA:2533,0
DA:2534,0
DA:2535,0
DA:2575,0
DA:2576,0
DA:2577,0
DA:2578,0
DA:2748,0
DA:2749,0
DA:2750,0
DA:2751,0
DA:2752,0
DA:2753,0
DA:2755,0
DA:2756,0
DA:2757,0
DA:2758,0
DA:2778,0
DA:2779,0
DA:2780,0
DA:2781,0
DA:2782,0
DA:2786,0
DA:2787,0
DA:2788,0
DA:2789,0
DA:2790,0
DA:2792,0
DA:2793,0
DA:2794,0
DA:2795,0
LF:121
LH:14
end_of_record
SF:/Users/vpomsztein/Documents/PrivateRepositories/Algoritmos1/TPI/juegoDeLaVida/lib/googletest-master/googletest/include/gtest/gtest-message.h
FN:85,_ZN7testing7MessageD1Ev
FN:85,_ZN7testing7MessageD2Ev
FNDA:0,_ZN7testing7MessageD1Ev
FNDA:0,_ZN7testing7MessageD2Ev
FNF:2
FNH:0
DA:85,0
LF:1
LH:0
end_of_record
SF:/Users/vpomsztein/Documents/PrivateRepositories/Algoritmos1/TPI/juegoDeLaVida/lib/googletest-master/googletest/include/gtest/gtest.h
FN:256,_ZN7testing15AssertionResultD2Ev
FN:256,_ZN7testing15AssertionResultD1Ev
FN:272,_ZN7testing15AssertionResultC2IbEERKT_PNS_8internal8EnableIfIXntsr8internal21ImplicitlyConvertibleIS2_S0_EE5valueEE4typeE
FN:272,_ZN7testing15AssertionResultC1IbEERKT_PNS_8internal8EnableIfIXntsr8internal21ImplicitlyConvertibleIS2_S0_EE5valueEE4typeE
FN:288,_ZNK7testing15AssertionResultcvbEv
FN:389,_ZN7testing4Test13SetUpTestCaseEv
FN:397,_ZN7testing4Test16TearDownTestCaseEv
FN:474,_ZN7testing4Test5SetupEv
FNDA:0,_ZN7testing15AssertionResultD1Ev
FNDA:0,_ZN7testing15AssertionResultD2Ev
FNDA:0,_ZN7testing15AssertionResultC1IbEERKT_PNS_8internal8EnableIfIXntsr8internal21ImplicitlyConvertibleIS2_S0_EE5valueEE4typeE
FNDA:0,_ZN7testing15AssertionResultC2IbEERKT_PNS_8internal8EnableIfIXntsr8internal21ImplicitlyConvertibleIS2_S0_EE5valueEE4typeE
FNDA:0,_ZNK7testing15AssertionResultcvbEv
FNDA:0,_ZN7testing4Test13SetUpTestCaseEv
FNDA:0,_ZN7testing4Test16TearDownTestCaseEv
FNDA:0,_ZN7testing4Test5SetupEv
FNF:8
FNH:0
DA:256,0
DA:272,0
DA:277,0
DA:288,0
DA:389,0
DA:397,0
DA:474,0
LF:7
LH:0
end_of_record
SF:/Users/vpomsztein/Documents/PrivateRepositories/Algoritmos1/TPI/juegoDeLaVida/lib/googletest-master/googletest/include/gtest/internal/gtest-internal.h
FN:466,_ZN7testing8internal15TestFactoryBaseD0Ev
FN:466,_ZN7testing8internal15TestFactoryBaseD2Ev
FN:466,_ZN7testing8internal15TestFactoryBaseD1Ev
FN:473,_ZN7testing8internal15TestFactoryBaseC2Ev
FN:482,_ZN7testing8internal15TestFactoryImplI39enCrecimientoTEST_todoFalsoNoCrece_TestEC2Ev
FN:482,_ZN7testing8internal15TestFactoryImplI39enCrecimientoTEST_todoFalsoNoCrece_TestED1Ev
FN:482,_ZN7testing8internal15TestFactoryImplI44enCrecimientoTEST_periodicoMantieneArea_TestED0Ev
FN:482,_ZN7testing8internal15TestFactoryImplI52enCrecimientoTEST_toroideDiagonalSeHaceTodoTrue_TestED2Ev
FN:482,_ZN7testing8internal15TestFactoryImplI52enCrecimientoTEST_toroideDiagonalSeHaceTodoTrue_TestED0Ev
FN:482,_ZN7testing8internal15TestFactoryImplI44enCrecimientoTEST_periodicoMantieneArea_TestEC2Ev
FN:482,_ZN7testing8internal15TestFactoryImplI52enCrecimientoTEST_toroideDiagonalSeHaceTodoTrue_TestED1Ev
FN:482,_ZN7testing8internal15TestFactoryImplI52enCrecimientoTEST_toroideDiagonalSeHaceTodoTrue_TestEC2Ev
FN:482,_ZN7testing8internal15TestFactoryImplI39enCrecimientoTEST_todoFalsoNoCrece_TestEC1Ev
FN:482,_ZN7testing8internal15TestFactoryImplI52enCrecimientoTEST_toroideDiagonalSeHaceTodoTrue_TestEC1Ev
FN:482,_ZN7testing8internal15TestFactoryImplI44enCrecimientoTEST_periodicoMantieneArea_TestED1Ev
FN:482,_ZN7testing8internal15TestFactoryImplI44enCrecimientoTEST_periodicoMantieneArea_TestEC1Ev
FN:482,_ZN7testing8internal15TestFactoryImplI39enCrecimientoTEST_todoFalsoNoCrece_TestED2Ev
FN:482,_ZN7testing8internal15TestFactoryImplI44enCrecimientoTEST_periodicoMantieneArea_TestED2Ev
FN:482,_ZN7testing8internal15TestFactoryImplI39enCrecimientoTEST_todoFalsoNoCrece_TestED0Ev
FN:484,_ZN7testing8internal15TestFactoryImplI52enCrecimientoTEST_toroideDiagonalSeHaceTodoTrue_TestE10CreateTestEv
FN:484,_ZN7testing8internal15TestFactoryImplI39enCrecimientoTEST_todoFalsoNoCrece_TestE10CreateTestEv
FN:484,_ZN7testing8internal15TestFactoryImplI44enCrecimientoTEST_periodicoMantieneArea_TestE10CreateTestEv
FN:504,_ZN7testing8internal12CodeLocationD1Ev
FN:504,_ZN7testing8internal12CodeLocationD2Ev
FN:505,_ZN7testing8internal12CodeLocationC2ERKNSt3__112basic_stringIcNS2_11char_traitsIcEENS2_9allocatorIcEEEEi
FN:505,_ZN7testing8internal12CodeLocationC1ERKNSt3__112basic_stringIcNS2_11char_traitsIcEENS2_9allocatorIcEEEEi
FNDA:0,_ZN7testing8internal15TestFactoryBaseD1Ev
FNDA:0,_ZN7testing8internal15TestFactoryBaseD0Ev
FNDA:0,_ZN7testing8internal15TestFactoryBaseD2Ev
FNDA:0,_ZN7testing8internal15TestFactoryBaseC2Ev
FNDA:4,_ZN7testing8internal15TestFactoryImplI52enCrecimientoTEST_toroideDiagonalSeHaceTodoTrue_TestEC1Ev
FNDA:4,_ZN7testing8internal15TestFactoryImplI39enCrecimientoTEST_todoFalsoNoCrece_TestEC1Ev
FNDA:4,_ZN7testing8internal15TestFactoryImplI44enCrecimientoTEST_periodicoMantieneArea_TestEC1Ev
FNDA:4,_ZN7testing8internal15TestFactoryImplI52enCrecimientoTEST_toroideDiagonalSeHaceTodoTrue_TestEC2Ev
FNDA:4,_ZN7testing8internal15TestFactoryImplI52enCrecimientoTEST_toroideDiagonalSeHaceTodoTrue_TestED1Ev
FNDA:4,_ZN7testing8internal15TestFactoryImplI52enCrecimientoTEST_toroideDiagonalSeHaceTodoTrue_TestED0Ev
FNDA:4,_ZN7testing8internal15TestFactoryImplI52enCrecimientoTEST_toroideDiagonalSeHaceTodoTrue_TestED2Ev
FNDA:4,_ZN7testing8internal15TestFactoryImplI39enCrecimientoTEST_todoFalsoNoCrece_TestEC2Ev
FNDA:4,_ZN7testing8internal15TestFactoryImplI39enCrecimientoTEST_todoFalsoNoCrece_TestED1Ev
FNDA:4,_ZN7testing8internal15TestFactoryImplI39enCrecimientoTEST_todoFalsoNoCrece_TestED0Ev
FNDA:4,_ZN7testing8internal15TestFactoryImplI39enCrecimientoTEST_todoFalsoNoCrece_TestED2Ev
FNDA:4,_ZN7testing8internal15TestFactoryImplI44enCrecimientoTEST_periodicoMantieneArea_TestEC2Ev
FNDA:4,_ZN7testing8internal15TestFactoryImplI44enCrecimientoTEST_periodicoMantieneArea_TestED1Ev
FNDA:4,_ZN7testing8internal15TestFactoryImplI44enCrecimientoTEST_periodicoMantieneArea_TestED0Ev
FNDA:4,_ZN7testing8internal15TestFactoryImplI44enCrecimientoTEST_periodicoMantieneArea_TestED2Ev
FNDA:2,_ZN7testing8internal15TestFactoryImplI52enCrecimientoTEST_toroideDiagonalSeHaceTodoTrue_TestE10CreateTestEv
FNDA:2,_ZN7testing8internal15TestFactoryImplI39enCrecimientoTEST_todoFalsoNoCrece_TestE10CreateTestEv
FNDA:2,_ZN7testing8internal15TestFactoryImplI44enCrecimientoTEST_periodicoMantieneArea_TestE10CreateTestEv
FNDA:0,_ZN7testing8internal12CodeLocationD1Ev
FNDA:0,_ZN7testing8internal12CodeLocationD2Ev
FNDA:0,_ZN7testing8internal12CodeLocationC1ERKNSt3__112basic_stringIcNS2_11char_traitsIcEENS2_9allocatorIcEEEEi
FNDA:0,_ZN7testing8internal12CodeLocationC2ERKNSt3__112basic_stringIcNS2_11char_traitsIcEENS2_9allocatorIcEEEEi
FNF:26
FNH:18
DA:466,0
DA:473,0
DA:482,60
DA:484,12
DA:504,0
DA:506,0
LF:6
LH:2
end_of_record
SF:/Users/vpomsztein/Documents/PrivateRepositories/Algoritmos1/TPI/juegoDeLaVida/lib/googletest-master/googletest/include/gtest/internal/gtest-port.h
FN:1156,_ZN7testing8internal10scoped_ptrINSt3__112basic_stringIcNS2_11char_traitsIcEENS2_9allocatorIcEEEEEC2EPS8_
FN:1156,_ZN7testing8internal10scoped_ptrINSt3__112basic_stringIcNS2_11char_traitsIcEENS2_9allocatorIcEEEEEC1EPS8_
FN:1157,_ZN7testing8internal10scoped_ptrINSt3__112basic_stringIcNS2_11char_traitsIcEENS2_9allocatorIcEEEEED2Ev
FN:1157,_ZN7testing8internal10scoped_ptrINSt3__118basic_stringstreamIcNS2_11char_traitsIcEENS2_9allocatorIcEEEEED2Ev
FN:1157,_ZN7testing8internal10scoped_ptrINSt3__118basic_stringstreamIcNS2_11char_traitsIcEENS2_9allocatorIcEEEEED1Ev
FN:1157,_ZN7testing8internal10scoped_ptrINSt3__112basic_stringIcNS2_11char_traitsIcEENS2_9allocatorIcEEEEED1Ev
FN:1169,_ZN7testing8internal10scoped_ptrINSt3__118basic_stringstreamIcNS2_11char_traitsIcEENS2_9allocatorIcEEEEE5resetEPS8_
FN:1169,_ZN7testing8internal10scoped_ptrINSt3__112basic_stringIcNS2_11char_traitsIcEENS2_9allocatorIcEEEEE5resetEPS8_
FNDA:0,_ZN7testing8internal10scoped_ptrINSt3__112basic_stringIcNS2_11char_traitsIcEENS2_9allocatorIcEEEEEC1EPS8_
FNDA:0,_ZN7testing8internal10scoped_ptrINSt3__112basic_stringIcNS2_11char_traitsIcEENS2_9allocatorIcEEEEEC2EPS8_
FNDA:0,_ZN7testing8internal10scoped_ptrINSt3__118basic_stringstreamIcNS2_11char_traitsIcEENS2_9allocatorIcEEEEED1Ev
FNDA:0,_ZN7testing8internal10scoped_ptrINSt3__118basic_stringstreamIcNS2_11char_traitsIcEENS2_9allocatorIcEEEEED2Ev
FNDA:0,_ZN7testing8internal10scoped_ptrINSt3__112basic_stringIcNS2_11char_traitsIcEENS2_9allocatorIcEEEEED1Ev
FNDA:0,_ZN7testing8internal10scoped_ptrINSt3__112basic_stringIcNS2_11char_traitsIcEENS2_9allocatorIcEEEEED2Ev
FNDA:0,_ZN7testing8internal10scoped_ptrINSt3__118basic_stringstreamIcNS2_11char_traitsIcEENS2_9allocatorIcEEEEE5resetEPS8_
FNDA:0,_ZN7testing8internal10scoped_ptrINSt3__112basic_stringIcNS2_11char_traitsIcEENS2_9allocatorIcEEEEE5resetEPS8_
FNF:8
FNH:0
DA:1156,0
DA:1157,0
DA:1170,0
DA:1171,0
DA:1172,0
DA:1173,0
DA:1174,0
DA:1175,0
DA:1176,0
LF:9
LH:0
end_of_record
SF:/Users/vpomsztein/Documents/PrivateRepositories/Algoritmos1/TPI/juegoDeLaVida/tests/enCrecimientoTEST.cpp
FN:7,_ZN52enCrecimientoTEST_toroideDiagonalSeHaceTodoTrue_TestC1Ev
FN:7,_ZN52enCrecimientoTEST_toroideDiagonalSeHaceTodoTrue_TestC2Ev
FN:7,_ZN52enCrecimientoTEST_toroideDiagonalSeHaceTodoTrue_TestD1Ev
FN:7,_ZN52enCrecimientoTEST_toroideDiagonalSeHaceTodoTrue_Test8TestBodyEv
FN:7,_ZN52enCrecimientoTEST_toroideDiagonalSeHaceTodoTrue_TestD0Ev
FN:7,__cxx_global_var_init
FN:7,_ZN52enCrecimientoTEST_toroideDiagonalSeHaceTodoTrue_TestD2Ev
FN:16,_ZN39enCrecimientoTEST_todoFalsoNoCrece_TestC2Ev
FN:16,_ZN39enCrecimientoTEST_todoFalsoNoCrece_TestD1Ev
FN:16,_ZN39enCrecimientoTEST_todoFalsoNoCrece_Test8TestBodyEv
FN:16,_ZN39enCrecimientoTEST_todoFalsoNoCrece_TestC1Ev
FN:16,_ZN39enCrecimientoTEST_todoFalsoNoCrece_TestD0Ev
FN:16,__cxx_global_var_init.8
FN:16,_ZN39enCrecimientoTEST_todoFalsoNoCrece_TestD2Ev
FN:25,_ZN44enCrecimientoTEST_periodicoMantieneArea_TestC1Ev
FN:25,_ZN44enCrecimientoTEST_periodicoMantieneArea_TestD1Ev
FN:25,_ZN44enCrecimientoTEST_periodicoMantieneArea_TestC2Ev
FN:25,__cxx_global_var_init.13
FN:25,_ZN44enCrecimientoTEST_periodicoMantieneArea_TestD0Ev
FN:25,_ZN44enCrecimientoTEST_periodicoMantieneArea_Test8TestBodyEv
FN:25,_ZN44enCrecimientoTEST_periodicoMantieneArea_TestD2Ev
FNDA:4,__cxx_global_var_init
FNDA:2,_ZN52enCrecimientoTEST_toroideDiagonalSeHaceTodoTrue_Test8TestBodyEv
FNDA:2,_ZN52enCrecimientoTEST_toroideDiagonalSeHaceTodoTrue_TestD1Ev
FNDA:2,_ZN52enCrecimientoTEST_toroideDiagonalSeHaceTodoTrue_TestD0Ev
FNDA:2,_ZN52enCrecimientoTEST_toroideDiagonalSeHaceTodoTrue_TestC1Ev
FNDA:2,_ZN52enCrecimientoTEST_toroideDiagonalSeHaceTodoTrue_TestC2Ev
FNDA:2,_ZN52enCrecimientoTEST_toroideDiagonalSeHaceTodoTrue_TestD2Ev
FNDA:4,__cxx_global_var_init.8
FNDA:2,_ZN39enCrecimientoTEST_todoFalsoNoCrece_Test8TestBodyEv
FNDA:2,_ZN39enCrecimientoTEST_todoFalsoNoCrece_TestD1Ev
FNDA:2,_ZN39enCrecimientoTEST_todoFalsoNoCrece_TestD0Ev
FNDA:2,_ZN39enCrecimientoTEST_todoFalsoNoCrece_TestC1Ev
FNDA:2,_ZN39enCrecimientoTEST_todoFalsoNoCrece_TestC2Ev
FNDA:2,_ZN39enCrecimientoTEST_todoFalsoNoCrece_TestD2Ev
FNDA:4,__cxx_global_var_init.13
FNDA:2,_ZN44enCrecimientoTEST_periodicoMantieneArea_Test8TestBodyEv
FNDA:2,_ZN44enCrecimientoTEST_periodicoMantieneArea_TestD1Ev
FNDA:2,_ZN44enCrecimientoTEST_periodicoMantieneArea_TestD0Ev
FNDA:2,_ZN44enCrecimientoTEST_periodicoMantieneArea_TestC1Ev
FNDA:2,_ZN44enCrecimientoTEST_periodicoMantieneArea_TestC2Ev
FNDA:2,_ZN44enCrecimientoTEST_periodicoMantieneArea_TestD2Ev
FNF:21
FNH:21
DA:7,38
DA:8,16
DA:9,2
DA:10,2
DA:11,2
DA:12,6
DA:13,10
DA:14,2
DA:16,38
DA:17,16
DA:18,2
DA:19,2
DA:20,2
DA:21,6
DA:22,10
DA:23,2
DA:25,38
DA:26,16
DA:27,2
DA:28,2
DA:29,2
DA:30,14
DA:31,2
LF:23
LH:23
end_of_record
TN:
SF:/Applications/Xcode.app/Contents/Developer/Toolchains/XcodeDefault.xctoolchain/usr/include/c++/v1/__bit_reference
FN:56,_ZNSt3__115__bit_referenceINS_6vectorIbNS_9allocatorIbEEEELb1EEaSEb
FN:74,_ZNSt3__115__bit_referenceINS_6vectorIbNS_9allocatorIbEEEELb1EEC2EPmm
FN:74,_ZNSt3__115__bit_referenceINS_6vectorIbNS_9allocatorIbEEEELb1EEC1EPmm
FN:404,_ZNSt3__114__copy_alignedINS_6vectorIbNS_9allocatorIbEEEELb1EEENS_14__bit_iteratorIT_Lb0EXLi0EEEENS5_IS6_XT0_EXLi0EEEES8_S7_
FN:453,_ZNSt3__116__copy_unalignedINS_6vectorIbNS_9allocatorIbEEEELb1EEENS_14__bit_iteratorIT_Lb0EXLi0EEEENS5_IS6_XT0_EXLi0EEEES8_S7_
FN:532,_ZNSt3__14copyINS_6vectorIbNS_9allocatorIbEEEELb1EEENS_14__bit_iteratorIT_Lb0EXLi0EEEENS5_IS6_XT0_EXLi0EEEES8_S7_
FN:1112,_ZNSt3__114__bit_iteratorINS_6vectorIbNS_9allocatorIbEEEELb0ELm0EEC2ERKS5_
FN:1112,_ZNSt3__114__bit_iteratorINS_6vectorIbNS_9allocatorIbEEEELb0ELm0EEC1ERKS5_
FN:1115,_ZNKSt3__114__bit_iteratorINS_6vectorIbNS_9allocatorIbEEEELb0ELm0EEdeEv
FN:1118,_ZNSt3__114__bit_iteratorINS_6vectorIbNS_9allocatorIbEEEELb0ELm0EEppEv
FN:1191,_ZNSt3__1miERKNS_14__bit_iteratorINS_6vectorIbNS_9allocatorIbEEEELb1ELm0EEES7_
FN:1216,_ZNSt3__114__bit_iteratorINS_6vectorIbNS_9allocatorIbEEEELb0ELm0EEC2EPmj
FN:1216,_ZNSt3__114__bit_iteratorINS_6vectorIbNS_9allocatorIbEEEELb0ELm0EEC1EPmj
FN:1216,_ZNSt3__114__bit_iteratorINS_6vectorIbNS_9allocatorIbEEEELb1ELm0EEC1EPKmj
FN:1216,_ZNSt3__114__bit_iteratorINS_6vectorIbNS_9allocatorIbEEEELb1ELm0EEC2EPKmj
FNDA:2060,_ZNSt3__115__bit_referenceINS_6vectorIbNS_9allocatorIbEEEELb1EEaSEb
FNDA:2060,_ZNSt3__115__bit_referenceINS_6vectorIbNS_9allocatorIbEEEELb1EEC1EPmm
FNDA:2060,_ZNSt3__115__bit_referenceINS_6vectorIbNS_9allocatorIbEEEELb1EEC2EPmm
FNDA:0,_ZNSt3__114__copy_alignedINS_6vectorIbNS_9allocatorIbEEEELb1EEENS_14__bit_iteratorIT_Lb0EXLi0EEEENS5_IS6_XT0_EXLi0EEEES8_S7_
FNDA:0,_ZNSt3__116__copy_unalignedINS_6vectorIbNS_9allocatorIbEEEELb1EEENS_14__bit_iteratorIT_Lb0EXLi0EEEENS5_IS6_XT0_EXLi0EEEES8_S7_
FNDA:0,_ZNSt3__14copyINS_6vectorIbNS_9allocatorIbEEEELb1EEENS_14__bit_iteratorIT_Lb0EXLi0EEEENS5_IS6_XT0_EXLi0EEEES8_S7_
FNDA:1764,_ZNSt3__114__bit_iteratorINS_6vectorIbNS_9allocatorIbEEEELb0ELm0EEC1ERKS5_
FNDA:1764,_ZNSt3__114__bit_iteratorINS_6vectorIbNS_9allocatorIbEEEELb0ELm0EEC2ERKS5_
FNDA:2060,_ZNKSt3__114__bit_iteratorINS_6vectorIbNS_9allocatorIbEEEELb0ELm0EEdeEv
FNDA:2060,_ZNSt3__114__bit_iteratorINS_6vectorIbNS_9allocatorIbEEEELb0ELm0EEppEv
FNDA:0,_ZNSt3__1miERKNS_14__bit_iteratorINS_6vectorIbNS_9allocatorIbEEEELb1ELm0EEES7_
FNDA:588,_ZNSt3__114__bit_iteratorINS_6vectorIbNS_9allocatorIbEEEELb0ELm0EEC1EPmj
FNDA:588,_ZNSt3__114__bit_iteratorINS_6vectorIbNS_9allocatorIbEEEELb0ELm0EEC2EPmj
FNDA:0,_ZNSt3__114__bit_iteratorINS_6vectorIbNS_9allocatorIbEEEELb1ELm0EEC1EPKmj
FNDA:0,_ZNSt3__114__bit_iteratorINS_6vectorIbNS_9allocatorIbEEEELb1ELm0EEC2EPKmj
FNF:15
FNH:9
DA:58,2060
DA:59,558
DA:61,1502
DA:62,2060
DA:75,4120
DA:410,0
DA:411,0
DA:412,0
DA:415,0
DA:417,0
DA:418,0
DA:419,0
DA:420,0
DA:421,0
DA:422,0
DA:423,0
DA:424,0
DA:425,0
DA:426,0
DA:428,0
DA:431,0
DA:432,0
DA:433,0
DA:434,0
DA:435,0
DA:436,0
DA:438,0
DA:440,0
DA:441,0
DA:442,0
DA:443,0
DA:444,0
DA:445,0
DA:446,0
DA:447,0
DA:448,0
DA:460,0
DA:461,0
DA:464,0
DA:466,0
DA:467,0
DA:468,0
DA:469,0
DA:470,0
DA:471,0
DA:472,0
DA:473,0
DA:474,0
DA:475,0
DA:476,0
DA:478,0
DA:479,0
DA:480,0
DA:481,0
DA:482,0
DA:484,0
DA:485,0
DA:486,0
DA:487,0
DA:488,0
DA:489,0
DA:491,0
DA:494,0
DA:495,0
DA:496,0
DA:498,0
DA:499,0
DA:500,0
DA:501,0
DA:502,0
DA:503,0
DA:504,0
DA:506,0
DA:508,0
DA:509,0
DA:510,0
DA:511,0
DA:512,0
DA:513,0
DA:514,0
DA:515,0
DA:516,0
DA:517,0
DA:519,0
DA:520,0
DA:521,0
DA:522,0
DA:523,0
DA:524,0
DA:525,0
DA:526,0
DA:534,0
DA:535,0
DA:536,0
DA:537,0
DA:1113,3528
DA:1116,2060
DA:1120,2060
DA:1121,2060
DA:1124,0
DA:1125,0
DA:1127,2060
DA:1192,0
DA:1217,1176
LF:104
LH:11
end_of_record
SF:/Applications/Xcode.app/Contents/Developer/Toolchains/XcodeDefault.xctoolchain/usr/include/c++/v1/__string
FN:217,_ZNSt3__111char_traitsIcE6lengthEPKc
FNDA:0,_ZNSt3__111char_traitsIcE6lengthEPKc
FNF:1
FNH:0
DA:217,0
LF:1
LH:0
end_of_record
SF:/Applications/Xcode.app/Contents/Developer/Toolchains/XcodeDefault.xctoolchain/usr/include/c++/v1/algorithm
FN:719,_ZNKSt3__16__lessIllEclERKlS3_
FN:719,_ZNKSt3__16__lessImmEclERKmS3_
FN:1759,_ZNSt3__113__unwrap_iterIPKbEET_S3_
FN:1759,_ZNSt3__113__unwrap_iterINS_14__bit_iteratorINS_6vectorIbNS_9allocatorIbEEEELb0ELm0EEEEET_S7_
FN:1809,_ZNSt3__16__copyIPKbNS_14__bit_iteratorINS_6vectorIbNS_9allocatorIbEEEELb0ELm0EEEEET0_T_SA_S9_
FN:1835,_ZNSt3__14copyIPKbNS_14__bit_iteratorINS_6vectorIbNS_9allocatorIbEEEELb0ELm0EEEEET0_T_SA_S9_
FN:2644,_ZNSt3__13minImNS_6__lessImmEEEERKT_S5_S5_T0_
FN:2644,_ZNSt3__13minIlNS_6__lessIllEEEERKT_S5_S5_T0_
FN:2652,_ZNSt3__13minIlEERKT_S3_S3_
FN:2652,_ZNSt3__13minImEERKT_S3_S3_
FNDA:0,_ZNKSt3__16__lessImmEclERKmS3_
FNDA:0,_ZNKSt3__16__lessIllEclERKlS3_
FNDA:1176,_ZNSt3__113__unwrap_iterIPKbEET_S3_
FNDA:588,_ZNSt3__113__unwrap_iterINS_14__bit_iteratorINS_6vectorIbNS_9allocatorIbEEEELb0ELm0EEEEET_S7_
FNDA:588,_ZNSt3__16__copyIPKbNS_14__bit_iteratorINS_6vectorIbNS_9allocatorIbEEEELb0ELm0EEEEET0_T_SA_S9_
FNDA:588,_ZNSt3__14copyIPKbNS_14__bit_iteratorINS_6vectorIbNS_9allocatorIbEEEELb0ELm0EEEEET0_T_SA_S9_
FNDA:0,_ZNSt3__13minImNS_6__lessImmEEEERKT_S5_S5_T0_
FNDA:0,_ZNSt3__13minIlNS_6__lessIllEEEERKT_S5_S5_T0_
FNDA:0,_ZNSt3__13minImEERKT_S3_S3_
FNDA:0,_ZNSt3__13minIlEERKT_S3_S3_
FNF:10
FNH:4
DA:719,0
DA:1761,2352
DA:1811,5296
DA:1812,2060
DA:1813,588
DA:1837,588
DA:2646,0
DA:2654,0
LF:8
LH:5
end_of_record
SF:/Applications/Xcode.app/Contents/Developer/Toolchains/XcodeDefault.xctoolchain/usr/include/c++/v1/initializer_list
FN:85,_ZNKSt16initializer_listIbE4sizeEv
FN:85,_ZNKSt16initializer_listINSt3__16vectorIbNS0_9allocatorIbEEEEE4sizeEv
FN:89,_ZNKSt16initializer_listIbE5beginEv
FN:89,_ZNKSt16initializer_listINSt3__16vectorIbNS0_9allocatorIbEEEEE5beginEv
FN:93,_ZNKSt16initializer_listINSt3__16vectorIbNS0_9allocatorIbEEEEE3endEv
FN:93,_ZNKSt16initializer_listIbE3endEv
FNDA:588,_ZNKSt16initializer_listIbE4sizeEv
FNDA:42,_ZNKSt16initializer_listINSt3__16vectorIbNS0_9allocatorIbEEEEE4sizeEv
FNDA:588,_ZNKSt16initializer_listIbE5beginEv
FNDA:14,_ZNKSt16initializer_listINSt3__16vectorIbNS0_9allocatorIbEEEEE5beginEv
FNDA:588,_ZNKSt16initializer_listIbE3endEv
FNDA:14,_ZNKSt16initializer_listINSt3__16vectorIbNS0_9allocatorIbEEEEE3endEv
FNF:6
FNH:6
DA:85,630
DA:89,602
DA:93,602
LF:3
LH:3
end_of_record
SF:/Applications/Xcode.app/Contents/Developer/Toolchains/XcodeDefault.xctoolchain/usr/include/c++/v1/iterator
FN:592,_ZNSt3__110__distanceINS_14__bit_iteratorINS_6vectorIbNS_9allocatorIbEEEELb1ELm0EEEEENS_15iterator_traitsIT_E15difference_typeES8_S8_NS_26random_access_iterator_tagE
FN:592,_ZNSt3__110__distanceIPKbEENS_15iterator_traitsIT_E15difference_typeES4_S4_NS_26random_access_iterator_tagE
FN:600,_ZNSt3__18distanceIPKbEENS_15iterator_traitsIT_E15difference_typeES4_S4_
FN:600,_ZNSt3__18distanceINS_14__bit_iteratorINS_6vectorIbNS_9allocatorIbEEEELb1ELm0EEEEENS_15iterator_traitsIT_E15difference_typeES8_S8_
FNDA:588,_ZNSt3__110__distanceIPKbEENS_15iterator_traitsIT_E15difference_typeES4_S4_NS_26random_access_iterator_tagE
FNDA:0,_ZNSt3__110__distanceINS_14__bit_iteratorINS_6vectorIbNS_9allocatorIbEEEELb1ELm0EEEEENS_15iterator_traitsIT_E15difference_typeES8_S8_NS_26random_access_iterator_tagE
FNDA:588,_ZNSt3__18distanceIPKbEENS_15iterator_traitsIT_E15difference_typeES4_S4_
FNDA:0,_ZNSt3__18distanceINS_14__bit_iteratorINS_6vectorIbNS_9allocatorIbEEEELb1ELm0EEEEENS_15iterator_traitsIT_E15difference_typeES8_S8_
FNF:4
FNH:2
DA:594,588
DA:602,588
LF:2
LH:2
end_of_record
SF:/Applications/Xcode.app/Contents/Developer/Toolchains/XcodeDefault.xctoolchain/usr/include/c++/v1/limits
FN:213,_ZNSt3__123__libcpp_numeric_limitsIlLb1EE3maxEv
FN:213,_ZNSt3__123__libcpp_numeric_limitsImLb1EE3maxEv
FN:450,_ZNSt3__114numeric_limitsImE3maxEv
FN:450,_ZNSt3__114numeric_limitsIlE3maxEv
FNDA:0,_ZNSt3__123__libcpp_numeric_limitsImLb1EE3maxEv
FNDA:0,_ZNSt3__123__libcpp_numeric_limitsIlLb1EE3maxEv
FNDA:0,_ZNSt3__114numeric_limitsImE3maxEv
FNDA:0,_ZNSt3__114numeric_limitsIlE3maxEv
FNF:4
FNH:0
DA:213,0
DA:450,0
LF:2
LH:0
end_of_record
SF:/Applications/Xcode.app/Contents/Developer/Toolchains/XcodeDefault.xctoolchain/usr/include/c++/v1/memory
FN:977,_ZNSt3__114pointer_traitsIPKcE10pointer_toERS1_
FN:1095,_ZNSt3__116__to_raw_pointerIKmEEPT_S3_
FN:1095,_ZNSt3__116__to_raw_pointerImEEPT_S2_
FN:1095,_ZNSt3__116__to_raw_pointerINS_6vectorIbNS_9allocatorIbEEEEEEPT_S6_
FN:1095,_ZNSt3__116__to_raw_pointerIKcEEPT_S3_
FN:1501,_ZNSt3__116allocator_traitsINS_9allocatorImEEE8allocateERS2_m
FN:1501,_ZNSt3__116allocator_traitsINS_9allocatorINS_6vectorIbNS1_IbEEEEEEE8allocateERS5_m
FN:1509,_ZNSt3__116allocator_traitsINS_9allocatorImEEE10deallocateERS2_Pmm
FN:1509,_ZNSt3__116allocator_traitsINS_9allocatorINS_6vectorIbNS1_IbEEEEEEE10deallocateERS5_PS4_m
FN:1515,_ZNSt3__116allocator_traitsINS_9allocatorINS_6vectorIbNS1_IbEEEEEEE9constructIS4_JRKS4_EEEvRS5_PT_DpOT0_
FN:1515,_ZNSt3__116allocator_traitsINS_9allocatorINS_6vectorIbNS1_IbEEEEEEE9constructIS4_JRS4_EEEvRS5_PT_DpOT0_
FN:1549,_ZNSt3__116allocator_traitsINS_9allocatorINS_6vectorIbNS1_IbEEEEEEE7destroyIS4_EEvRS5_PT_
FN:1553,_ZNSt3__116allocator_traitsINS_9allocatorINS_6vectorIbNS1_IbEEEEEEE8max_sizeERKS5_
FN:1553,_ZNSt3__116allocator_traitsINS_9allocatorImEEE8max_sizeERKS2_
FN:1558,_ZNSt3__116allocator_traitsINS_9allocatorImEEE37select_on_container_copy_constructionERKS2_
FN:1558,_ZNSt3__116allocator_traitsINS_9allocatorINS_6vectorIbNS1_IbEEEEEEE37select_on_container_copy_constructionERKS5_
FN:1597,_ZNSt3__116allocator_traitsINS_9allocatorINS_6vectorIbNS1_IbEEEEEEE25__construct_range_forwardIPS4_S8_EEvRS5_T_SA_RT0_
FN:1597,_ZNSt3__116allocator_traitsINS_9allocatorINS_6vectorIbNS1_IbEEEEEEE25__construct_range_forwardIPKS4_PS4_EEvRS5_T_SC_RT0_
FN:1669,_ZNSt3__116allocator_traitsINS_9allocatorINS_6vectorIbNS1_IbEEEEEEE11__constructIS4_JRS4_EEEvNS_17integral_constantIbLb1EEERS5_PT_DpOT0_
FN:1669,_ZNSt3__116allocator_traitsINS_9allocatorINS_6vectorIbNS1_IbEEEEEEE11__constructIS4_JRKS4_EEEvNS_17integral_constantIbLb1EEERS5_PT_DpOT0_
FN:1681,_ZNSt3__116allocator_traitsINS_9allocatorINS_6vectorIbNS1_IbEEEEEEE9__destroyIS4_EEvNS_17integral_constantIbLb1EEERS5_PT_
FN:1691,_ZNSt3__116allocator_traitsINS_9allocatorImEEE10__max_sizeENS_17integral_constantIbLb1EEERKS2_
FN:1691,_ZNSt3__116allocator_traitsINS_9allocatorINS_6vectorIbNS1_IbEEEEEEE10__max_sizeENS_17integral_constantIbLb1EEERKS5_
FN:1703,_ZNSt3__116allocator_traitsINS_9allocatorINS_6vectorIbNS1_IbEEEEEEE39__select_on_container_copy_constructionENS_17integral_constantIbLb0EEERKS5_
FN:1703,_ZNSt3__116allocator_traitsINS_9allocatorImEEE39__select_on_container_copy_constructionENS_17integral_constantIbLb0EEERKS2_
FN:1736,_ZNSt3__19allocatorImEC2Ev
FN:1736,_ZNSt3__19allocatorINS_6vectorIbNS0_IbEEEEEC2Ev
FN:1736,_ZNSt3__19allocatorIcEC2Ev
FN:1742,_ZNSt3__19allocatorImE8allocateEmPKv
FN:1742,_ZNSt3__19allocatorINS_6vectorIbNS0_IbEEEEE8allocateEmPKv
FN:1749,_ZNSt3__19allocatorImE10deallocateEPmm
FN:1749,_ZNSt3__19allocatorINS_6vectorIbNS0_IbEEEEE10deallocateEPS3_m
FN:1751,_ZNKSt3__19allocatorImE8max_sizeEv
FN:1751,_ZNKSt3__19allocatorINS_6vectorIbNS0_IbEEEEE8max_sizeEv
FN:1757,_ZNSt3__19allocatorINS_6vectorIbNS0_IbEEEEE9constructIS3_JRS3_EEEvPT_DpOT0_
FN:1757,_ZNSt3__19allocatorINS_6vectorIbNS0_IbEEEEE9constructIS3_JRKS3_EEEvPT_DpOT0_
FN:1814,_ZNSt3__19allocatorINS_6vectorIbNS0_IbEEEEE7destroyEPS3_
FN:2043,_ZNSt3__122__compressed_pair_elemINS_12basic_stringIcNS_11char_traitsIcEENS_9allocatorIcEEE5__repELi0ELb0EEC2Ev
FN:2050,_ZNSt3__122__compressed_pair_elemImLi0ELb0EEC2IivEEOT_
FN:2050,_ZNSt3__122__compressed_pair_elemIPNS_6vectorIbNS_9allocatorIbEEEELi0ELb0EEC2IDnvEEOT_
FN:2064,_ZNSt3__122__compressed_pair_elemImLi0ELb0EE5__getEv
FN:2064,_ZNSt3__122__compressed_pair_elemIPNS_6vectorIbNS_9allocatorIbEEEELi0ELb0EE5__getEv
FN:2066,_ZNKSt3__122__compressed_pair_elemINS_12basic_stringIcNS_11char_traitsIcEENS_9allocatorIcEEE5__repELi0ELb0EE5__getEv
FN:2066,_ZNKSt3__122__compressed_pair_elemIPNS_6vectorIbNS_9allocatorIbEEEELi0ELb0EE5__getEv
FN:2080,_ZNSt3__122__compressed_pair_elemINS_9allocatorINS_6vectorIbNS1_IbEEEEEELi1ELb1EEC2Ev
FN:2080,_ZNSt3__122__compressed_pair_elemINS_9allocatorImEELi1ELb1EEC2Ev
FN:2080,_ZNSt3__122__compressed_pair_elemINS_9allocatorIcEELi1ELb1EEC2Ev
FN:2087,_ZNSt3__122__compressed_pair_elemINS_9allocatorINS_6vectorIbNS1_IbEEEEEELi1ELb1EEC2IRKS5_vEEOT_
FN:2087,_ZNSt3__122__compressed_pair_elemINS_9allocatorImEELi1ELb1EEC2IS2_vEEOT_
FN:2102,_ZNSt3__122__compressed_pair_elemINS_9allocatorINS_6vectorIbNS1_IbEEEEEELi1ELb1EE5__getEv
FN:2102,_ZNSt3__122__compressed_pair_elemINS_9allocatorImEELi1ELb1EE5__getEv
FN:2104,_ZNKSt3__122__compressed_pair_elemINS_9allocatorINS_6vectorIbNS1_IbEEEEEELi1ELb1EE5__getEv
FN:2104,_ZNKSt3__122__compressed_pair_elemINS_9allocatorImEELi1ELb1EE5__getEv
FN:2134,_ZNSt3__117__compressed_pairINS_12basic_stringIcNS_11char_traitsIcEENS_9allocatorIcEEE5__repES5_EC1ILb1EvEEv
FN:2134,_ZNSt3__117__compressed_pairINS_12basic_stringIcNS_11char_traitsIcEENS_9allocatorIcEEE5__repES5_EC2ILb1EvEEv
FN:2140,_ZNSt3__117__compressed_pairIPNS_6vectorIbNS_9allocatorIbEEEENS2_IS4_EEEC1IDnLb1EEEOT_
FN:2140,_ZNSt3__117__compressed_pairImNS_9allocatorImEEEC1IiLb1EEEOT_
FN:2140,_ZNSt3__117__compressed_pairIPNS_6vectorIbNS_9allocatorIbEEEENS2_IS4_EEEC2IDnLb1EEEOT_
FN:2140,_ZNSt3__117__compressed_pairImNS_9allocatorImEEEC2IiLb1EEEOT_
FN:2150,_ZNSt3__117__compressed_pairImNS_9allocatorImEEEC1IiS2_EEOT_OT0_
FN:2150,_ZNSt3__117__compressed_pairIPNS_6vectorIbNS_9allocatorIbEEEENS2_IS4_EEEC1IDnRKS6_EEOT_OT0_
FN:2150,_ZNSt3__117__compressed_pairImNS_9allocatorImEEEC2IiS2_EEOT_OT0_
FN:2150,_ZNSt3__117__compressed_pairIPNS_6vectorIbNS_9allocatorIbEEEENS2_IS4_EEEC2IDnRKS6_EEOT_OT0_
FN:2179,_ZNSt3__117__compressed_pairIPNS_6vectorIbNS_9allocatorIbEEEENS2_IS4_EEE5firstEv
FN:2179,_ZNSt3__117__compressed_pairImNS_9allocatorImEEE5firstEv
FN:2184,_ZNKSt3__117__compressed_pairINS_12basic_stringIcNS_11char_traitsIcEENS_9allocatorIcEEE5__repES5_E5firstEv
FN:2184,_ZNKSt3__117__compressed_pairIPNS_6vectorIbNS_9allocatorIbEEEENS2_IS4_EEE5firstEv
FN:2189,_ZNSt3__117__compressed_pairImNS_9allocatorImEEE6secondEv
FN:2189,_ZNSt3__117__compressed_pairIPNS_6vectorIbNS_9allocatorIbEEEENS2_IS4_EEE6secondEv
FN:2194,_ZNKSt3__117__compressed_pairIPNS_6vectorIbNS_9allocatorIbEEEENS2_IS4_EEE6secondEv
FN:2194,_ZNKSt3__117__compressed_pairImNS_9allocatorImEEE6secondEv
FNDA:0,_ZNSt3__114pointer_traitsIPKcE10pointer_toERS1_
FNDA:622,_ZNSt3__116__to_raw_pointerINS_6vectorIbNS_9allocatorIbEEEEEEPT_S6_
FNDA:0,_ZNSt3__116__to_raw_pointerIKcEEPT_S3_
FNDA:0,_ZNSt3__116__to_raw_pointerImEEPT_S2_
FNDA:0,_ZNSt3__116__to_raw_pointerIKmEEPT_S3_
FNDA:0,_ZNSt3__116allocator_traitsINS_9allocatorImEEE8allocateERS2_m
FNDA:0,_ZNSt3__116allocator_traitsINS_9allocatorINS_6vectorIbNS1_IbEEEEEEE8allocateERS5_m
FNDA:0,_ZNSt3__116allocator_traitsINS_9allocatorINS_6vectorIbNS1_IbEEEEEEE10deallocateERS5_PS4_m
FNDA:0,_ZNSt3__116allocator_traitsINS_9allocatorImEEE10deallocateERS2_Pmm
FNDA:622,_ZNSt3__116allocator_traitsINS_9allocatorINS_6vectorIbNS1_IbEEEEEEE9constructIS4_JRKS4_EEEvRS5_PT_DpOT0_
FNDA:0,_ZNSt3__116allocator_traitsINS_9allocatorINS_6vectorIbNS1_IbEEEEEEE9constructIS4_JRS4_EEEvRS5_PT_DpOT0_
FNDA:0,_ZNSt3__116allocator_traitsINS_9allocatorINS_6vectorIbNS1_IbEEEEEEE7destroyIS4_EEvRS5_PT_
FNDA:0,_ZNSt3__116allocator_traitsINS_9allocatorImEEE8max_sizeERKS2_
FNDA:0,_ZNSt3__116allocator_traitsINS_9allocatorINS_6vectorIbNS1_IbEEEEEEE8max_sizeERKS5_
FNDA:0,_ZNSt3__116allocator_traitsINS_9allocatorImEEE37select_on_container_copy_constructionERKS2_
FNDA:0,_ZNSt3__116allocator_traitsINS_9allocatorINS_6vectorIbNS1_IbEEEEEEE37select_on_container_copy_constructionERKS5_
FNDA:190,_ZNSt3__116allocator_traitsINS_9allocatorINS_6vectorIbNS1_IbEEEEEEE25__construct_range_forwardIPKS4_PS4_EEvRS5_T_SC_RT0_
FNDA:0,_ZNSt3__116allocator_traitsINS_9allocatorINS_6vectorIbNS1_IbEEEEEEE25__construct_range_forwardIPS4_S8_EEvRS5_T_SA_RT0_
FNDA:622,_ZNSt3__116allocator_traitsINS_9allocatorINS_6vectorIbNS1_IbEEEEEEE11__constructIS4_JRKS4_EEEvNS_17integral_constantIbLb1EEERS5_PT_DpOT0_
FNDA:0,_ZNSt3__116allocator_traitsINS_9allocatorINS_6vectorIbNS1_IbEEEEEEE11__constructIS4_JRS4_EEEvNS_17integral_constantIbLb1EEERS5_PT_DpOT0_
FNDA:0,_ZNSt3__116allocator_traitsINS_9allocatorINS_6vectorIbNS1_IbEEEEEEE9__destroyIS4_EEvNS_17integral_constantIbLb1EEERS5_PT_
FNDA:0,_ZNSt3__116allocator_traitsINS_9allocatorImEEE10__max_sizeENS_17integral_constantIbLb1EEERKS2_
FNDA:0,_ZNSt3__116allocator_traitsINS_9allocatorINS_6vectorIbNS1_IbEEEEEEE10__max_sizeENS_17integral_constantIbLb1EEERKS5_
FNDA:0,_ZNSt3__116allocator_traitsINS_9allocatorImEEE39__select_on_container_copy_constructionENS_17integral_constantIbLb0EEERKS2_
FNDA:0,_ZNSt3__116allocator_traitsINS_9allocatorINS_6vectorIbNS1_IbEEEEEEE39__select_on_container_copy_constructionENS_17integral_constantIbLb0EEERKS5_
FNDA:28,_ZNSt3__19allocatorIcEC2Ev
FNDA:588,_ZNSt3__19allocatorImEC2Ev
FNDA:14,_ZNSt3__19allocatorINS_6vectorIbNS0_IbEEEEEC2Ev
FNDA:0,_ZNSt3__19allocatorImE8allocateEmPKv
FNDA:0,_ZNSt3__19allocatorINS_6vectorIbNS0_IbEEEEE8allocateEmPKv
FNDA:0,_ZNSt3__19allocatorINS_6vectorIbNS0_IbEEEEE10deallocateEPS3_m
FNDA:0,_ZNSt3__19allocatorImE10deallocateEPmm
FNDA:0,_ZNKSt3__19allocatorImE8max_sizeEv
FNDA:0,_ZNKSt3__19allocatorINS_6vectorIbNS0_IbEEEEE8max_sizeEv
FNDA:622,_ZNSt3__19allocatorINS_6vectorIbNS0_IbEEEEE9constructIS3_JRKS3_EEEvPT_DpOT0_
FNDA:0,_ZNSt3__19allocatorINS_6vectorIbNS0_IbEEEEE9constructIS3_JRS3_EEEvPT_DpOT0_
FNDA:0,_ZNSt3__19allocatorINS_6vectorIbNS0_IbEEEEE7destroyEPS3_
FNDA:28,_ZNSt3__122__compressed_pair_elemINS_12basic_stringIcNS_11char_traitsIcEENS_9allocatorIcEEE5__repELi0ELb0EEC2Ev
FNDA:588,_ZNSt3__122__compressed_pair_elemImLi0ELb0EEC2IivEEOT_
FNDA:14,_ZNSt3__122__compressed_pair_elemIPNS_6vectorIbNS_9allocatorIbEEEELi0ELb0EEC2IDnvEEOT_
FNDA:0,_ZNSt3__122__compressed_pair_elemImLi0ELb0EE5__getEv
FNDA:0,_ZNSt3__122__compressed_pair_elemIPNS_6vectorIbNS_9allocatorIbEEEELi0ELb0EE5__getEv
FNDA:0,_ZNKSt3__122__compressed_pair_elemIPNS_6vectorIbNS_9allocatorIbEEEELi0ELb0EE5__getEv
FNDA:0,_ZNKSt3__122__compressed_pair_elemINS_12basic_stringIcNS_11char_traitsIcEENS_9allocatorIcEEE5__repELi0ELb0EE5__getEv
FNDA:28,_ZNSt3__122__compressed_pair_elemINS_9allocatorIcEELi1ELb1EEC2Ev
FNDA:588,_ZNSt3__122__compressed_pair_elemINS_9allocatorImEELi1ELb1EEC2Ev
FNDA:14,_ZNSt3__122__compressed_pair_elemINS_9allocatorINS_6vectorIbNS1_IbEEEEEELi1ELb1EEC2Ev
FNDA:0,_ZNSt3__122__compressed_pair_elemINS_9allocatorImEELi1ELb1EEC2IS2_vEEOT_
FNDA:0,_ZNSt3__122__compressed_pair_elemINS_9allocatorINS_6vectorIbNS1_IbEEEEEELi1ELb1EEC2IRKS5_vEEOT_
FNDA:190,_ZNSt3__122__compressed_pair_elemINS_9allocatorINS_6vectorIbNS1_IbEEEEEELi1ELb1EE5__getEv
FNDA:0,_ZNSt3__122__compressed_pair_elemINS_9allocatorImEELi1ELb1EE5__getEv
FNDA:0,_ZNKSt3__122__compressed_pair_elemINS_9allocatorImEELi1ELb1EE5__getEv
FNDA:0,_ZNKSt3__122__compressed_pair_elemINS_9allocatorINS_6vectorIbNS1_IbEEEEEELi1ELb1EE5__getEv
FNDA:28,_ZNSt3__117__compressed_pairINS_12basic_stringIcNS_11char_traitsIcEENS_9allocatorIcEEE5__repES5_EC1ILb1EvEEv
FNDA:28,_ZNSt3__117__compressed_pairINS_12basic_stringIcNS_11char_traitsIcEENS_9allocatorIcEEE5__repES5_EC2ILb1EvEEv
FNDA:588,_ZNSt3__117__compressed_pairImNS_9allocatorImEEEC1IiLb1EEEOT_
FNDA:588,_ZNSt3__117__compressed_pairImNS_9allocatorImEEEC2IiLb1EEEOT_
FNDA:14,_ZNSt3__117__compressed_pairIPNS_6vectorIbNS_9allocatorIbEEEENS2_IS4_EEEC1IDnLb1EEEOT_
FNDA:14,_ZNSt3__117__compressed_pairIPNS_6vectorIbNS_9allocatorIbEEEENS2_IS4_EEEC2IDnLb1EEEOT_
FNDA:0,_ZNSt3__117__compressed_pairImNS_9allocatorImEEEC1IiS2_EEOT_OT0_
FNDA:0,_ZNSt3__117__compressed_pairImNS_9allocatorImEEEC2IiS2_EEOT_OT0_
FNDA:0,_ZNSt3__117__compressed_pairIPNS_6vectorIbNS_9allocatorIbEEEENS2_IS4_EEEC1IDnRKS6_EEOT_OT0_
FNDA:0,_ZNSt3__117__compressed_pairIPNS_6vectorIbNS_9allocatorIbEEEENS2_IS4_EEEC2IDnRKS6_EEOT_OT0_
FNDA:0,_ZNSt3__117__compressed_pairImNS_9allocatorImEEE5firstEv
FNDA:0,_ZNSt3__117__compressed_pairIPNS_6vectorIbNS_9allocatorIbEEEENS2_IS4_EEE5firstEv
FNDA:0,_ZNKSt3__117__compressed_pairIPNS_6vectorIbNS_9allocatorIbEEEENS2_IS4_EEE5firstEv
FNDA:0,_ZNKSt3__117__compressed_pairINS_12basic_stringIcNS_11char_traitsIcEENS_9allocatorIcEEE5__repES5_E5firstEv
FNDA:190,_ZNSt3__117__compressed_pairIPNS_6vectorIbNS_9allocatorIbEEEENS2_IS4_EEE6secondEv
FNDA:0,_ZNSt3__117__compressed_pairImNS_9allocatorImEEE6secondEv
FNDA:0,_ZNKSt3__117__compressed_pairImNS_9allocatorImEEE6secondEv
FNDA:0,_ZNKSt3__117__compressed_pairIPNS_6vectorIbNS_9allocatorIbEEEENS2_IS4_EEE6secondEv
FNF:71
FNH:22
DA:979,0
DA:1097,622
DA:1502,0
DA:1510,0
DA:1516,1244
DA:1517,1244
DA:1550,0
DA:1554,0
DA:1559,0
DA:1560,0
DA:1561,0
DA:1599,1624
DA:1600,622
DA:1601,190
DA:1670,622
DA:1682,0
DA:1692,0
DA:1704,0
DA:1736,630
DA:1744,0
DA:1745,0
DA:1747,0
DA:1750,0
DA:1752,0
DA:1759,622
DA:1760,622
DA:1814,0
DA:2043,28
DA:2051,602
DA:2064,0
DA:2066,0
DA:2080,630
DA:2088,0
DA:2102,190
DA:2104,0
DA:2134,56
DA:2141,1204
DA:2151,0
DA:2180,0
DA:2185,0
DA:2190,190
DA:2195,0
LF:42
LH:17
end_of_record
SF:/Applications/Xcode.app/Contents/Developer/Toolchains/XcodeDefault.xctoolchain/usr/include/c++/v1/new
FN:222,_ZNSt3__110__allocateEm
FN:230,_ZNSt3__119__libcpp_deallocateEPv
FNDA:0,_ZNSt3__110__allocateEm
FNDA:0,_ZNSt3__119__libcpp_deallocateEPv
FNF:2
FNH:0
DA:226,0
DA:234,0
DA:236,0
LF:3
LH:0
end_of_record
SF:/Applications/Xcode.app/Contents/Developer/Toolchains/XcodeDefault.xctoolchain/usr/include/c++/v1/stdexcept
FN:136,_ZNSt12length_errorC1EPKc
FN:136,_ZNSt12length_errorC2EPKc
FN:222,_ZNSt3__120__throw_length_errorEPKc
FNDA:0,_ZNSt12length_errorC1EPKc
FNDA:0,_ZNSt12length_errorC2EPKc
FNDA:0,_ZNSt3__120__throw_length_errorEPKc
FNF:3
FNH:0
DA:136,0
DA:225,0
DA:230,0
LF:3
LH:0
end_of_record
SF:/Applications/Xcode.app/Contents/Developer/Toolchains/XcodeDefault.xctoolchain/usr/include/c++/v1/string
FN:1127,_ZNKSt3__112basic_stringIcNS_11char_traitsIcEENS_9allocatorIcEEE5c_strEv
FN:1129,_ZNKSt3__112basic_stringIcNS_11char_traitsIcEENS_9allocatorIcEEE4dataEv
FN:1220,_ZNKSt3__112basic_stringIcNS_11char_traitsIcEENS_9allocatorIcEEE9__is_longEv
FN:1302,_ZNKSt3__112basic_stringIcNS_11char_traitsIcEENS_9allocatorIcEEE18__get_long_pointerEv
FN:1308,_ZNKSt3__112basic_stringIcNS_11char_traitsIcEENS_9allocatorIcEEE19__get_short_pointerEv
FN:1314,_ZNKSt3__112basic_stringIcNS_11char_traitsIcEENS_9allocatorIcEEE13__get_pointerEv
FN:1568,_ZNSt3__112basic_stringIcNS_11char_traitsIcEENS_9allocatorIcEEEC2EPKc
FN:1568,_ZNSt3__112basic_stringIcNS_11char_traitsIcEENS_9allocatorIcEEEC1EPKc
FNDA:0,_ZNKSt3__112basic_stringIcNS_11char_traitsIcEENS_9allocatorIcEEE5c_strEv
FNDA:0,_ZNKSt3__112basic_stringIcNS_11char_traitsIcEENS_9allocatorIcEEE4dataEv
FNDA:0,_ZNKSt3__112basic_stringIcNS_11char_traitsIcEENS_9allocatorIcEEE9__is_longEv
FNDA:0,_ZNKSt3__112basic_stringIcNS_11char_traitsIcEENS_9allocatorIcEEE18__get_long_pointerEv
FNDA:0,_ZNKSt3__112basic_stringIcNS_11char_traitsIcEENS_9allocatorIcEEE19__get_short_pointerEv
FNDA:0,_ZNKSt3__112basic_stringIcNS_11char_traitsIcEENS_9allocatorIcEEE13__get_pointerEv
FNDA:28,_ZNSt3__112basic_stringIcNS_11char_traitsIcEENS_9allocatorIcEEEC1EPKc
FNDA:28,_ZNSt3__112basic_stringIcNS_11char_traitsIcEENS_9allocatorIcEEEC2EPKc
FNF:8
FNH:2
DA:775,28
DA:1127,0
DA:1129,0
DA:1221,0
DA:1303,0
DA:1309,0
DA:1315,0
DA:1569,56
DA:1571,28
DA:1575,56
LF:10
LH:4
end_of_record
SF:/Applications/Xcode.app/Contents/Developer/Toolchains/XcodeDefault.xctoolchain/usr/include/c++/v1/type_traits
FN:437,_ZNSt3__19addressofIKcEEPT_RS2_
FN:2219,_ZNSt3__17forwardIRKNS_9allocatorINS_6vectorIbNS1_IbEEEEEEEEOT_RNS_16remove_referenceIS8_E4typeE
FN:2219,_ZNSt3__17forwardINS_9allocatorImEEEEOT_RNS_16remove_referenceIS3_E4typeE
FN:2219,_ZNSt3__17forwardIiEEOT_RNS_16remove_referenceIS1_E4typeE
FN:2219,_ZNSt3__17forwardIDnEEOT_RNS_16remove_referenceIS1_E4typeE
FN:2219,_ZNSt3__17forwardIRKNS_6vectorIbNS_9allocatorIbEEEEEEOT_RNS_16remove_referenceIS7_E4typeE
FN:2219,_ZNSt3__17forwardIRNS_6vectorIbNS_9allocatorIbEEEEEEOT_RNS_16remove_referenceIS6_E4typeE
FNDA:0,_ZNSt3__19addressofIKcEEPT_RS2_
FNDA:1176,_ZNSt3__17forwardIiEEOT_RNS_16remove_referenceIS1_E4typeE
FNDA:28,_ZNSt3__17forwardIDnEEOT_RNS_16remove_referenceIS1_E4typeE
FNDA:1866,_ZNSt3__17forwardIRKNS_6vectorIbNS_9allocatorIbEEEEEEOT_RNS_16remove_referenceIS7_E4typeE
FNDA:0,_ZNSt3__17forwardINS_9allocatorImEEEEOT_RNS_16remove_referenceIS3_E4typeE
FNDA:0,_ZNSt3__17forwardIRKNS_9allocatorINS_6vectorIbNS1_IbEEEEEEEEOT_RNS_16remove_referenceIS8_E4typeE
FNDA:0,_ZNSt3__17forwardIRNS_6vectorIbNS_9allocatorIbEEEEEEOT_RNS_16remove_referenceIS6_E4typeE
FNF:7
FNH:3
DA:439,0
DA:2221,3070
LF:2
LH:1
end_of_record
SF:/Applications/Xcode.app/Contents/Developer/Toolchains/XcodeDefault.xctoolchain/usr/include/c++/v1/vector
FN:294,_ZNSt3__120__vector_base_commonILb1EEC2Ev
FN:337,_ZNSt3__113__vector_baseINS_6vectorIbNS_9allocatorIbEEEENS2_IS4_EEE7__allocEv
FN:340,_ZNKSt3__113__vector_baseINS_6vectorIbNS_9allocatorIbEEEENS2_IS4_EEE7__allocEv
FN:343,_ZNSt3__113__vector_baseINS_6vectorIbNS_9allocatorIbEEEENS2_IS4_EEE9__end_capEv
FN:346,_ZNKSt3__113__vector_baseINS_6vectorIbNS_9allocatorIbEEEENS2_IS4_EEE9__end_capEv
FN:356,_ZNSt3__113__vector_baseINS_6vectorIbNS_9allocatorIbEEEENS2_IS4_EEE5clearEv
FN:358,_ZNKSt3__113__vector_baseINS_6vectorIbNS_9allocatorIbEEEENS2_IS4_EEE8capacityEv
FN:409,_ZNSt3__113__vector_baseINS_6vectorIbNS_9allocatorIbEEEENS2_IS4_EEE17__destruct_at_endEPS4_
FN:419,_ZNSt3__113__vector_baseINS_6vectorIbNS_9allocatorIbEEEENS2_IS4_EEEC2Ev
FN:429,_ZNSt3__113__vector_baseINS_6vectorIbNS_9allocatorIbEEEENS2_IS4_EEEC2ERKS5_
FN:437,_ZNSt3__113__vector_baseINS_6vectorIbNS_9allocatorIbEEEENS2_IS4_EEED2Ev
FN:447,_ZNSt3__16vectorINS0_IbNS_9allocatorIbEEEENS1_IS3_EEED1Ev
FN:447,_ZNSt3__16vectorINS0_IbNS_9allocatorIbEEEENS1_IS3_EEED2Ev
FN:632,_ZNKSt3__16vectorINS0_IbNS_9allocatorIbEEEENS1_IS3_EEE4sizeEv
FN:635,_ZNKSt3__16vectorINS0_IbNS_9allocatorIbEEEENS1_IS3_EEE8capacityEv
FN:674,_ZNKSt3__16vectorINS0_IbNS_9allocatorIbEEEENS1_IS3_EEE4dataEv
FN:827,_ZNKSt3__16vectorINS0_IbNS_9allocatorIbEEEENS1_IS3_EEE31__annotate_contiguous_containerEPKvS7_S7_S7_
FN:831,_ZNKSt3__16vectorINS0_IbNS_9allocatorIbEEEENS1_IS3_EEE14__annotate_newEm
FN:875,_ZNSt3__16vectorINS0_IbNS_9allocatorIbEEEENS1_IS3_EEE24__RAII_IncreaseAnnotatorC2ERKS5_m
FN:875,_ZNSt3__16vectorINS0_IbNS_9allocatorIbEEEENS1_IS3_EEE24__RAII_IncreaseAnnotatorC1ERKS5_m
FN:876,_ZNSt3__16vectorINS0_IbNS_9allocatorIbEEEENS1_IS3_EEE24__RAII_IncreaseAnnotator6__doneEv
FN:922,_ZNSt3__16vectorINS0_IbNS_9allocatorIbEEEENS1_IS3_EEE8allocateEm
FN:945,_ZNKSt3__16vectorINS0_IbNS_9allocatorIbEEEENS1_IS3_EEE8max_sizeEv
FN:1015,_ZNSt3__16vectorINS0_IbNS_9allocatorIbEEEENS1_IS3_EEE18__construct_at_endIPS3_EENS_9enable_ifIXsr21__is_forward_iteratorIT_EE5valueEvE4typeES9_S9_m
FN:1015,_ZNSt3__16vectorINS0_IbNS_9allocatorIbEEEENS1_IS3_EEE18__construct_at_endIPKS3_EENS_9enable_ifIXsr21__is_forward_iteratorIT_EE5valueEvE4typeESA_SA_m
FN:1192,_ZNSt3__16vectorINS0_IbNS_9allocatorIbEEEENS1_IS3_EEEC2ERKS5_
FN:1192,_ZNSt3__16vectorINS0_IbNS_9allocatorIbEEEENS1_IS3_EEEC1ERKS5_
FN:1270,_ZNSt3__16vectorINS0_IbNS_9allocatorIbEEEENS1_IS3_EEEC1ESt16initializer_listIS3_E
FN:1270,_ZNSt3__16vectorINS0_IbNS_9allocatorIbEEEENS1_IS3_EEEC2ESt16initializer_listIS3_E
FN:2169,_ZNSt3__16vectorIbNS_9allocatorIbEEE5__capEv
FN:2175,_ZNSt3__16vectorIbNS_9allocatorIbEEE7__allocEv
FN:2178,_ZNKSt3__16vectorIbNS_9allocatorIbEEE7__allocEv
FN:2184,_ZNSt3__16vectorIbNS_9allocatorIbEEE26__internal_cap_to_externalEm
FN:2187,_ZNSt3__16vectorIbNS_9allocatorIbEEE26__external_cap_to_internalEm
FN:2280,_ZNKSt3__16vectorIbNS_9allocatorIbEEE4sizeEv
FN:2292,_ZNKSt3__16vectorIbNS_9allocatorIbEEE5beginEv
FN:2298,_ZNKSt3__16vectorIbNS_9allocatorIbEEE3endEv
FN:2430,_ZNSt3__16vectorIbNS_9allocatorIbEEE11__make_iterEm
FN:2433,_ZNKSt3__16vectorIbNS_9allocatorIbEEE11__make_iterEm
FN:2490,_ZNSt3__16vectorIbNS_9allocatorIbEEE26__invalidate_all_iteratorsEv
FN:2503,_ZNSt3__16vectorIbNS_9allocatorIbEEE8allocateEm
FN:2528,_ZNKSt3__16vectorIbNS_9allocatorIbEEE8max_sizeEv
FN:2573,_ZNSt3__16vectorIbNS_9allocatorIbEEE18__construct_at_endIPKbEENS_9enable_ifIXsr21__is_forward_iteratorIT_EE5valueEvE4typeES8_S8_
FN:2573,_ZNSt3__16vectorIbNS_9allocatorIbEEE18__construct_at_endINS_14__bit_iteratorIS3_Lb1ELm0EEEEENS_9enable_ifIXsr21__is_forward_iteratorIT_EE5valueEvE4typeES8_S8_
FN:2747,_ZNSt3__16vectorIbNS_9allocatorIbEEEC1ESt16initializer_listIbE
FN:2747,_ZNSt3__16vectorIbNS_9allocatorIbEEEC2ESt16initializer_listIbE
FN:2777,_ZNSt3__16vectorIbNS_9allocatorIbEEED2Ev
FN:2777,_ZNSt3__16vectorIbNS_9allocatorIbEEED1Ev
FN:2785,_ZNSt3__16vectorIbNS_9allocatorIbEEEC2ERKS3_
FN:2785,_ZNSt3__16vectorIbNS_9allocatorIbEEEC1ERKS3_
FNDA:602,_ZNSt3__120__vector_base_commonILb1EEC2Ev
FNDA:190,_ZNSt3__113__vector_baseINS_6vectorIbNS_9allocatorIbEEEENS2_IS4_EEE7__allocEv
FNDA:0,_ZNKSt3__113__vector_baseINS_6vectorIbNS_9allocatorIbEEEENS2_IS4_EEE7__allocEv
FNDA:0,_ZNSt3__113__vector_baseINS_6vectorIbNS_9allocatorIbEEEENS2_IS4_EEE9__end_capEv
FNDA:0,_ZNKSt3__113__vector_baseINS_6vectorIbNS_9allocatorIbEEEENS2_IS4_EEE9__end_capEv
FNDA:0,_ZNSt3__113__vector_baseINS_6vectorIbNS_9allocatorIbEEEENS2_IS4_EEE5clearEv
FNDA:0,_ZNKSt3__113__vector_baseINS_6vectorIbNS_9allocatorIbEEEENS2_IS4_EEE8capacityEv
FNDA:0,_ZNSt3__113__vector_baseINS_6vectorIbNS_9allocatorIbEEEENS2_IS4_EEE17__destruct_at_endEPS4_
FNDA:14,_ZNSt3__113__vector_baseINS_6vectorIbNS_9allocatorIbEEEENS2_IS4_EEEC2Ev
FNDA:0,_ZNSt3__113__vector_baseINS_6vectorIbNS_9allocatorIbEEEENS2_IS4_EEEC2ERKS5_
FNDA:0,_ZNSt3__113__vector_baseINS_6vectorIbNS_9allocatorIbEEEENS2_IS4_EEED2Ev
FNDA:0,_ZNSt3__16vectorINS0_IbNS_9allocatorIbEEEENS1_IS3_EEED1Ev
FNDA:0,_ZNSt3__16vectorINS0_IbNS_9allocatorIbEEEENS1_IS3_EEED2Ev
FNDA:0,_ZNKSt3__16vectorINS0_IbNS_9allocatorIbEEEENS1_IS3_EEE4sizeEv
FNDA:0,_ZNKSt3__16vectorINS0_IbNS_9allocatorIbEEEENS1_IS3_EEE8capacityEv
FNDA:0,_ZNKSt3__16vectorINS0_IbNS_9allocatorIbEEEENS1_IS3_EEE4dataEv
FNDA:0,_ZNKSt3__16vectorINS0_IbNS_9allocatorIbEEEENS1_IS3_EEE31__annotate_contiguous_containerEPKvS7_S7_S7_
FNDA:0,_ZNKSt3__16vectorINS0_IbNS_9allocatorIbEEEENS1_IS3_EEE14__annotate_newEm
FNDA:190,_ZNSt3__16vectorINS0_IbNS_9allocatorIbEEEENS1_IS3_EEE24__RAII_IncreaseAnnotatorC1ERKS5_m
FNDA:190,_ZNSt3__16vectorINS0_IbNS_9allocatorIbEEEENS1_IS3_EEE24__RAII_IncreaseAnnotatorC2ERKS5_m
FNDA:190,_ZNSt3__16vectorINS0_IbNS_9allocatorIbEEEENS1_IS3_EEE24__RAII_IncreaseAnnotator6__doneEv
FNDA:0,_ZNSt3__16vectorINS0_IbNS_9allocatorIbEEEENS1_IS3_EEE8allocateEm
FNDA:0,_ZNKSt3__16vectorINS0_IbNS_9allocatorIbEEEENS1_IS3_EEE8max_sizeEv
FNDA:190,_ZNSt3__16vectorINS0_IbNS_9allocatorIbEEEENS1_IS3_EEE18__construct_at_endIPKS3_EENS_9enable_ifIXsr21__is_forward_iteratorIT_EE5valueEvE4typeESA_SA_m
FNDA:0,_ZNSt3__16vectorINS0_IbNS_9allocatorIbEEEENS1_IS3_EEE18__construct_at_endIPS3_EENS_9enable_ifIXsr21__is_forward_iteratorIT_EE5valueEvE4typeES9_S9_m
FNDA:0,_ZNSt3__16vectorINS0_IbNS_9allocatorIbEEEENS1_IS3_EEEC1ERKS5_
FNDA:0,_ZNSt3__16vectorINS0_IbNS_9allocatorIbEEEENS1_IS3_EEEC2ERKS5_
FNDA:14,_ZNSt3__16vectorINS0_IbNS_9allocatorIbEEEENS1_IS3_EEEC1ESt16initializer_listIS3_E
FNDA:14,_ZNSt3__16vectorINS0_IbNS_9allocatorIbEEEENS1_IS3_EEEC2ESt16initializer_listIS3_E
FNDA:0,_ZNSt3__16vectorIbNS_9allocatorIbEEE5__capEv
FNDA:0,_ZNSt3__16vectorIbNS_9allocatorIbEEE7__allocEv
FNDA:0,_ZNKSt3__16vectorIbNS_9allocatorIbEEE7__allocEv
FNDA:0,_ZNSt3__16vectorIbNS_9allocatorIbEEE26__internal_cap_to_externalEm
FNDA:0,_ZNSt3__16vectorIbNS_9allocatorIbEEE26__external_cap_to_internalEm
FNDA:0,_ZNKSt3__16vectorIbNS_9allocatorIbEEE4sizeEv
FNDA:0,_ZNKSt3__16vectorIbNS_9allocatorIbEEE5beginEv
FNDA:0,_ZNKSt3__16vectorIbNS_9allocatorIbEEE3endEv
FNDA:588,_ZNSt3__16vectorIbNS_9allocatorIbEEE11__make_iterEm
FNDA:0,_ZNKSt3__16vectorIbNS_9allocatorIbEEE11__make_iterEm
FNDA:0,_ZNSt3__16vectorIbNS_9allocatorIbEEE26__invalidate_all_iteratorsEv
FNDA:0,_ZNSt3__16vectorIbNS_9allocatorIbEEE8allocateEm
FNDA:0,_ZNKSt3__16vectorIbNS_9allocatorIbEEE8max_sizeEv
FNDA:588,_ZNSt3__16vectorIbNS_9allocatorIbEEE18__construct_at_endIPKbEENS_9enable_ifIXsr21__is_forward_iteratorIT_EE5valueEvE4typeES8_S8_
FNDA:0,_ZNSt3__16vectorIbNS_9allocatorIbEEE18__construct_at_endINS_14__bit_iteratorIS3_Lb1ELm0EEEEENS_9enable_ifIXsr21__is_forward_iteratorIT_EE5valueEvE4typeES8_S8_
FNDA:588,_ZNSt3__16vectorIbNS_9allocatorIbEEEC1ESt16initializer_listIbE
FNDA:588,_ZNSt3__16vectorIbNS_9allocatorIbEEEC2ESt16initializer_listIbE
FNDA:0,_ZNSt3__16vectorIbNS_9allocatorIbEEED1Ev
FNDA:0,_ZNSt3__16vectorIbNS_9allocatorIbEEED2Ev
FNDA:0,_ZNSt3__16vectorIbNS_9allocatorIbEEEC1ERKS3_
FNDA:0,_ZNSt3__16vectorIbNS_9allocatorIbEEEC2ERKS3_
FNF:50
FNH:13
DA:294,602
DA:338,190
DA:341,0
DA:344,0
DA:347,0
DA:350,14
DA:352,0
DA:356,0
DA:359,0
DA:411,0
DA:412,0
DA:413,0
DA:414,0
DA:415,0
DA:421,14
DA:422,14
DA:423,14
DA:424,14
DA:425,14
DA:430,0
DA:431,0
DA:432,0
DA:433,0
DA:434,0
DA:439,0
DA:441,0
DA:442,0
DA:443,0
DA:444,0
DA:447,0
DA:541,14
DA:633,0
DA:636,0
DA:675,0
DA:828,0
DA:832,0
DA:833,0
DA:834,0
DA:875,380
DA:876,190
DA:924,0
DA:925,0
DA:926,0
DA:927,0
DA:928,0
DA:929,0
DA:947,0
DA:948,0
DA:1017,190
DA:1018,190
DA:1019,190
DA:1020,190
DA:1021,190
DA:1193,0
DA:1194,0
DA:1198,0
DA:1199,0
DA:1201,0
DA:1202,0
DA:1203,0
DA:1204,0
DA:1271,28
DA:1275,14
DA:1277,14
DA:1278,14
DA:1279,14
DA:1280,28
DA:2170,0
DA:2176,0
DA:2179,0
DA:2185,0
DA:2188,0
DA:2222,0
DA:2227,588
DA:2281,0
DA:2293,0
DA:2299,0
DA:2431,588
DA:2434,0
DA:2492,0
DA:2505,0
DA:2506,0
DA:2507,0
DA:2508,0
DA:2509,0
DA:2510,0
DA:2511,0
DA:2530,0
DA:2531,0
DA:2532,0
DA:2533,0
DA:2534,0
DA:2535,0
DA:2575,588
DA:2576,588
DA:2577,588
DA:2578,588
DA:2748,588
DA:2749,588
DA:2750,588
DA:2751,1176
DA:2752,588
DA:2753,588
DA:2755,588
DA:2756,588
DA:2757,588
DA:2758,1176
DA:2778,0
DA:2779,0
DA:2780,0
DA:2781,0
DA:2782,0
DA:2786,0
DA:2787,0
DA:2788,0
DA:2789,0
DA:2790,0
DA:2792,0
DA:2793,0
DA:2794,0
DA:2795,0
LF:121
LH:38
end_of_record
SF:/Users/vpomsztein/Documents/PrivateRepositories/Algoritmos1/TPI/juegoDeLaVida/lib/googletest-master/googletest/include/gtest/gtest-message.h
FN:85,_ZN7testing7MessageD1Ev
FN:85,_ZN7testing7MessageD2Ev
FNDA:400,_ZN7testing7MessageD1Ev
FNDA:400,_ZN7testing7MessageD2Ev
FNF:2
FNH:2
DA:85,800
LF:1
LH:1
end_of_record
SF:/Users/vpomsztein/Documents/PrivateRepositories/Algoritmos1/TPI/juegoDeLaVida/lib/googletest-master/googletest/include/gtest/gtest.h
FN:256,_ZN7testing15AssertionResultD1Ev
FN:256,_ZN7testing15AssertionResultD2Ev
FN:272,_ZN7testing15AssertionResultC1IbEERKT_PNS_8internal8EnableIfIXntsr8internal21ImplicitlyConvertibleIS2_S0_EE5valueEE4typeE
FN:272,_ZN7testing15AssertionResultC2IbEERKT_PNS_8internal8EnableIfIXntsr8internal21ImplicitlyConvertibleIS2_S0_EE5valueEE4typeE
FN:288,_ZNK7testing15AssertionResultcvbEv
FN:389,_ZN7testing4Test13SetUpTestCaseEv
FN:397,_ZN7testing4Test16TearDownTestCaseEv
FN:474,_ZN7testing4Test5SetupEv
FNDA:204,_ZN7testing15AssertionResultD1Ev
FNDA:204,_ZN7testing15AssertionResultD2Ev
FNDA:198,_ZN7testing15AssertionResultC1IbEERKT_PNS_8internal8EnableIfIXntsr8internal21ImplicitlyConvertibleIS2_S0_EE5valueEE4typeE
FNDA:198,_ZN7testing15AssertionResultC2IbEERKT_PNS_8internal8EnableIfIXntsr8internal21ImplicitlyConvertibleIS2_S0_EE5valueEE4typeE
FNDA:204,_ZNK7testing15AssertionResultcvbEv
FNDA:28,_ZN7testing4Test13SetUpTestCaseEv
FNDA:28,_ZN7testing4Test16TearDownTestCaseEv
FNDA:0,_ZN7testing4Test5SetupEv
FNF:8
FNH:7
DA:256,408
DA:272,198
DA:277,594
DA:288,204
DA:389,56
DA:397,56
DA:474,0
LF:7
LH:6
end_of_record
SF:/Users/vpomsztein/Documents/PrivateRepositories/Algoritmos1/TPI/juegoDeLaVida/lib/googletest-master/googletest/include/gtest/internal/gtest-internal.h
FN:466,_ZN7testing8internal15TestFactoryBaseD2Ev
FN:466,_ZN7testing8internal15TestFactoryBaseD1Ev
FN:466,_ZN7testing8internal15TestFactoryBaseD0Ev
FN:473,_ZN7testing8internal15TestFactoryBaseC2Ev
FN:482,_ZN7testing8internal15TestFactoryImplI48soloBloquesTEST_toroideMultiplesBloquesPuro_TestED0Ev
FN:482,_ZN7testing8internal15TestFactoryImplI40soloBloquesTEST_toroideUnBloquePuro_TestEC1Ev
FN:482,_ZN7testing8internal15TestFactoryImplI34soloBloquesTEST_toroideMuerto_TestEC2Ev
FN:482,_ZN7testing8internal15TestFactoryImplI49soloBloquesTEST_evolucionEsToroideBloquePuro_TestED1Ev
FN:482,_ZN7testing8internal15TestFactoryImplI40soloBloquesTEST_toroideUnBloquePuro_TestED2Ev
FN:482,_ZN7testing8internal15TestFactoryImplI36soloBloquesTEST_toroideTodoVivo_TestED1Ev
FN:482,_ZN7testing8internal15TestFactoryImplI45soloBloquesTEST_toroideBloqueCortadoPuro_TestEC2Ev
FN:482,_ZN7testing8internal15TestFactoryImplI48soloBloquesTEST_toroideMultiplesBloquesPuro_TestED2Ev
FN:482,_ZN7testing8internal15TestFactoryImplI34soloBloquesTEST_toroideMuerto_TestED0Ev
FN:482,_ZN7testing8internal15TestFactoryImplI45soloBloquesTEST_toroideBloqueCortadoPuro_TestED1Ev
FN:482,_ZN7testing8internal15TestFactoryImplI45soloBloquesTEST_toroideBloqueCortadoPuro_TestEC1Ev
FN:482,_ZN7testing8internal15TestFactoryImplI50soloBloquesTEST_toroideMultiplesBloquesImpuro_TestEC2Ev
FN:482,_ZN7testing8internal15TestFactoryImplI34soloBloquesTEST_toroideMuerto_TestEC1Ev
FN:482,_ZN7testing8internal15TestFactoryImplI36soloBloquesTEST_toroideTodoVivo_TestEC2Ev
FN:482,_ZN7testing8internal15TestFactoryImplI45soloBloquesTEST_toroideBloqueCortadoPuro_TestED0Ev
FN:482,_ZN7testing8internal15TestFactoryImplI45soloBloquesTEST_toroideBloqueCortadoPuro_TestED2Ev
FN:482,_ZN7testing8internal15TestFactoryImplI34soloBloquesTEST_toroideMuerto_TestED2Ev
FN:482,_ZN7testing8internal15TestFactoryImplI40soloBloquesTEST_toroideUnBloquePuro_TestED0Ev
FN:482,_ZN7testing8internal15TestFactoryImplI50soloBloquesTEST_toroideMultiplesBloquesImpuro_TestED0Ev
FN:482,_ZN7testing8internal15TestFactoryImplI40soloBloquesTEST_toroideUnBloquePuro_TestEC2Ev
FN:482,_ZN7testing8internal15TestFactoryImplI49soloBloquesTEST_evolucionEsToroideBloquePuro_TestEC2Ev
FN:482,_ZN7testing8internal15TestFactoryImplI36soloBloquesTEST_toroideTodoVivo_TestED2Ev
FN:482,_ZN7testing8internal15TestFactoryImplI49soloBloquesTEST_evolucionEsToroideBloquePuro_TestED2Ev
FN:482,_ZN7testing8internal15TestFactoryImplI49soloBloquesTEST_evolucionEsToroideBloquePuro_TestED0Ev
FN:482,_ZN7testing8internal15TestFactoryImplI48soloBloquesTEST_toroideMultiplesBloquesPuro_TestEC1Ev
FN:482,_ZN7testing8internal15TestFactoryImplI48soloBloquesTEST_toroideMultiplesBloquesPuro_TestED1Ev
FN:482,_ZN7testing8internal15TestFactoryImplI36soloBloquesTEST_toroideTodoVivo_TestED0Ev
FN:482,_ZN7testing8internal15TestFactoryImplI50soloBloquesTEST_toroideMultiplesBloquesImpuro_TestED1Ev
FN:482,_ZN7testing8internal15TestFactoryImplI50soloBloquesTEST_toroideMultiplesBloquesImpuro_TestEC1Ev
FN:482,_ZN7testing8internal15TestFactoryImplI49soloBloquesTEST_evolucionEsToroideBloquePuro_TestEC1Ev
FN:482,_ZN7testing8internal15TestFactoryImplI48soloBloquesTEST_toroideMultiplesBloquesPuro_TestEC2Ev
FN:482,_ZN7testing8internal15TestFactoryImplI50soloBloquesTEST_toroideMultiplesBloquesImpuro_TestED2Ev
FN:482,_ZN7testing8internal15TestFactoryImplI40soloBloquesTEST_toroideUnBloquePuro_TestED1Ev
FN:482,_ZN7testing8internal15TestFactoryImplI36soloBloquesTEST_toroideTodoVivo_TestEC1Ev
FN:482,_ZN7testing8internal15TestFactoryImplI34soloBloquesTEST_toroideMuerto_TestED1Ev
FN:484,_ZN7testing8internal15TestFactoryImplI48soloBloquesTEST_toroideMultiplesBloquesPuro_TestE10CreateTestEv
FN:484,_ZN7testing8internal15TestFactoryImplI40soloBloquesTEST_toroideUnBloquePuro_TestE10CreateTestEv
FN:484,_ZN7testing8internal15TestFactoryImplI50soloBloquesTEST_toroideMultiplesBloquesImpuro_TestE10CreateTestEv
FN:484,_ZN7testing8internal15TestFactoryImplI36soloBloquesTEST_toroideTodoVivo_TestE10CreateTestEv
FN:484,_ZN7testing8internal15TestFactoryImplI34soloBloquesTEST_toroideMuerto_TestE10CreateTestEv
FN:484,_ZN7testing8internal15TestFactoryImplI49soloBloquesTEST_evolucionEsToroideBloquePuro_TestE10CreateTestEv
FN:484,_ZN7testing8internal15TestFactoryImplI45soloBloquesTEST_toroideBloqueCortadoPuro_TestE10CreateTestEv
FN:504,_ZN7testing8internal12CodeLocationD2Ev
FN:504,_ZN7testing8internal12CodeLocationD1Ev
FN:505,_ZN7testing8internal12CodeLocationC1ERKNSt3__112basic_stringIcNS2_11char_traitsIcEENS2_9allocatorIcEEEEi
FN:505,_ZN7testing8internal12CodeLocationC2ERKNSt3__112basic_stringIcNS2_11char_traitsIcEENS2_9allocatorIcEEEEi
FNDA:0,_ZN7testing8internal15TestFactoryBaseD1Ev
FNDA:0,_ZN7testing8internal15TestFactoryBaseD0Ev
FNDA:280,_ZN7testing8internal15TestFactoryBaseD2Ev
FNDA:280,_ZN7testing8internal15TestFactoryBaseC2Ev
FNDA:4,_ZN7testing8internal15TestFactoryImplI34soloBloquesTEST_toroideMuerto_TestEC1Ev
FNDA:4,_ZN7testing8internal15TestFactoryImplI40soloBloquesTEST_toroideUnBloquePuro_TestEC1Ev
FNDA:4,_ZN7testing8internal15TestFactoryImplI36soloBloquesTEST_toroideTodoVivo_TestEC1Ev
FNDA:4,_ZN7testing8internal15TestFactoryImplI45soloBloquesTEST_toroideBloqueCortadoPuro_TestEC1Ev
FNDA:4,_ZN7testing8internal15TestFactoryImplI48soloBloquesTEST_toroideMultiplesBloquesPuro_TestEC1Ev
FNDA:4,_ZN7testing8internal15TestFactoryImplI49soloBloquesTEST_evolucionEsToroideBloquePuro_TestEC1Ev
FNDA:4,_ZN7testing8internal15TestFactoryImplI50soloBloquesTEST_toroideMultiplesBloquesImpuro_TestEC1Ev
FNDA:4,_ZN7testing8internal15TestFactoryImplI34soloBloquesTEST_toroideMuerto_TestEC2Ev
FNDA:4,_ZN7testing8internal15TestFactoryImplI34soloBloquesTEST_toroideMuerto_TestED1Ev
FNDA:4,_ZN7testing8internal15TestFactoryImplI34soloBloquesTEST_toroideMuerto_TestED0Ev
FNDA:4,_ZN7testing8internal15TestFactoryImplI34soloBloquesTEST_toroideMuerto_TestED2Ev
FNDA:4,_ZN7testing8internal15TestFactoryImplI40soloBloquesTEST_toroideUnBloquePuro_TestEC2Ev
FNDA:4,_ZN7testing8internal15TestFactoryImplI40soloBloquesTEST_toroideUnBloquePuro_TestED1Ev
FNDA:4,_ZN7testing8internal15TestFactoryImplI40soloBloquesTEST_toroideUnBloquePuro_TestED0Ev
FNDA:4,_ZN7testing8internal15TestFactoryImplI40soloBloquesTEST_toroideUnBloquePuro_TestED2Ev
FNDA:4,_ZN7testing8internal15TestFactoryImplI36soloBloquesTEST_toroideTodoVivo_TestEC2Ev
FNDA:4,_ZN7testing8internal15TestFactoryImplI36soloBloquesTEST_toroideTodoVivo_TestED1Ev
FNDA:4,_ZN7testing8internal15TestFactoryImplI36soloBloquesTEST_toroideTodoVivo_TestED0Ev
FNDA:4,_ZN7testing8internal15TestFactoryImplI36soloBloquesTEST_toroideTodoVivo_TestED2Ev
FNDA:4,_ZN7testing8internal15TestFactoryImplI45soloBloquesTEST_toroideBloqueCortadoPuro_TestEC2Ev
FNDA:4,_ZN7testing8internal15TestFactoryImplI45soloBloquesTEST_toroideBloqueCortadoPuro_TestED1Ev
FNDA:4,_ZN7testing8internal15TestFactoryImplI45soloBloquesTEST_toroideBloqueCortadoPuro_TestED0Ev
FNDA:4,_ZN7testing8internal15TestFactoryImplI45soloBloquesTEST_toroideBloqueCortadoPuro_TestED2Ev
FNDA:4,_ZN7testing8internal15TestFactoryImplI48soloBloquesTEST_toroideMultiplesBloquesPuro_TestEC2Ev
FNDA:4,_ZN7testing8internal15TestFactoryImplI48soloBloquesTEST_toroideMultiplesBloquesPuro_TestED1Ev
FNDA:4,_ZN7testing8internal15TestFactoryImplI48soloBloquesTEST_toroideMultiplesBloquesPuro_TestED0Ev
FNDA:4,_ZN7testing8internal15TestFactoryImplI48soloBloquesTEST_toroideMultiplesBloquesPuro_TestED2Ev
FNDA:4,_ZN7testing8internal15TestFactoryImplI49soloBloquesTEST_evolucionEsToroideBloquePuro_TestEC2Ev
FNDA:4,_ZN7testing8internal15TestFactoryImplI49soloBloquesTEST_evolucionEsToroideBloquePuro_TestED1Ev
FNDA:4,_ZN7testing8internal15TestFactoryImplI49soloBloquesTEST_evolucionEsToroideBloquePuro_TestED0Ev
FNDA:4,_ZN7testing8internal15TestFactoryImplI49soloBloquesTEST_evolucionEsToroideBloquePuro_TestED2Ev
FNDA:4,_ZN7testing8internal15TestFactoryImplI50soloBloquesTEST_toroideMultiplesBloquesImpuro_TestEC2Ev
FNDA:4,_ZN7testing8internal15TestFactoryImplI50soloBloquesTEST_toroideMultiplesBloquesImpuro_TestED1Ev
FNDA:4,_ZN7testing8internal15TestFactoryImplI50soloBloquesTEST_toroideMultiplesBloquesImpuro_TestED0Ev
FNDA:4,_ZN7testing8internal15TestFactoryImplI50soloBloquesTEST_toroideMultiplesBloquesImpuro_TestED2Ev
FNDA:2,_ZN7testing8internal15TestFactoryImplI34soloBloquesTEST_toroideMuerto_TestE10CreateTestEv
FNDA:2,_ZN7testing8internal15TestFactoryImplI40soloBloquesTEST_toroideUnBloquePuro_TestE10CreateTestEv
FNDA:2,_ZN7testing8internal15TestFactoryImplI36soloBloquesTEST_toroideTodoVivo_TestE10CreateTestEv
FNDA:2,_ZN7testing8internal15TestFactoryImplI45soloBloquesTEST_toroideBloqueCortadoPuro_TestE10CreateTestEv
FNDA:2,_ZN7testing8internal15TestFactoryImplI48soloBloquesTEST_toroideMultiplesBloquesPuro_TestE10CreateTestEv
FNDA:2,_ZN7testing8internal15TestFactoryImplI49soloBloquesTEST_evolucionEsToroideBloquePuro_TestE10CreateTestEv
FNDA:2,_ZN7testing8internal15TestFactoryImplI50soloBloquesTEST_toroideMultiplesBloquesImpuro_TestE10CreateTestEv
FNDA:840,_ZN7testing8internal12CodeLocationD1Ev
FNDA:840,_ZN7testing8internal12CodeLocationD2Ev
FNDA:280,_ZN7testing8internal12CodeLocationC1ERKNSt3__112basic_stringIcNS2_11char_traitsIcEENS2_9allocatorIcEEEEi
FNDA:280,_ZN7testing8internal12CodeLocationC2ERKNSt3__112basic_stringIcNS2_11char_traitsIcEENS2_9allocatorIcEEEEi
FNF:50
FNH:48
DA:466,280
DA:473,280
DA:482,140
DA:484,28
DA:504,1680
DA:506,560
LF:6
LH:6
end_of_record
SF:/Users/vpomsztein/Documents/PrivateRepositories/Algoritmos1/TPI/juegoDeLaVida/lib/googletest-master/googletest/include/gtest/internal/gtest-port.h
FN:1156,_ZN7testing8internal10scoped_ptrINSt3__112basic_stringIcNS2_11char_traitsIcEENS2_9allocatorIcEEEEEC1EPS8_
FN:1156,_ZN7testing8internal10scoped_ptrINSt3__112basic_stringIcNS2_11char_traitsIcEENS2_9allocatorIcEEEEEC2EPS8_
FN:1157,_ZN7testing8internal10scoped_ptrINSt3__118basic_stringstreamIcNS2_11char_traitsIcEENS2_9allocatorIcEEEEED2Ev
FN:1157,_ZN7testing8internal10scoped_ptrINSt3__118basic_stringstreamIcNS2_11char_traitsIcEENS2_9allocatorIcEEEEED1Ev
FN:1157,_ZN7testing8internal10scoped_ptrINSt3__112basic_stringIcNS2_11char_traitsIcEENS2_9allocatorIcEEEEED2Ev
FN:1157,_ZN7testing8internal10scoped_ptrINSt3__112basic_stringIcNS2_11char_traitsIcEENS2_9allocatorIcEEEEED1Ev
FN:1169,_ZN7testing8internal10scoped_ptrINSt3__112basic_stringIcNS2_11char_traitsIcEENS2_9allocatorIcEEEEE5resetEPS8_
FN:1169,_ZN7testing8internal10scoped_ptrINSt3__118basic_stringstreamIcNS2_11char_traitsIcEENS2_9allocatorIcEEEEE5resetEPS8_
FNDA:204,_ZN7testing8internal10scoped_ptrINSt3__112basic_stringIcNS2_11char_traitsIcEENS2_9allocatorIcEEEEEC1EPS8_
FNDA:204,_ZN7testing8internal10scoped_ptrINSt3__112basic_stringIcNS2_11char_traitsIcEENS2_9allocatorIcEEEEEC2EPS8_
FNDA:400,_ZN7testing8internal10scoped_ptrINSt3__118basic_stringstreamIcNS2_11char_traitsIcEENS2_9allocatorIcEEEEED1Ev
FNDA:400,_ZN7testing8internal10scoped_ptrINSt3__118basic_stringstreamIcNS2_11char_traitsIcEENS2_9allocatorIcEEEEED2Ev
FNDA:204,_ZN7testing8internal10scoped_ptrINSt3__112basic_stringIcNS2_11char_traitsIcEENS2_9allocatorIcEEEEED1Ev
FNDA:204,_ZN7testing8internal10scoped_ptrINSt3__112basic_stringIcNS2_11char_traitsIcEENS2_9allocatorIcEEEEED2Ev
FNDA:400,_ZN7testing8internal10scoped_ptrINSt3__118basic_stringstreamIcNS2_11char_traitsIcEENS2_9allocatorIcEEEEE5resetEPS8_
FNDA:204,_ZN7testing8internal10scoped_ptrINSt3__112basic_stringIcNS2_11char_traitsIcEENS2_9allocatorIcEEEEE5resetEPS8_
FNF:8
FNH:8
DA:1156,408
DA:1157,1812
DA:1170,604
DA:1171,400
DA:1172,800
DA:1173,400
DA:1174,400
DA:1175,400
DA:1176,604
LF:9
LH:9
end_of_record
SF:/Users/vpomsztein/Documents/PrivateRepositories/Algoritmos1/TPI/juegoDeLaVida/tests/soloBloquesTEST.cpp
FN:6,__cxx_global_var_init
FN:6,_ZN34soloBloquesTEST_toroideMuerto_TestC2Ev
FN:6,_ZN34soloBloquesTEST_toroideMuerto_TestD2Ev
FN:6,_ZN34soloBloquesTEST_toroideMuerto_TestD0Ev
FN:6,_ZN34soloBloquesTEST_toroideMuerto_TestC1Ev
FN:6,_ZN34soloBloquesTEST_toroideMuerto_TestD1Ev
FN:6,_ZN34soloBloquesTEST_toroideMuerto_Test8TestBodyEv
FN:14,__cxx_global_var_init.9
FN:14,_ZN40soloBloquesTEST_toroideUnBloquePuro_TestD2Ev
FN:14,_ZN40soloBloquesTEST_toroideUnBloquePuro_TestD0Ev
FN:14,_ZN40soloBloquesTEST_toroideUnBloquePuro_TestC2Ev
FN:14,_ZN40soloBloquesTEST_toroideUnBloquePuro_Test8TestBodyEv
FN:14,_ZN40soloBloquesTEST_toroideUnBloquePuro_TestC1Ev
FN:14,_ZN40soloBloquesTEST_toroideUnBloquePuro_TestD1Ev
FN:22,_ZN36soloBloquesTEST_toroideTodoVivo_Test8TestBodyEv
FN:22,_ZN36soloBloquesTEST_toroideTodoVivo_TestD1Ev
FN:22,__cxx_global_var_init.15
FN:22,_ZN36soloBloquesTEST_toroideTodoVivo_TestC2Ev
FN:22,_ZN36soloBloquesTEST_toroideTodoVivo_TestC1Ev
FN:22,_ZN36soloBloquesTEST_toroideTodoVivo_TestD2Ev
FN:22,_ZN36soloBloquesTEST_toroideTodoVivo_TestD0Ev
FN:28,_ZN45soloBloquesTEST_toroideBloqueCortadoPuro_TestC1Ev
FN:28,_ZN45soloBloquesTEST_toroideBloqueCortadoPuro_Test8TestBodyEv
FN:28,_ZN45soloBloquesTEST_toroideBloqueCortadoPuro_TestD2Ev
FN:28,__cxx_global_var_init.19
FN:28,_ZN45soloBloquesTEST_toroideBloqueCortadoPuro_TestD1Ev
FN:28,_ZN45soloBloquesTEST_toroideBloqueCortadoPuro_TestD0Ev
FN:28,_ZN45soloBloquesTEST_toroideBloqueCortadoPuro_TestC2Ev
FN:36,_ZN48soloBloquesTEST_toroideMultiplesBloquesPuro_TestD0Ev
FN:36,_ZN48soloBloquesTEST_toroideMultiplesBloquesPuro_Test8TestBodyEv
FN:36,__cxx_global_var_init.25
FN:36,_ZN48soloBloquesTEST_toroideMultiplesBloquesPuro_TestD1Ev
FN:36,_ZN48soloBloquesTEST_toroideMultiplesBloquesPuro_TestC1Ev
FN:36,_ZN48soloBloquesTEST_toroideMultiplesBloquesPuro_TestD2Ev
FN:36,_ZN48soloBloquesTEST_toroideMultiplesBloquesPuro_TestC2Ev
FN:47,_ZN49soloBloquesTEST_evolucionEsToroideBloquePuro_TestC1Ev
FN:47,_ZN49soloBloquesTEST_evolucionEsToroideBloquePuro_TestD1Ev
FN:47,_ZN49soloBloquesTEST_evolucionEsToroideBloquePuro_TestC2Ev
FN:47,_ZN49soloBloquesTEST_evolucionEsToroideBloquePuro_Test8TestBodyEv
FN:47,__cxx_global_var_init.34
FN:47,_ZN49soloBloquesTEST_evolucionEsToroideBloquePuro_TestD2Ev
FN:47,_ZN49soloBloquesTEST_evolucionEsToroideBloquePuro_TestD0Ev
FN:55,_ZN50soloBloquesTEST_toroideMultiplesBloquesImpuro_TestC2Ev
FN:55,_ZN50soloBloquesTEST_toroideMultiplesBloquesImpuro_TestD2Ev
FN:55,_ZN50soloBloquesTEST_toroideMultiplesBloquesImpuro_TestD0Ev
FN:55,__cxx_global_var_init.40
FN:55,_ZN50soloBloquesTEST_toroideMultiplesBloquesImpuro_TestC1Ev
FN:55,_ZN50soloBloquesTEST_toroideMultiplesBloquesImpuro_Test8TestBodyEv
FN:55,_ZN50soloBloquesTEST_toroideMultiplesBloquesImpuro_TestD1Ev
FNDA:4,__cxx_global_var_init
FNDA:2,_ZN34soloBloquesTEST_toroideMuerto_Test8TestBodyEv
FNDA:2,_ZN34soloBloquesTEST_toroideMuerto_TestD1Ev
FNDA:2,_ZN34soloBloquesTEST_toroideMuerto_TestD0Ev
FNDA:2,_ZN34soloBloquesTEST_toroideMuerto_TestC1Ev
FNDA:2,_ZN34soloBloquesTEST_toroideMuerto_TestC2Ev
FNDA:2,_ZN34soloBloquesTEST_toroideMuerto_TestD2Ev
FNDA:4,__cxx_global_var_init.9
FNDA:2,_ZN40soloBloquesTEST_toroideUnBloquePuro_Test8TestBodyEv
FNDA:2,_ZN40soloBloquesTEST_toroideUnBloquePuro_TestD1Ev
FNDA:2,_ZN40soloBloquesTEST_toroideUnBloquePuro_TestD0Ev
FNDA:2,_ZN40soloBloquesTEST_toroideUnBloquePuro_TestC1Ev
FNDA:2,_ZN40soloBloquesTEST_toroideUnBloquePuro_TestC2Ev
FNDA:2,_ZN40soloBloquesTEST_toroideUnBloquePuro_TestD2Ev
FNDA:4,__cxx_global_var_init.15
FNDA:2,_ZN36soloBloquesTEST_toroideTodoVivo_Test8TestBodyEv
FNDA:2,_ZN36soloBloquesTEST_toroideTodoVivo_TestD1Ev
FNDA:2,_ZN36soloBloquesTEST_toroideTodoVivo_TestD0Ev
FNDA:2,_ZN36soloBloquesTEST_toroideTodoVivo_TestC1Ev
FNDA:2,_ZN36soloBloquesTEST_toroideTodoVivo_TestC2Ev
FNDA:2,_ZN36soloBloquesTEST_toroideTodoVivo_TestD2Ev
FNDA:4,__cxx_global_var_init.19
FNDA:2,_ZN45soloBloquesTEST_toroideBloqueCortadoPuro_Test8TestBodyEv
FNDA:2,_ZN45soloBloquesTEST_toroideBloqueCortadoPuro_TestD1Ev
FNDA:2,_ZN45soloBloquesTEST_toroideBloqueCortadoPuro_TestD0Ev
FNDA:2,_ZN45soloBloquesTEST_toroideBloqueCortadoPuro_TestC1Ev
FNDA:2,_ZN45soloBloquesTEST_toroideBloqueCortadoPuro_TestC2Ev
FNDA:2,_ZN45soloBloquesTEST_toroideBloqueCortadoPuro_TestD2Ev
FNDA:4,__cxx_global_var_init.25
FNDA:2,_ZN48soloBloquesTEST_toroideMultiplesBloquesPuro_Test8TestBodyEv
FNDA:2,_ZN48soloBloquesTEST_toroideMultiplesBloquesPuro_TestD1Ev
FNDA:2,_ZN48soloBloquesTEST_toroideMultiplesBloquesPuro_TestD0Ev
FNDA:2,_ZN48soloBloquesTEST_toroideMultiplesBloquesPuro_TestC1Ev
FNDA:2,_ZN48soloBloquesTEST_toroideMultiplesBloquesPuro_TestC2Ev
FNDA:2,_ZN48soloBloquesTEST_toroideMultiplesBloquesPuro_TestD2Ev
FNDA:4,__cxx_global_var_init.34
FNDA:2,_ZN49soloBloquesTEST_evolucionEsToroideBloquePuro_Test8TestBodyEv
FNDA:2,_ZN49soloBloquesTEST_evolucionEsToroideBloquePuro_TestD1Ev
FNDA:2,_ZN49soloBloquesTEST_evolucionEsToroideBloquePuro_TestD0Ev
FNDA:2,_ZN49soloBloquesTEST_evolucionEsToroideBloquePuro_TestC1Ev
FNDA:2,_ZN49soloBloquesTEST_evolucionEsToroideBloquePuro_TestC2Ev
FNDA:2,_ZN49soloBloquesTEST_evolucionEsToroideBloquePuro_TestD2Ev
FNDA:4,__cxx_global_var_init.40
FNDA:2,_ZN50soloBloquesTEST_toroideMultiplesBloquesImpuro_Test8TestBodyEv
FNDA:2,_ZN50soloBloquesTEST_toroideMultiplesBloquesImpuro_TestD1Ev
FNDA:2,_ZN50soloBloquesTEST_toroideMultiplesBloquesImpuro_TestD0Ev
FNDA:2,_ZN50soloBloquesTEST_toroideMultiplesBloquesImpuro_TestC1Ev
FNDA:2,_ZN50soloBloquesTEST_toroideMultiplesBloquesImpuro_TestC2Ev
FNDA:2,_ZN50soloBloquesTEST_toroideMultiplesBloquesImpuro_TestD2Ev
FNF:49
FNH:49
DA:6,38
DA:7,20
DA:8,2
DA:9,2
DA:10,2
DA:11,14
DA:12,2
DA:14,38
DA:15,20
DA:16,2
DA:17,2
DA:18,2
DA:19,14
DA:20,2
DA:22,38
DA:23,12
DA:24,2
DA:25,14
DA:26,2
DA:28,38
DA:29,20
DA:30,2
DA:31,2
DA:32,2
DA:33,14
DA:34,2
DA:36,38
DA:37,32
DA:38,2
DA:39,2
DA:40,2
DA:41,2
DA:42,2
DA:43,2
DA:44,14
DA:45,2
DA:47,38
DA:48,20
DA:49,2
DA:50,2
DA:51,2
DA:52,14
DA:53,2
DA:55,38
DA:56,32
DA:57,2
DA:58,2
DA:59,2
DA:60,2
DA:61,2
DA:62,2
DA:63,14
DA:64,2
LF:53
LH:53
end_of_record
TN:
SF:/Applications/Xcode.app/Contents/Developer/Toolchains/XcodeDefault.xctoolchain/usr/include/c++/v1/__bit_reference
FN:56,_ZNSt3__115__bit_referenceINS_6vectorIbNS_9allocatorIbEEEELb1EEaSEb
FN:74,_ZNSt3__115__bit_referenceINS_6vectorIbNS_9allocatorIbEEEELb1EEC1EPmm
FN:74,_ZNSt3__115__bit_referenceINS_6vectorIbNS_9allocatorIbEEEELb1EEC2EPmm
FN:404,_ZNSt3__114__copy_alignedINS_6vectorIbNS_9allocatorIbEEEELb1EEENS_14__bit_iteratorIT_Lb0EXLi0EEEENS5_IS6_XT0_EXLi0EEEES8_S7_
FN:453,_ZNSt3__116__copy_unalignedINS_6vectorIbNS_9allocatorIbEEEELb1EEENS_14__bit_iteratorIT_Lb0EXLi0EEEENS5_IS6_XT0_EXLi0EEEES8_S7_
FN:532,_ZNSt3__14copyINS_6vectorIbNS_9allocatorIbEEEELb1EEENS_14__bit_iteratorIT_Lb0EXLi0EEEENS5_IS6_XT0_EXLi0EEEES8_S7_
FN:1112,_ZNSt3__114__bit_iteratorINS_6vectorIbNS_9allocatorIbEEEELb0ELm0EEC2ERKS5_
FN:1112,_ZNSt3__114__bit_iteratorINS_6vectorIbNS_9allocatorIbEEEELb0ELm0EEC1ERKS5_
FN:1115,_ZNKSt3__114__bit_iteratorINS_6vectorIbNS_9allocatorIbEEEELb0ELm0EEdeEv
FN:1118,_ZNSt3__114__bit_iteratorINS_6vectorIbNS_9allocatorIbEEEELb0ELm0EEppEv
FN:1191,_ZNSt3__1miERKNS_14__bit_iteratorINS_6vectorIbNS_9allocatorIbEEEELb1ELm0EEES7_
FN:1216,_ZNSt3__114__bit_iteratorINS_6vectorIbNS_9allocatorIbEEEELb0ELm0EEC1EPmj
FN:1216,_ZNSt3__114__bit_iteratorINS_6vectorIbNS_9allocatorIbEEEELb0ELm0EEC2EPmj
FN:1216,_ZNSt3__114__bit_iteratorINS_6vectorIbNS_9allocatorIbEEEELb1ELm0EEC2EPKmj
FN:1216,_ZNSt3__114__bit_iteratorINS_6vectorIbNS_9allocatorIbEEEELb1ELm0EEC1EPKmj
FNDA:0,_ZNSt3__115__bit_referenceINS_6vectorIbNS_9allocatorIbEEEELb1EEaSEb
FNDA:0,_ZNSt3__115__bit_referenceINS_6vectorIbNS_9allocatorIbEEEELb1EEC1EPmm
FNDA:0,_ZNSt3__115__bit_referenceINS_6vectorIbNS_9allocatorIbEEEELb1EEC2EPmm
FNDA:0,_ZNSt3__114__copy_alignedINS_6vectorIbNS_9allocatorIbEEEELb1EEENS_14__bit_iteratorIT_Lb0EXLi0EEEENS5_IS6_XT0_EXLi0EEEES8_S7_
FNDA:0,_ZNSt3__116__copy_unalignedINS_6vectorIbNS_9allocatorIbEEEELb1EEENS_14__bit_iteratorIT_Lb0EXLi0EEEENS5_IS6_XT0_EXLi0EEEES8_S7_
FNDA:0,_ZNSt3__14copyINS_6vectorIbNS_9allocatorIbEEEELb1EEENS_14__bit_iteratorIT_Lb0EXLi0EEEENS5_IS6_XT0_EXLi0EEEES8_S7_
FNDA:0,_ZNSt3__114__bit_iteratorINS_6vectorIbNS_9allocatorIbEEEELb0ELm0EEC1ERKS5_
FNDA:0,_ZNSt3__114__bit_iteratorINS_6vectorIbNS_9allocatorIbEEEELb0ELm0EEC2ERKS5_
FNDA:0,_ZNKSt3__114__bit_iteratorINS_6vectorIbNS_9allocatorIbEEEELb0ELm0EEdeEv
FNDA:0,_ZNSt3__114__bit_iteratorINS_6vectorIbNS_9allocatorIbEEEELb0ELm0EEppEv
FNDA:0,_ZNSt3__1miERKNS_14__bit_iteratorINS_6vectorIbNS_9allocatorIbEEEELb1ELm0EEES7_
FNDA:0,_ZNSt3__114__bit_iteratorINS_6vectorIbNS_9allocatorIbEEEELb0ELm0EEC1EPmj
FNDA:0,_ZNSt3__114__bit_iteratorINS_6vectorIbNS_9allocatorIbEEEELb0ELm0EEC2EPmj
FNDA:0,_ZNSt3__114__bit_iteratorINS_6vectorIbNS_9allocatorIbEEEELb1ELm0EEC1EPKmj
FNDA:0,_ZNSt3__114__bit_iteratorINS_6vectorIbNS_9allocatorIbEEEELb1ELm0EEC2EPKmj
FNF:15
FNH:0
DA:58,0
DA:59,0
DA:61,0
DA:62,0
DA:75,0
DA:410,0
DA:411,0
DA:412,0
DA:415,0
DA:417,0
DA:418,0
DA:419,0
DA:420,0
DA:421,0
DA:422,0
DA:423,0
DA:424,0
DA:425,0
DA:426,0
DA:428,0
DA:431,0
DA:432,0
DA:433,0
DA:434,0
DA:435,0
DA:436,0
DA:438,0
DA:440,0
DA:441,0
DA:442,0
DA:443,0
DA:444,0
DA:445,0
DA:446,0
DA:447,0
DA:448,0
DA:460,0
DA:461,0
DA:464,0
DA:466,0
DA:467,0
DA:468,0
DA:469,0
DA:470,0
DA:471,0
DA:472,0
DA:473,0
DA:474,0
DA:475,0
DA:476,0
DA:478,0
DA:479,0
DA:480,0
DA:481,0
DA:482,0
DA:484,0
DA:485,0
DA:486,0
DA:487,0
DA:488,0
DA:489,0
DA:491,0
DA:494,0
DA:495,0
DA:496,0
DA:498,0
DA:499,0
DA:500,0
DA:501,0
DA:502,0
DA:503,0
DA:504,0
DA:506,0
DA:508,0
DA:509,0
DA:510,0
DA:511,0
DA:512,0
DA:513,0
DA:514,0
DA:515,0
DA:516,0
DA:517,0
DA:519,0
DA:520,0
DA:521,0
DA:522,0
DA:523,0
DA:524,0
DA:525,0
DA:526,0
DA:534,0
DA:535,0
DA:536,0
DA:537,0
DA:1113,0
DA:1116,0
DA:1120,0
DA:1121,0
DA:1124,0
DA:1125,0
DA:1127,0
DA:1192,0
DA:1217,0
LF:104
LH:0
end_of_record
SF:/Applications/Xcode.app/Contents/Developer/Toolchains/XcodeDefault.xctoolchain/usr/include/c++/v1/__string
FN:217,_ZNSt3__111char_traitsIcE6lengthEPKc
FNDA:0,_ZNSt3__111char_traitsIcE6lengthEPKc
FNF:1
FNH:0
DA:217,0
LF:1
LH:0
end_of_record
SF:/Applications/Xcode.app/Contents/Developer/Toolchains/XcodeDefault.xctoolchain/usr/include/c++/v1/algorithm
FN:719,_ZNKSt3__16__lessImmEclERKmS3_
FN:719,_ZNKSt3__16__lessIllEclERKlS3_
FN:1759,_ZNSt3__113__unwrap_iterINS_14__bit_iteratorINS_6vectorIbNS_9allocatorIbEEEELb0ELm0EEEEET_S7_
FN:1759,_ZNSt3__113__unwrap_iterIPKbEET_S3_
FN:1809,_ZNSt3__16__copyIPKbNS_14__bit_iteratorINS_6vectorIbNS_9allocatorIbEEEELb0ELm0EEEEET0_T_SA_S9_
FN:1835,_ZNSt3__14copyIPKbNS_14__bit_iteratorINS_6vectorIbNS_9allocatorIbEEEELb0ELm0EEEEET0_T_SA_S9_
FN:2644,_ZNSt3__13minIlNS_6__lessIllEEEERKT_S5_S5_T0_
FN:2644,_ZNSt3__13minImNS_6__lessImmEEEERKT_S5_S5_T0_
FN:2652,_ZNSt3__13minImEERKT_S3_S3_
FN:2652,_ZNSt3__13minIlEERKT_S3_S3_
FNDA:0,_ZNKSt3__16__lessImmEclERKmS3_
FNDA:0,_ZNKSt3__16__lessIllEclERKlS3_
FNDA:0,_ZNSt3__113__unwrap_iterIPKbEET_S3_
FNDA:0,_ZNSt3__113__unwrap_iterINS_14__bit_iteratorINS_6vectorIbNS_9allocatorIbEEEELb0ELm0EEEEET_S7_
FNDA:0,_ZNSt3__16__copyIPKbNS_14__bit_iteratorINS_6vectorIbNS_9allocatorIbEEEELb0ELm0EEEEET0_T_SA_S9_
FNDA:0,_ZNSt3__14copyIPKbNS_14__bit_iteratorINS_6vectorIbNS_9allocatorIbEEEELb0ELm0EEEEET0_T_SA_S9_
FNDA:0,_ZNSt3__13minImNS_6__lessImmEEEERKT_S5_S5_T0_
FNDA:0,_ZNSt3__13minIlNS_6__lessIllEEEERKT_S5_S5_T0_
FNDA:0,_ZNSt3__13minImEERKT_S3_S3_
FNDA:0,_ZNSt3__13minIlEERKT_S3_S3_
FNF:10
FNH:0
DA:719,0
DA:1761,0
DA:1811,0
DA:1812,0
DA:1813,0
DA:1837,0
DA:2646,0
DA:2654,0
LF:8
LH:0
end_of_record
SF:/Applications/Xcode.app/Contents/Developer/Toolchains/XcodeDefault.xctoolchain/usr/include/c++/v1/initializer_list
FN:85,_ZNKSt16initializer_listINSt3__16vectorIbNS0_9allocatorIbEEEEE4sizeEv
FN:85,_ZNKSt16initializer_listIbE4sizeEv
FN:89,_ZNKSt16initializer_listIbE5beginEv
FN:89,_ZNKSt16initializer_listINSt3__16vectorIbNS0_9allocatorIbEEEEE5beginEv
FN:93,_ZNKSt16initializer_listINSt3__16vectorIbNS0_9allocatorIbEEEEE3endEv
FN:93,_ZNKSt16initializer_listIbE3endEv
FNDA:0,_ZNKSt16initializer_listIbE4sizeEv
FNDA:24,_ZNKSt16initializer_listINSt3__16vectorIbNS0_9allocatorIbEEEEE4sizeEv
FNDA:0,_ZNKSt16initializer_listIbE5beginEv
FNDA:8,_ZNKSt16initializer_listINSt3__16vectorIbNS0_9allocatorIbEEEEE5beginEv
FNDA:0,_ZNKSt16initializer_listIbE3endEv
FNDA:8,_ZNKSt16initializer_listINSt3__16vectorIbNS0_9allocatorIbEEEEE3endEv
FNF:6
FNH:3
DA:85,24
DA:89,8
DA:93,8
LF:3
LH:3
end_of_record
SF:/Applications/Xcode.app/Contents/Developer/Toolchains/XcodeDefault.xctoolchain/usr/include/c++/v1/iterator
FN:592,_ZNSt3__110__distanceINS_14__bit_iteratorINS_6vectorIbNS_9allocatorIbEEEELb1ELm0EEEEENS_15iterator_traitsIT_E15difference_typeES8_S8_NS_26random_access_iterator_tagE
FN:592,_ZNSt3__110__distanceIPKbEENS_15iterator_traitsIT_E15difference_typeES4_S4_NS_26random_access_iterator_tagE
FN:600,_ZNSt3__18distanceINS_14__bit_iteratorINS_6vectorIbNS_9allocatorIbEEEELb1ELm0EEEEENS_15iterator_traitsIT_E15difference_typeES8_S8_
FN:600,_ZNSt3__18distanceIPKbEENS_15iterator_traitsIT_E15difference_typeES4_S4_
FNDA:0,_ZNSt3__110__distanceIPKbEENS_15iterator_traitsIT_E15difference_typeES4_S4_NS_26random_access_iterator_tagE
FNDA:0,_ZNSt3__110__distanceINS_14__bit_iteratorINS_6vectorIbNS_9allocatorIbEEEELb1ELm0EEEEENS_15iterator_traitsIT_E15difference_typeES8_S8_NS_26random_access_iterator_tagE
FNDA:0,_ZNSt3__18distanceIPKbEENS_15iterator_traitsIT_E15difference_typeES4_S4_
FNDA:0,_ZNSt3__18distanceINS_14__bit_iteratorINS_6vectorIbNS_9allocatorIbEEEELb1ELm0EEEEENS_15iterator_traitsIT_E15difference_typeES8_S8_
FNF:4
FNH:0
DA:594,0
DA:602,0
LF:2
LH:0
end_of_record
SF:/Applications/Xcode.app/Contents/Developer/Toolchains/XcodeDefault.xctoolchain/usr/include/c++/v1/limits
FN:213,_ZNSt3__123__libcpp_numeric_limitsImLb1EE3maxEv
FN:213,_ZNSt3__123__libcpp_numeric_limitsIlLb1EE3maxEv
FN:450,_ZNSt3__114numeric_limitsIlE3maxEv
FN:450,_ZNSt3__114numeric_limitsImE3maxEv
FNDA:0,_ZNSt3__123__libcpp_numeric_limitsImLb1EE3maxEv
FNDA:0,_ZNSt3__123__libcpp_numeric_limitsIlLb1EE3maxEv
FNDA:0,_ZNSt3__114numeric_limitsImE3maxEv
FNDA:0,_ZNSt3__114numeric_limitsIlE3maxEv
FNF:4
FNH:0
DA:213,0
DA:450,0
LF:2
LH:0
end_of_record
SF:/Applications/Xcode.app/Contents/Developer/Toolchains/XcodeDefault.xctoolchain/usr/include/c++/v1/memory
FN:977,_ZNSt3__114pointer_traitsIPKcE10pointer_toERS1_
FN:1095,_ZNSt3__116__to_raw_pointerIKmEEPT_S3_
FN:1095,_ZNSt3__116__to_raw_pointerINS_6vectorIbNS_9allocatorIbEEEEEEPT_S6_
FN:1095,_ZNSt3__116__to_raw_pointerIKcEEPT_S3_
FN:1095,_ZNSt3__116__to_raw_pointerImEEPT_S2_
FN:1501,_ZNSt3__116allocator_traitsINS_9allocatorImEEE8allocateERS2_m
FN:1501,_ZNSt3__116allocator_traitsINS_9allocatorINS_6vectorIbNS1_IbEEEEEEE8allocateERS5_m
FN:1509,_ZNSt3__116allocator_traitsINS_9allocatorImEEE10deallocateERS2_Pmm
FN:1509,_ZNSt3__116allocator_traitsINS_9allocatorINS_6vectorIbNS1_IbEEEEEEE10deallocateERS5_PS4_m
FN:1515,_ZNSt3__116allocator_traitsINS_9allocatorINS_6vectorIbNS1_IbEEEEEEE9constructIS4_JRKS4_EEEvRS5_PT_DpOT0_
FN:1515,_ZNSt3__116allocator_traitsINS_9allocatorINS_6vectorIbNS1_IbEEEEEEE9constructIS4_JRS4_EEEvRS5_PT_DpOT0_
FN:1549,_ZNSt3__116allocator_traitsINS_9allocatorINS_6vectorIbNS1_IbEEEEEEE7destroyIS4_EEvRS5_PT_
FN:1553,_ZNSt3__116allocator_traitsINS_9allocatorINS_6vectorIbNS1_IbEEEEEEE8max_sizeERKS5_
FN:1553,_ZNSt3__116allocator_traitsINS_9allocatorImEEE8max_sizeERKS2_
FN:1558,_ZNSt3__116allocator_traitsINS_9allocatorImEEE37select_on_container_copy_constructionERKS2_
FN:1558,_ZNSt3__116allocator_traitsINS_9allocatorINS_6vectorIbNS1_IbEEEEEEE37select_on_container_copy_constructionERKS5_
FN:1597,_ZNSt3__116allocator_traitsINS_9allocatorINS_6vectorIbNS1_IbEEEEEEE25__construct_range_forwardIPKS4_PS4_EEvRS5_T_SC_RT0_
FN:1597,_ZNSt3__116allocator_traitsINS_9allocatorINS_6vectorIbNS1_IbEEEEEEE25__construct_range_forwardIPS4_S8_EEvRS5_T_SA_RT0_
FN:1669,_ZNSt3__116allocator_traitsINS_9allocatorINS_6vectorIbNS1_IbEEEEEEE11__constructIS4_JRS4_EEEvNS_17integral_constantIbLb1EEERS5_PT_DpOT0_
FN:1669,_ZNSt3__116allocator_traitsINS_9allocatorINS_6vectorIbNS1_IbEEEEEEE11__constructIS4_JRKS4_EEEvNS_17integral_constantIbLb1EEERS5_PT_DpOT0_
FN:1681,_ZNSt3__116allocator_traitsINS_9allocatorINS_6vectorIbNS1_IbEEEEEEE9__destroyIS4_EEvNS_17integral_constantIbLb1EEERS5_PT_
FN:1691,_ZNSt3__116allocator_traitsINS_9allocatorImEEE10__max_sizeENS_17integral_constantIbLb1EEERKS2_
FN:1691,_ZNSt3__116allocator_traitsINS_9allocatorINS_6vectorIbNS1_IbEEEEEEE10__max_sizeENS_17integral_constantIbLb1EEERKS5_
FN:1703,_ZNSt3__116allocator_traitsINS_9allocatorINS_6vectorIbNS1_IbEEEEEEE39__select_on_container_copy_constructionENS_17integral_constantIbLb0EEERKS5_
FN:1703,_ZNSt3__116allocator_traitsINS_9allocatorImEEE39__select_on_container_copy_constructionENS_17integral_constantIbLb0EEERKS2_
FN:1736,_ZNSt3__19allocatorImEC2Ev
FN:1736,_ZNSt3__19allocatorINS_6vectorIbNS0_IbEEEEEC2Ev
FN:1736,_ZNSt3__19allocatorIcEC2Ev
FN:1742,_ZNSt3__19allocatorImE8allocateEmPKv
FN:1742,_ZNSt3__19allocatorINS_6vectorIbNS0_IbEEEEE8allocateEmPKv
FN:1749,_ZNSt3__19allocatorINS_6vectorIbNS0_IbEEEEE10deallocateEPS3_m
FN:1749,_ZNSt3__19allocatorImE10deallocateEPmm
FN:1751,_ZNKSt3__19allocatorImE8max_sizeEv
FN:1751,_ZNKSt3__19allocatorINS_6vectorIbNS0_IbEEEEE8max_sizeEv
FN:1757,_ZNSt3__19allocatorINS_6vectorIbNS0_IbEEEEE9constructIS3_JRS3_EEEvPT_DpOT0_
FN:1757,_ZNSt3__19allocatorINS_6vectorIbNS0_IbEEEEE9constructIS3_JRKS3_EEEvPT_DpOT0_
FN:1814,_ZNSt3__19allocatorINS_6vectorIbNS0_IbEEEEE7destroyEPS3_
FN:2043,_ZNSt3__122__compressed_pair_elemINS_12basic_stringIcNS_11char_traitsIcEENS_9allocatorIcEEE5__repELi0ELb0EEC2Ev
FN:2050,_ZNSt3__122__compressed_pair_elemImLi0ELb0EEC2IivEEOT_
FN:2050,_ZNSt3__122__compressed_pair_elemIPNS_6vectorIbNS_9allocatorIbEEEELi0ELb0EEC2IDnvEEOT_
FN:2064,_ZNSt3__122__compressed_pair_elemImLi0ELb0EE5__getEv
FN:2064,_ZNSt3__122__compressed_pair_elemIPNS_6vectorIbNS_9allocatorIbEEEELi0ELb0EE5__getEv
FN:2066,_ZNKSt3__122__compressed_pair_elemINS_12basic_stringIcNS_11char_traitsIcEENS_9allocatorIcEEE5__repELi0ELb0EE5__getEv
FN:2066,_ZNKSt3__122__compressed_pair_elemIPNS_6vectorIbNS_9allocatorIbEEEELi0ELb0EE5__getEv
FN:2080,_ZNSt3__122__compressed_pair_elemINS_9allocatorINS_6vectorIbNS1_IbEEEEEELi1ELb1EEC2Ev
FN:2080,_ZNSt3__122__compressed_pair_elemINS_9allocatorImEELi1ELb1EEC2Ev
FN:2080,_ZNSt3__122__compressed_pair_elemINS_9allocatorIcEELi1ELb1EEC2Ev
FN:2087,_ZNSt3__122__compressed_pair_elemINS_9allocatorINS_6vectorIbNS1_IbEEEEEELi1ELb1EEC2IRKS5_vEEOT_
FN:2087,_ZNSt3__122__compressed_pair_elemINS_9allocatorImEELi1ELb1EEC2IS2_vEEOT_
FN:2102,_ZNSt3__122__compressed_pair_elemINS_9allocatorImEELi1ELb1EE5__getEv
FN:2102,_ZNSt3__122__compressed_pair_elemINS_9allocatorINS_6vectorIbNS1_IbEEEEEELi1ELb1EE5__getEv
FN:2104,_ZNKSt3__122__compressed_pair_elemINS_9allocatorINS_6vectorIbNS1_IbEEEEEELi1ELb1EE5__getEv
FN:2104,_ZNKSt3__122__compressed_pair_elemINS_9allocatorImEELi1ELb1EE5__getEv
FN:2134,_ZNSt3__117__compressed_pairINS_12basic_stringIcNS_11char_traitsIcEENS_9allocatorIcEEE5__repES5_EC2ILb1EvEEv
FN:2134,_ZNSt3__117__compressed_pairINS_12basic_stringIcNS_11char_traitsIcEENS_9allocatorIcEEE5__repES5_EC1ILb1EvEEv
FN:2140,_ZNSt3__117__compressed_pairImNS_9allocatorImEEEC1IiLb1EEEOT_
FN:2140,_ZNSt3__117__compressed_pairIPNS_6vectorIbNS_9allocatorIbEEEENS2_IS4_EEEC1IDnLb1EEEOT_
FN:2140,_ZNSt3__117__compressed_pairImNS_9allocatorImEEEC2IiLb1EEEOT_
FN:2140,_ZNSt3__117__compressed_pairIPNS_6vectorIbNS_9allocatorIbEEEENS2_IS4_EEEC2IDnLb1EEEOT_
FN:2150,_ZNSt3__117__compressed_pairIPNS_6vectorIbNS_9allocatorIbEEEENS2_IS4_EEEC1IDnRKS6_EEOT_OT0_
FN:2150,_ZNSt3__117__compressed_pairImNS_9allocatorImEEEC1IiS2_EEOT_OT0_
FN:2150,_ZNSt3__117__compressed_pairIPNS_6vectorIbNS_9allocatorIbEEEENS2_IS4_EEEC2IDnRKS6_EEOT_OT0_
FN:2150,_ZNSt3__117__compressed_pairImNS_9allocatorImEEEC2IiS2_EEOT_OT0_
FN:2179,_ZNSt3__117__compressed_pairIPNS_6vectorIbNS_9allocatorIbEEEENS2_IS4_EEE5firstEv
FN:2179,_ZNSt3__117__compressed_pairImNS_9allocatorImEEE5firstEv
FN:2184,_ZNKSt3__117__compressed_pairINS_12basic_stringIcNS_11char_traitsIcEENS_9allocatorIcEEE5__repES5_E5firstEv
FN:2184,_ZNKSt3__117__compressed_pairIPNS_6vectorIbNS_9allocatorIbEEEENS2_IS4_EEE5firstEv
FN:2189,_ZNSt3__117__compressed_pairIPNS_6vectorIbNS_9allocatorIbEEEENS2_IS4_EEE6secondEv
FN:2189,_ZNSt3__117__compressed_pairImNS_9allocatorImEEE6secondEv
FN:2194,_ZNKSt3__117__compressed_pairIPNS_6vectorIbNS_9allocatorIbEEEENS2_IS4_EEE6secondEv
FN:2194,_ZNKSt3__117__compressed_pairImNS_9allocatorImEEE6secondEv
FNDA:0,_ZNSt3__114pointer_traitsIPKcE10pointer_toERS1_
FNDA:0,_ZNSt3__116__to_raw_pointerINS_6vectorIbNS_9allocatorIbEEEEEEPT_S6_
FNDA:0,_ZNSt3__116__to_raw_pointerIKcEEPT_S3_
FNDA:0,_ZNSt3__116__to_raw_pointerImEEPT_S2_
FNDA:0,_ZNSt3__116__to_raw_pointerIKmEEPT_S3_
FNDA:0,_ZNSt3__116allocator_traitsINS_9allocatorImEEE8allocateERS2_m
FNDA:0,_ZNSt3__116allocator_traitsINS_9allocatorINS_6vectorIbNS1_IbEEEEEEE8allocateERS5_m
FNDA:0,_ZNSt3__116allocator_traitsINS_9allocatorINS_6vectorIbNS1_IbEEEEEEE10deallocateERS5_PS4_m
FNDA:0,_ZNSt3__116allocator_traitsINS_9allocatorImEEE10deallocateERS2_Pmm
FNDA:0,_ZNSt3__116allocator_traitsINS_9allocatorINS_6vectorIbNS1_IbEEEEEEE9constructIS4_JRKS4_EEEvRS5_PT_DpOT0_
FNDA:0,_ZNSt3__116allocator_traitsINS_9allocatorINS_6vectorIbNS1_IbEEEEEEE9constructIS4_JRS4_EEEvRS5_PT_DpOT0_
FNDA:0,_ZNSt3__116allocator_traitsINS_9allocatorINS_6vectorIbNS1_IbEEEEEEE7destroyIS4_EEvRS5_PT_
FNDA:0,_ZNSt3__116allocator_traitsINS_9allocatorImEEE8max_sizeERKS2_
FNDA:0,_ZNSt3__116allocator_traitsINS_9allocatorINS_6vectorIbNS1_IbEEEEEEE8max_sizeERKS5_
FNDA:0,_ZNSt3__116allocator_traitsINS_9allocatorImEEE37select_on_container_copy_constructionERKS2_
FNDA:0,_ZNSt3__116allocator_traitsINS_9allocatorINS_6vectorIbNS1_IbEEEEEEE37select_on_container_copy_constructionERKS5_
FNDA:0,_ZNSt3__116allocator_traitsINS_9allocatorINS_6vectorIbNS1_IbEEEEEEE25__construct_range_forwardIPKS4_PS4_EEvRS5_T_SC_RT0_
FNDA:0,_ZNSt3__116allocator_traitsINS_9allocatorINS_6vectorIbNS1_IbEEEEEEE25__construct_range_forwardIPS4_S8_EEvRS5_T_SA_RT0_
FNDA:0,_ZNSt3__116allocator_traitsINS_9allocatorINS_6vectorIbNS1_IbEEEEEEE11__constructIS4_JRKS4_EEEvNS_17integral_constantIbLb1EEERS5_PT_DpOT0_
FNDA:0,_ZNSt3__116allocator_traitsINS_9allocatorINS_6vectorIbNS1_IbEEEEEEE11__constructIS4_JRS4_EEEvNS_17integral_constantIbLb1EEERS5_PT_DpOT0_
FNDA:0,_ZNSt3__116allocator_traitsINS_9allocatorINS_6vectorIbNS1_IbEEEEEEE9__destroyIS4_EEvNS_17integral_constantIbLb1EEERS5_PT_
FNDA:0,_ZNSt3__116allocator_traitsINS_9allocatorImEEE10__max_sizeENS_17integral_constantIbLb1EEERKS2_
FNDA:0,_ZNSt3__116allocator_traitsINS_9allocatorINS_6vectorIbNS1_IbEEEEEEE10__max_sizeENS_17integral_constantIbLb1EEERKS5_
FNDA:0,_ZNSt3__116allocator_traitsINS_9allocatorImEEE39__select_on_container_copy_constructionENS_17integral_constantIbLb0EEERKS2_
FNDA:0,_ZNSt3__116allocator_traitsINS_9allocatorINS_6vectorIbNS1_IbEEEEEEE39__select_on_container_copy_constructionENS_17integral_constantIbLb0EEERKS5_
FNDA:8,_ZNSt3__19allocatorIcEC2Ev
FNDA:0,_ZNSt3__19allocatorImEC2Ev
FNDA:8,_ZNSt3__19allocatorINS_6vectorIbNS0_IbEEEEEC2Ev
FNDA:0,_ZNSt3__19allocatorImE8allocateEmPKv
FNDA:0,_ZNSt3__19allocatorINS_6vectorIbNS0_IbEEEEE8allocateEmPKv
FNDA:0,_ZNSt3__19allocatorINS_6vectorIbNS0_IbEEEEE10deallocateEPS3_m
FNDA:0,_ZNSt3__19allocatorImE10deallocateEPmm
FNDA:0,_ZNKSt3__19allocatorImE8max_sizeEv
FNDA:0,_ZNKSt3__19allocatorINS_6vectorIbNS0_IbEEEEE8max_sizeEv
FNDA:0,_ZNSt3__19allocatorINS_6vectorIbNS0_IbEEEEE9constructIS3_JRKS3_EEEvPT_DpOT0_
FNDA:0,_ZNSt3__19allocatorINS_6vectorIbNS0_IbEEEEE9constructIS3_JRS3_EEEvPT_DpOT0_
FNDA:0,_ZNSt3__19allocatorINS_6vectorIbNS0_IbEEEEE7destroyEPS3_
FNDA:8,_ZNSt3__122__compressed_pair_elemINS_12basic_stringIcNS_11char_traitsIcEENS_9allocatorIcEEE5__repELi0ELb0EEC2Ev
FNDA:0,_ZNSt3__122__compressed_pair_elemImLi0ELb0EEC2IivEEOT_
FNDA:8,_ZNSt3__122__compressed_pair_elemIPNS_6vectorIbNS_9allocatorIbEEEELi0ELb0EEC2IDnvEEOT_
FNDA:0,_ZNSt3__122__compressed_pair_elemImLi0ELb0EE5__getEv
FNDA:0,_ZNSt3__122__compressed_pair_elemIPNS_6vectorIbNS_9allocatorIbEEEELi0ELb0EE5__getEv
FNDA:0,_ZNKSt3__122__compressed_pair_elemIPNS_6vectorIbNS_9allocatorIbEEEELi0ELb0EE5__getEv
FNDA:0,_ZNKSt3__122__compressed_pair_elemINS_12basic_stringIcNS_11char_traitsIcEENS_9allocatorIcEEE5__repELi0ELb0EE5__getEv
FNDA:8,_ZNSt3__122__compressed_pair_elemINS_9allocatorIcEELi1ELb1EEC2Ev
FNDA:0,_ZNSt3__122__compressed_pair_elemINS_9allocatorImEELi1ELb1EEC2Ev
FNDA:8,_ZNSt3__122__compressed_pair_elemINS_9allocatorINS_6vectorIbNS1_IbEEEEEELi1ELb1EEC2Ev
FNDA:0,_ZNSt3__122__compressed_pair_elemINS_9allocatorImEELi1ELb1EEC2IS2_vEEOT_
FNDA:0,_ZNSt3__122__compressed_pair_elemINS_9allocatorINS_6vectorIbNS1_IbEEEEEELi1ELb1EEC2IRKS5_vEEOT_
FNDA:0,_ZNSt3__122__compressed_pair_elemINS_9allocatorINS_6vectorIbNS1_IbEEEEEELi1ELb1EE5__getEv
FNDA:0,_ZNSt3__122__compressed_pair_elemINS_9allocatorImEELi1ELb1EE5__getEv
FNDA:0,_ZNKSt3__122__compressed_pair_elemINS_9allocatorImEELi1ELb1EE5__getEv
FNDA:0,_ZNKSt3__122__compressed_pair_elemINS_9allocatorINS_6vectorIbNS1_IbEEEEEELi1ELb1EE5__getEv
FNDA:8,_ZNSt3__117__compressed_pairINS_12basic_stringIcNS_11char_traitsIcEENS_9allocatorIcEEE5__repES5_EC1ILb1EvEEv
FNDA:8,_ZNSt3__117__compressed_pairINS_12basic_stringIcNS_11char_traitsIcEENS_9allocatorIcEEE5__repES5_EC2ILb1EvEEv
FNDA:0,_ZNSt3__117__compressed_pairImNS_9allocatorImEEEC1IiLb1EEEOT_
FNDA:0,_ZNSt3__117__compressed_pairImNS_9allocatorImEEEC2IiLb1EEEOT_
FNDA:8,_ZNSt3__117__compressed_pairIPNS_6vectorIbNS_9allocatorIbEEEENS2_IS4_EEEC1IDnLb1EEEOT_
FNDA:8,_ZNSt3__117__compressed_pairIPNS_6vectorIbNS_9allocatorIbEEEENS2_IS4_EEEC2IDnLb1EEEOT_
FNDA:0,_ZNSt3__117__compressed_pairImNS_9allocatorImEEEC1IiS2_EEOT_OT0_
FNDA:0,_ZNSt3__117__compressed_pairImNS_9allocatorImEEEC2IiS2_EEOT_OT0_
FNDA:0,_ZNSt3__117__compressed_pairIPNS_6vectorIbNS_9allocatorIbEEEENS2_IS4_EEEC1IDnRKS6_EEOT_OT0_
FNDA:0,_ZNSt3__117__compressed_pairIPNS_6vectorIbNS_9allocatorIbEEEENS2_IS4_EEEC2IDnRKS6_EEOT_OT0_
FNDA:0,_ZNSt3__117__compressed_pairImNS_9allocatorImEEE5firstEv
FNDA:0,_ZNSt3__117__compressed_pairIPNS_6vectorIbNS_9allocatorIbEEEENS2_IS4_EEE5firstEv
FNDA:0,_ZNKSt3__117__compressed_pairIPNS_6vectorIbNS_9allocatorIbEEEENS2_IS4_EEE5firstEv
FNDA:0,_ZNKSt3__117__compressed_pairINS_12basic_stringIcNS_11char_traitsIcEENS_9allocatorIcEEE5__repES5_E5firstEv
FNDA:0,_ZNSt3__117__compressed_pairIPNS_6vectorIbNS_9allocatorIbEEEENS2_IS4_EEE6secondEv
FNDA:0,_ZNSt3__117__compressed_pairImNS_9allocatorImEEE6secondEv
FNDA:0,_ZNKSt3__117__compressed_pairImNS_9allocatorImEEE6secondEv
FNDA:0,_ZNKSt3__117__compressed_pairIPNS_6vectorIbNS_9allocatorIbEEEENS2_IS4_EEE6secondEv
FNF:71
FNH:10
DA:979,0
DA:1097,0
DA:1502,0
DA:1510,0
DA:1516,0
DA:1517,0
DA:1550,0
DA:1554,0
DA:1559,0
DA:1560,0
DA:1561,0
DA:1599,0
DA:1600,0
DA:1601,0
DA:1670,0
DA:1682,0
DA:1692,0
DA:1704,0
DA:1736,16
DA:1744,0
DA:1745,0
DA:1747,0
DA:1750,0
DA:1752,0
DA:1759,0
DA:1760,0
DA:1814,0
DA:2043,8
DA:2051,8
DA:2064,0
DA:2066,0
DA:2080,16
DA:2088,0
DA:2102,0
DA:2104,0
DA:2134,16
DA:2141,16
DA:2151,0
DA:2180,0
DA:2185,0
DA:2190,0
DA:2195,0
LF:42
LH:6
end_of_record
SF:/Applications/Xcode.app/Contents/Developer/Toolchains/XcodeDefault.xctoolchain/usr/include/c++/v1/new
FN:222,_ZNSt3__110__allocateEm
FN:230,_ZNSt3__119__libcpp_deallocateEPv
FNDA:0,_ZNSt3__110__allocateEm
FNDA:0,_ZNSt3__119__libcpp_deallocateEPv
FNF:2
FNH:0
DA:226,0
DA:234,0
DA:236,0
LF:3
LH:0
end_of_record
SF:/Applications/Xcode.app/Contents/Developer/Toolchains/XcodeDefault.xctoolchain/usr/include/c++/v1/stdexcept
FN:136,_ZNSt12length_errorC2EPKc
FN:136,_ZNSt12length_errorC1EPKc
FN:222,_ZNSt3__120__throw_length_errorEPKc
FNDA:0,_ZNSt12length_errorC1EPKc
FNDA:0,_ZNSt12length_errorC2EPKc
FNDA:0,_ZNSt3__120__throw_length_errorEPKc
FNF:3
FNH:0
DA:136,0
DA:225,0
DA:230,0
LF:3
LH:0
end_of_record
SF:/Applications/Xcode.app/Contents/Developer/Toolchains/XcodeDefault.xctoolchain/usr/include/c++/v1/string
FN:1127,_ZNKSt3__112basic_stringIcNS_11char_traitsIcEENS_9allocatorIcEEE5c_strEv
FN:1129,_ZNKSt3__112basic_stringIcNS_11char_traitsIcEENS_9allocatorIcEEE4dataEv
FN:1220,_ZNKSt3__112basic_stringIcNS_11char_traitsIcEENS_9allocatorIcEEE9__is_longEv
FN:1302,_ZNKSt3__112basic_stringIcNS_11char_traitsIcEENS_9allocatorIcEEE18__get_long_pointerEv
FN:1308,_ZNKSt3__112basic_stringIcNS_11char_traitsIcEENS_9allocatorIcEEE19__get_short_pointerEv
FN:1314,_ZNKSt3__112basic_stringIcNS_11char_traitsIcEENS_9allocatorIcEEE13__get_pointerEv
FN:1568,_ZNSt3__112basic_stringIcNS_11char_traitsIcEENS_9allocatorIcEEEC1EPKc
FN:1568,_ZNSt3__112basic_stringIcNS_11char_traitsIcEENS_9allocatorIcEEEC2EPKc
FNDA:0,_ZNKSt3__112basic_stringIcNS_11char_traitsIcEENS_9allocatorIcEEE5c_strEv
FNDA:0,_ZNKSt3__112basic_stringIcNS_11char_traitsIcEENS_9allocatorIcEEE4dataEv
FNDA:0,_ZNKSt3__112basic_stringIcNS_11char_traitsIcEENS_9allocatorIcEEE9__is_longEv
FNDA:0,_ZNKSt3__112basic_stringIcNS_11char_traitsIcEENS_9allocatorIcEEE18__get_long_pointerEv
FNDA:0,_ZNKSt3__112basic_stringIcNS_11char_traitsIcEENS_9allocatorIcEEE19__get_short_pointerEv
FNDA:0,_ZNKSt3__112basic_stringIcNS_11char_traitsIcEENS_9allocatorIcEEE13__get_pointerEv
FNDA:8,_ZNSt3__112basic_stringIcNS_11char_traitsIcEENS_9allocatorIcEEEC1EPKc
FNDA:8,_ZNSt3__112basic_stringIcNS_11char_traitsIcEENS_9allocatorIcEEEC2EPKc
FNF:8
FNH:2
DA:775,8
DA:1127,0
DA:1129,0
DA:1221,0
DA:1303,0
DA:1309,0
DA:1315,0
DA:1569,16
DA:1571,8
DA:1575,16
LF:10
LH:4
end_of_record
SF:/Applications/Xcode.app/Contents/Developer/Toolchains/XcodeDefault.xctoolchain/usr/include/c++/v1/type_traits
FN:437,_ZNSt3__19addressofIKcEEPT_RS2_
FN:2219,_ZNSt3__17forwardIRKNS_9allocatorINS_6vectorIbNS1_IbEEEEEEEEOT_RNS_16remove_referenceIS8_E4typeE
FN:2219,_ZNSt3__17forwardINS_9allocatorImEEEEOT_RNS_16remove_referenceIS3_E4typeE
FN:2219,_ZNSt3__17forwardIiEEOT_RNS_16remove_referenceIS1_E4typeE
FN:2219,_ZNSt3__17forwardIDnEEOT_RNS_16remove_referenceIS1_E4typeE
FN:2219,_ZNSt3__17forwardIRKNS_6vectorIbNS_9allocatorIbEEEEEEOT_RNS_16remove_referenceIS7_E4typeE
FN:2219,_ZNSt3__17forwardIRNS_6vectorIbNS_9allocatorIbEEEEEEOT_RNS_16remove_referenceIS6_E4typeE
FNDA:0,_ZNSt3__19addressofIKcEEPT_RS2_
FNDA:0,_ZNSt3__17forwardIiEEOT_RNS_16remove_referenceIS1_E4typeE
FNDA:16,_ZNSt3__17forwardIDnEEOT_RNS_16remove_referenceIS1_E4typeE
FNDA:0,_ZNSt3__17forwardIRKNS_6vectorIbNS_9allocatorIbEEEEEEOT_RNS_16remove_referenceIS7_E4typeE
FNDA:0,_ZNSt3__17forwardINS_9allocatorImEEEEOT_RNS_16remove_referenceIS3_E4typeE
FNDA:0,_ZNSt3__17forwardIRKNS_9allocatorINS_6vectorIbNS1_IbEEEEEEEEOT_RNS_16remove_referenceIS8_E4typeE
FNDA:0,_ZNSt3__17forwardIRNS_6vectorIbNS_9allocatorIbEEEEEEOT_RNS_16remove_referenceIS6_E4typeE
FNF:7
FNH:1
DA:439,0
DA:2221,16
LF:2
LH:1
end_of_record
SF:/Applications/Xcode.app/Contents/Developer/Toolchains/XcodeDefault.xctoolchain/usr/include/c++/v1/vector
FN:294,_ZNSt3__120__vector_base_commonILb1EEC2Ev
FN:337,_ZNSt3__113__vector_baseINS_6vectorIbNS_9allocatorIbEEEENS2_IS4_EEE7__allocEv
FN:340,_ZNKSt3__113__vector_baseINS_6vectorIbNS_9allocatorIbEEEENS2_IS4_EEE7__allocEv
FN:343,_ZNSt3__113__vector_baseINS_6vectorIbNS_9allocatorIbEEEENS2_IS4_EEE9__end_capEv
FN:346,_ZNKSt3__113__vector_baseINS_6vectorIbNS_9allocatorIbEEEENS2_IS4_EEE9__end_capEv
FN:356,_ZNSt3__113__vector_baseINS_6vectorIbNS_9allocatorIbEEEENS2_IS4_EEE5clearEv
FN:358,_ZNKSt3__113__vector_baseINS_6vectorIbNS_9allocatorIbEEEENS2_IS4_EEE8capacityEv
FN:409,_ZNSt3__113__vector_baseINS_6vectorIbNS_9allocatorIbEEEENS2_IS4_EEE17__destruct_at_endEPS4_
FN:419,_ZNSt3__113__vector_baseINS_6vectorIbNS_9allocatorIbEEEENS2_IS4_EEEC2Ev
FN:429,_ZNSt3__113__vector_baseINS_6vectorIbNS_9allocatorIbEEEENS2_IS4_EEEC2ERKS5_
FN:437,_ZNSt3__113__vector_baseINS_6vectorIbNS_9allocatorIbEEEENS2_IS4_EEED2Ev
FN:447,_ZNSt3__16vectorINS0_IbNS_9allocatorIbEEEENS1_IS3_EEED2Ev
FN:447,_ZNSt3__16vectorINS0_IbNS_9allocatorIbEEEENS1_IS3_EEED1Ev
FN:632,_ZNKSt3__16vectorINS0_IbNS_9allocatorIbEEEENS1_IS3_EEE4sizeEv
FN:635,_ZNKSt3__16vectorINS0_IbNS_9allocatorIbEEEENS1_IS3_EEE8capacityEv
FN:674,_ZNKSt3__16vectorINS0_IbNS_9allocatorIbEEEENS1_IS3_EEE4dataEv
FN:827,_ZNKSt3__16vectorINS0_IbNS_9allocatorIbEEEENS1_IS3_EEE31__annotate_contiguous_containerEPKvS7_S7_S7_
FN:831,_ZNKSt3__16vectorINS0_IbNS_9allocatorIbEEEENS1_IS3_EEE14__annotate_newEm
FN:875,_ZNSt3__16vectorINS0_IbNS_9allocatorIbEEEENS1_IS3_EEE24__RAII_IncreaseAnnotatorC1ERKS5_m
FN:875,_ZNSt3__16vectorINS0_IbNS_9allocatorIbEEEENS1_IS3_EEE24__RAII_IncreaseAnnotatorC2ERKS5_m
FN:876,_ZNSt3__16vectorINS0_IbNS_9allocatorIbEEEENS1_IS3_EEE24__RAII_IncreaseAnnotator6__doneEv
FN:922,_ZNSt3__16vectorINS0_IbNS_9allocatorIbEEEENS1_IS3_EEE8allocateEm
FN:945,_ZNKSt3__16vectorINS0_IbNS_9allocatorIbEEEENS1_IS3_EEE8max_sizeEv
FN:1015,_ZNSt3__16vectorINS0_IbNS_9allocatorIbEEEENS1_IS3_EEE18__construct_at_endIPKS3_EENS_9enable_ifIXsr21__is_forward_iteratorIT_EE5valueEvE4typeESA_SA_m
FN:1015,_ZNSt3__16vectorINS0_IbNS_9allocatorIbEEEENS1_IS3_EEE18__construct_at_endIPS3_EENS_9enable_ifIXsr21__is_forward_iteratorIT_EE5valueEvE4typeES9_S9_m
FN:1192,_ZNSt3__16vectorINS0_IbNS_9allocatorIbEEEENS1_IS3_EEEC1ERKS5_
FN:1192,_ZNSt3__16vectorINS0_IbNS_9allocatorIbEEEENS1_IS3_EEEC2ERKS5_
FN:1270,_ZNSt3__16vectorINS0_IbNS_9allocatorIbEEEENS1_IS3_EEEC2ESt16initializer_listIS3_E
FN:1270,_ZNSt3__16vectorINS0_IbNS_9allocatorIbEEEENS1_IS3_EEEC1ESt16initializer_listIS3_E
FN:2169,_ZNSt3__16vectorIbNS_9allocatorIbEEE5__capEv
FN:2175,_ZNSt3__16vectorIbNS_9allocatorIbEEE7__allocEv
FN:2178,_ZNKSt3__16vectorIbNS_9allocatorIbEEE7__allocEv
FN:2184,_ZNSt3__16vectorIbNS_9allocatorIbEEE26__internal_cap_to_externalEm
FN:2187,_ZNSt3__16vectorIbNS_9allocatorIbEEE26__external_cap_to_internalEm
FN:2280,_ZNKSt3__16vectorIbNS_9allocatorIbEEE4sizeEv
FN:2292,_ZNKSt3__16vectorIbNS_9allocatorIbEEE5beginEv
FN:2298,_ZNKSt3__16vectorIbNS_9allocatorIbEEE3endEv
FN:2430,_ZNSt3__16vectorIbNS_9allocatorIbEEE11__make_iterEm
FN:2433,_ZNKSt3__16vectorIbNS_9allocatorIbEEE11__make_iterEm
FN:2490,_ZNSt3__16vectorIbNS_9allocatorIbEEE26__invalidate_all_iteratorsEv
FN:2503,_ZNSt3__16vectorIbNS_9allocatorIbEEE8allocateEm
FN:2528,_ZNKSt3__16vectorIbNS_9allocatorIbEEE8max_sizeEv
FN:2573,_ZNSt3__16vectorIbNS_9allocatorIbEEE18__construct_at_endINS_14__bit_iteratorIS3_Lb1ELm0EEEEENS_9enable_ifIXsr21__is_forward_iteratorIT_EE5valueEvE4typeES8_S8_
FN:2573,_ZNSt3__16vectorIbNS_9allocatorIbEEE18__construct_at_endIPKbEENS_9enable_ifIXsr21__is_forward_iteratorIT_EE5valueEvE4typeES8_S8_
FN:2747,_ZNSt3__16vectorIbNS_9allocatorIbEEEC2ESt16initializer_listIbE
FN:2747,_ZNSt3__16vectorIbNS_9allocatorIbEEEC1ESt16initializer_listIbE
FN:2777,_ZNSt3__16vectorIbNS_9allocatorIbEEED1Ev
FN:2777,_ZNSt3__16vectorIbNS_9allocatorIbEEED2Ev
FN:2785,_ZNSt3__16vectorIbNS_9allocatorIbEEEC1ERKS3_
FN:2785,_ZNSt3__16vectorIbNS_9allocatorIbEEEC2ERKS3_
FNDA:8,_ZNSt3__120__vector_base_commonILb1EEC2Ev
FNDA:0,_ZNSt3__113__vector_baseINS_6vectorIbNS_9allocatorIbEEEENS2_IS4_EEE7__allocEv
FNDA:0,_ZNKSt3__113__vector_baseINS_6vectorIbNS_9allocatorIbEEEENS2_IS4_EEE7__allocEv
FNDA:0,_ZNSt3__113__vector_baseINS_6vectorIbNS_9allocatorIbEEEENS2_IS4_EEE9__end_capEv
FNDA:0,_ZNKSt3__113__vector_baseINS_6vectorIbNS_9allocatorIbEEEENS2_IS4_EEE9__end_capEv
FNDA:0,_ZNSt3__113__vector_baseINS_6vectorIbNS_9allocatorIbEEEENS2_IS4_EEE5clearEv
FNDA:0,_ZNKSt3__113__vector_baseINS_6vectorIbNS_9allocatorIbEEEENS2_IS4_EEE8capacityEv
FNDA:0,_ZNSt3__113__vector_baseINS_6vectorIbNS_9allocatorIbEEEENS2_IS4_EEE17__destruct_at_endEPS4_
FNDA:8,_ZNSt3__113__vector_baseINS_6vectorIbNS_9allocatorIbEEEENS2_IS4_EEEC2Ev
FNDA:0,_ZNSt3__113__vector_baseINS_6vectorIbNS_9allocatorIbEEEENS2_IS4_EEEC2ERKS5_
FNDA:0,_ZNSt3__113__vector_baseINS_6vectorIbNS_9allocatorIbEEEENS2_IS4_EEED2Ev
FNDA:0,_ZNSt3__16vectorINS0_IbNS_9allocatorIbEEEENS1_IS3_EEED1Ev
FNDA:0,_ZNSt3__16vectorINS0_IbNS_9allocatorIbEEEENS1_IS3_EEED2Ev
FNDA:0,_ZNKSt3__16vectorINS0_IbNS_9allocatorIbEEEENS1_IS3_EEE4sizeEv
FNDA:0,_ZNKSt3__16vectorINS0_IbNS_9allocatorIbEEEENS1_IS3_EEE8capacityEv
FNDA:0,_ZNKSt3__16vectorINS0_IbNS_9allocatorIbEEEENS1_IS3_EEE4dataEv
FNDA:0,_ZNKSt3__16vectorINS0_IbNS_9allocatorIbEEEENS1_IS3_EEE31__annotate_contiguous_containerEPKvS7_S7_S7_
FNDA:0,_ZNKSt3__16vectorINS0_IbNS_9allocatorIbEEEENS1_IS3_EEE14__annotate_newEm
FNDA:0,_ZNSt3__16vectorINS0_IbNS_9allocatorIbEEEENS1_IS3_EEE24__RAII_IncreaseAnnotatorC1ERKS5_m
FNDA:0,_ZNSt3__16vectorINS0_IbNS_9allocatorIbEEEENS1_IS3_EEE24__RAII_IncreaseAnnotatorC2ERKS5_m
FNDA:0,_ZNSt3__16vectorINS0_IbNS_9allocatorIbEEEENS1_IS3_EEE24__RAII_IncreaseAnnotator6__doneEv
FNDA:0,_ZNSt3__16vectorINS0_IbNS_9allocatorIbEEEENS1_IS3_EEE8allocateEm
FNDA:0,_ZNKSt3__16vectorINS0_IbNS_9allocatorIbEEEENS1_IS3_EEE8max_sizeEv
FNDA:0,_ZNSt3__16vectorINS0_IbNS_9allocatorIbEEEENS1_IS3_EEE18__construct_at_endIPKS3_EENS_9enable_ifIXsr21__is_forward_iteratorIT_EE5valueEvE4typeESA_SA_m
FNDA:0,_ZNSt3__16vectorINS0_IbNS_9allocatorIbEEEENS1_IS3_EEE18__construct_at_endIPS3_EENS_9enable_ifIXsr21__is_forward_iteratorIT_EE5valueEvE4typeES9_S9_m
FNDA:0,_ZNSt3__16vectorINS0_IbNS_9allocatorIbEEEENS1_IS3_EEEC1ERKS5_
FNDA:0,_ZNSt3__16vectorINS0_IbNS_9allocatorIbEEEENS1_IS3_EEEC2ERKS5_
FNDA:8,_ZNSt3__16vectorINS0_IbNS_9allocatorIbEEEENS1_IS3_EEEC1ESt16initializer_listIS3_E
FNDA:8,_ZNSt3__16vectorINS0_IbNS_9allocatorIbEEEENS1_IS3_EEEC2ESt16initializer_listIS3_E
FNDA:0,_ZNSt3__16vectorIbNS_9allocatorIbEEE5__capEv
FNDA:0,_ZNSt3__16vectorIbNS_9allocatorIbEEE7__allocEv
FNDA:0,_ZNKSt3__16vectorIbNS_9allocatorIbEEE7__allocEv
FNDA:0,_ZNSt3__16vectorIbNS_9allocatorIbEEE26__internal_cap_to_externalEm
FNDA:0,_ZNSt3__16vectorIbNS_9allocatorIbEEE26__external_cap_to_internalEm
FNDA:0,_ZNKSt3__16vectorIbNS_9allocatorIbEEE4sizeEv
FNDA:0,_ZNKSt3__16vectorIbNS_9allocatorIbEEE5beginEv
FNDA:0,_ZNKSt3__16vectorIbNS_9allocatorIbEEE3endEv
FNDA:0,_ZNSt3__16vectorIbNS_9allocatorIbEEE11__make_iterEm
FNDA:0,_ZNKSt3__16vectorIbNS_9allocatorIbEEE11__make_iterEm
FNDA:0,_ZNSt3__16vectorIbNS_9allocatorIbEEE26__invalidate_all_iteratorsEv
FNDA:0,_ZNSt3__16vectorIbNS_9allocatorIbEEE8allocateEm
FNDA:0,_ZNKSt3__16vectorIbNS_9allocatorIbEEE8max_sizeEv
FNDA:0,_ZNSt3__16vectorIbNS_9allocatorIbEEE18__construct_at_endIPKbEENS_9enable_ifIXsr21__is_forward_iteratorIT_EE5valueEvE4typeES8_S8_
FNDA:0,_ZNSt3__16vectorIbNS_9allocatorIbEEE18__construct_at_endINS_14__bit_iteratorIS3_Lb1ELm0EEEEENS_9enable_ifIXsr21__is_forward_iteratorIT_EE5valueEvE4typeES8_S8_
FNDA:0,_ZNSt3__16vectorIbNS_9allocatorIbEEEC1ESt16initializer_listIbE
FNDA:0,_ZNSt3__16vectorIbNS_9allocatorIbEEEC2ESt16initializer_listIbE
FNDA:0,_ZNSt3__16vectorIbNS_9allocatorIbEEED1Ev
FNDA:0,_ZNSt3__16vectorIbNS_9allocatorIbEEED2Ev
FNDA:0,_ZNSt3__16vectorIbNS_9allocatorIbEEEC1ERKS3_
FNDA:0,_ZNSt3__16vectorIbNS_9allocatorIbEEEC2ERKS3_
FNF:50
FNH:4
DA:294,8
DA:338,0
DA:341,0
DA:344,0
DA:347,0
DA:350,8
DA:352,0
DA:356,0
DA:359,0
DA:411,0
DA:412,0
DA:413,0
DA:414,0
DA:415,0
DA:421,8
DA:422,8
DA:423,8
DA:424,8
DA:425,8
DA:430,0
DA:431,0
DA:432,0
DA:433,0
DA:434,0
DA:439,0
DA:441,0
DA:442,0
DA:443,0
DA:444,0
DA:447,0
DA:541,8
DA:633,0
DA:636,0
DA:675,0
DA:828,0
DA:832,0
DA:833,0
DA:834,0
DA:875,0
DA:876,0
DA:924,0
DA:925,0
DA:926,0
DA:927,0
DA:928,0
DA:929,0
DA:947,0
DA:948,0
DA:1017,0
DA:1018,0
DA:1019,0
DA:1020,0
DA:1021,0
DA:1193,0
DA:1194,0
DA:1198,0
DA:1199,0
DA:1201,0
DA:1202,0
DA:1203,0
DA:1204,0
DA:1271,16
DA:1275,8
DA:1277,8
DA:1278,8
DA:1279,8
DA:1280,16
DA:2170,0
DA:2176,0
DA:2179,0
DA:2185,0
DA:2188,0
DA:2222,0
DA:2227,0
DA:2281,0
DA:2293,0
DA:2299,0
DA:2431,0
DA:2434,0
DA:2492,0
DA:2505,0
DA:2506,0
DA:2507,0
DA:2508,0
DA:2509,0
DA:2510,0
DA:2511,0
DA:2530,0
DA:2531,0
DA:2532,0
DA:2533,0
DA:2534,0
DA:2535,0
DA:2575,0
DA:2576,0
DA:2577,0
DA:2578,0
DA:2748,0
DA:2749,0
DA:2750,0
DA:2751,0
DA:2752,0
DA:2753,0
DA:2755,0
DA:2756,0
DA:2757,0
DA:2758,0
DA:2778,0
DA:2779,0
DA:2780,0
DA:2781,0
DA:2782,0
DA:2786,0
DA:2787,0
DA:2788,0
DA:2789,0
DA:2790,0
DA:2792,0
DA:2793,0
DA:2794,0
DA:2795,0
LF:121
LH:14
end_of_record
SF:/Users/vpomsztein/Documents/PrivateRepositories/Algoritmos1/TPI/juegoDeLaVida/lib/googletest-master/googletest/include/gtest/gtest-message.h
FN:85,_ZN7testing7MessageD1Ev
FN:85,_ZN7testing7MessageD2Ev
FNDA:0,_ZN7testing7MessageD1Ev
FNDA:0,_ZN7testing7MessageD2Ev
FNF:2
FNH:0
DA:85,0
LF:1
LH:0
end_of_record
SF:/Users/vpomsztein/Documents/PrivateRepositories/Algoritmos1/TPI/juegoDeLaVida/lib/googletest-master/googletest/include/gtest/gtest.h
FN:256,_ZN7testing15AssertionResultD1Ev
FN:256,_ZN7testing15AssertionResultD2Ev
FN:272,_ZN7testing15AssertionResultC2IbEERKT_PNS_8internal8EnableIfIXntsr8internal21ImplicitlyConvertibleIS2_S0_EE5valueEE4typeE
FN:272,_ZN7testing15AssertionResultC1IbEERKT_PNS_8internal8EnableIfIXntsr8internal21ImplicitlyConvertibleIS2_S0_EE5valueEE4typeE
FN:288,_ZNK7testing15AssertionResultcvbEv
FN:389,_ZN7testing4Test13SetUpTestCaseEv
FN:397,_ZN7testing4Test16TearDownTestCaseEv
FN:474,_ZN7testing4Test5SetupEv
FNDA:0,_ZN7testing15AssertionResultD1Ev
FNDA:0,_ZN7testing15AssertionResultD2Ev
FNDA:0,_ZN7testing15AssertionResultC1IbEERKT_PNS_8internal8EnableIfIXntsr8internal21ImplicitlyConvertibleIS2_S0_EE5valueEE4typeE
FNDA:0,_ZN7testing15AssertionResultC2IbEERKT_PNS_8internal8EnableIfIXntsr8internal21ImplicitlyConvertibleIS2_S0_EE5valueEE4typeE
FNDA:0,_ZNK7testing15AssertionResultcvbEv
FNDA:0,_ZN7testing4Test13SetUpTestCaseEv
FNDA:0,_ZN7testing4Test16TearDownTestCaseEv
FNDA:0,_ZN7testing4Test5SetupEv
FNF:8
FNH:0
DA:256,0
DA:272,0
DA:277,0
DA:288,0
DA:389,0
DA:397,0
DA:474,0
LF:7
LH:0
end_of_record
SF:/Users/vpomsztein/Documents/PrivateRepositories/Algoritmos1/TPI/juegoDeLaVida/lib/googletest-master/googletest/include/gtest/internal/gtest-internal.h
FN:466,_ZN7testing8internal15TestFactoryBaseD1Ev
FN:466,_ZN7testing8internal15TestFactoryBaseD2Ev
FN:466,_ZN7testing8internal15TestFactoryBaseD0Ev
FN:473,_ZN7testing8internal15TestFactoryBaseC2Ev
FN:482,_ZN7testing8internal15TestFactoryImplI43vistaTrasladadaTEST_DiagonalVsTodoTrue_TestED0Ev
FN:482,_ZN7testing8internal15TestFactoryImplI43vistaTrasladadaTEST_DiagonalVsTodoTrue_TestED2Ev
FN:482,_ZN7testing8internal15TestFactoryImplI51vistaTrasladadaTEST_muevoTerceraFilaParaArriba_TestEC2Ev
FN:482,_ZN7testing8internal15TestFactoryImplI51vistaTrasladadaTEST_muevoTerceraFilaParaArriba_TestED1Ev
FN:482,_ZN7testing8internal15TestFactoryImplI43vistaTrasladadaTEST_DiagonalVsTodoTrue_TestEC2Ev
FN:482,_ZN7testing8internal15TestFactoryImplI51vistaTrasladadaTEST_muevoTerceraFilaParaArriba_TestED0Ev
FN:482,_ZN7testing8internal15TestFactoryImplI43vistaTrasladadaTEST_DiagonalVsTodoTrue_TestED1Ev
FN:482,_ZN7testing8internal15TestFactoryImplI51vistaTrasladadaTEST_muevoTerceraFilaParaArriba_TestED2Ev
FN:482,_ZN7testing8internal15TestFactoryImplI51vistaTrasladadaTEST_muevoTerceraFilaParaArriba_TestEC1Ev
FN:482,_ZN7testing8internal15TestFactoryImplI43vistaTrasladadaTEST_DiagonalVsTodoTrue_TestEC1Ev
FN:484,_ZN7testing8internal15TestFactoryImplI43vistaTrasladadaTEST_DiagonalVsTodoTrue_TestE10CreateTestEv
FN:484,_ZN7testing8internal15TestFactoryImplI51vistaTrasladadaTEST_muevoTerceraFilaParaArriba_TestE10CreateTestEv
FN:504,_ZN7testing8internal12CodeLocationD2Ev
FN:504,_ZN7testing8internal12CodeLocationD1Ev
FN:505,_ZN7testing8internal12CodeLocationC1ERKNSt3__112basic_stringIcNS2_11char_traitsIcEENS2_9allocatorIcEEEEi
FN:505,_ZN7testing8internal12CodeLocationC2ERKNSt3__112basic_stringIcNS2_11char_traitsIcEENS2_9allocatorIcEEEEi
FNDA:0,_ZN7testing8internal15TestFactoryBaseD1Ev
FNDA:0,_ZN7testing8internal15TestFactoryBaseD0Ev
FNDA:0,_ZN7testing8internal15TestFactoryBaseD2Ev
FNDA:0,_ZN7testing8internal15TestFactoryBaseC2Ev
FNDA:4,_ZN7testing8internal15TestFactoryImplI51vistaTrasladadaTEST_muevoTerceraFilaParaArriba_TestEC1Ev
FNDA:4,_ZN7testing8internal15TestFactoryImplI43vistaTrasladadaTEST_DiagonalVsTodoTrue_TestEC1Ev
FNDA:4,_ZN7testing8internal15TestFactoryImplI51vistaTrasladadaTEST_muevoTerceraFilaParaArriba_TestEC2Ev
FNDA:4,_ZN7testing8internal15TestFactoryImplI51vistaTrasladadaTEST_muevoTerceraFilaParaArriba_TestED1Ev
FNDA:4,_ZN7testing8internal15TestFactoryImplI51vistaTrasladadaTEST_muevoTerceraFilaParaArriba_TestED0Ev
FNDA:4,_ZN7testing8internal15TestFactoryImplI51vistaTrasladadaTEST_muevoTerceraFilaParaArriba_TestED2Ev
FNDA:4,_ZN7testing8internal15TestFactoryImplI43vistaTrasladadaTEST_DiagonalVsTodoTrue_TestEC2Ev
FNDA:4,_ZN7testing8internal15TestFactoryImplI43vistaTrasladadaTEST_DiagonalVsTodoTrue_TestED1Ev
FNDA:4,_ZN7testing8internal15TestFactoryImplI43vistaTrasladadaTEST_DiagonalVsTodoTrue_TestED0Ev
FNDA:4,_ZN7testing8internal15TestFactoryImplI43vistaTrasladadaTEST_DiagonalVsTodoTrue_TestED2Ev
FNDA:2,_ZN7testing8internal15TestFactoryImplI51vistaTrasladadaTEST_muevoTerceraFilaParaArriba_TestE10CreateTestEv
FNDA:2,_ZN7testing8internal15TestFactoryImplI43vistaTrasladadaTEST_DiagonalVsTodoTrue_TestE10CreateTestEv
FNDA:0,_ZN7testing8internal12CodeLocationD1Ev
FNDA:0,_ZN7testing8internal12CodeLocationD2Ev
FNDA:0,_ZN7testing8internal12CodeLocationC1ERKNSt3__112basic_stringIcNS2_11char_traitsIcEENS2_9allocatorIcEEEEi
FNDA:0,_ZN7testing8internal12CodeLocationC2ERKNSt3__112basic_stringIcNS2_11char_traitsIcEENS2_9allocatorIcEEEEi
FNF:20
FNH:12
DA:466,0
DA:473,0
DA:482,40
DA:484,8
DA:504,0
DA:506,0
LF:6
LH:2
end_of_record
SF:/Users/vpomsztein/Documents/PrivateRepositories/Algoritmos1/TPI/juegoDeLaVida/lib/googletest-master/googletest/include/gtest/internal/gtest-port.h
FN:1156,_ZN7testing8internal10scoped_ptrINSt3__112basic_stringIcNS2_11char_traitsIcEENS2_9allocatorIcEEEEEC2EPS8_
FN:1156,_ZN7testing8internal10scoped_ptrINSt3__112basic_stringIcNS2_11char_traitsIcEENS2_9allocatorIcEEEEEC1EPS8_
FN:1157,_ZN7testing8internal10scoped_ptrINSt3__112basic_stringIcNS2_11char_traitsIcEENS2_9allocatorIcEEEEED1Ev
FN:1157,_ZN7testing8internal10scoped_ptrINSt3__118basic_stringstreamIcNS2_11char_traitsIcEENS2_9allocatorIcEEEEED2Ev
FN:1157,_ZN7testing8internal10scoped_ptrINSt3__118basic_stringstreamIcNS2_11char_traitsIcEENS2_9allocatorIcEEEEED1Ev
FN:1157,_ZN7testing8internal10scoped_ptrINSt3__112basic_stringIcNS2_11char_traitsIcEENS2_9allocatorIcEEEEED2Ev
FN:1169,_ZN7testing8internal10scoped_ptrINSt3__112basic_stringIcNS2_11char_traitsIcEENS2_9allocatorIcEEEEE5resetEPS8_
FN:1169,_ZN7testing8internal10scoped_ptrINSt3__118basic_stringstreamIcNS2_11char_traitsIcEENS2_9allocatorIcEEEEE5resetEPS8_
FNDA:0,_ZN7testing8internal10scoped_ptrINSt3__112basic_stringIcNS2_11char_traitsIcEENS2_9allocatorIcEEEEEC1EPS8_
FNDA:0,_ZN7testing8internal10scoped_ptrINSt3__112basic_stringIcNS2_11char_traitsIcEENS2_9allocatorIcEEEEEC2EPS8_
FNDA:0,_ZN7testing8internal10scoped_ptrINSt3__118basic_stringstreamIcNS2_11char_traitsIcEENS2_9allocatorIcEEEEED1Ev
FNDA:0,_ZN7testing8internal10scoped_ptrINSt3__118basic_stringstreamIcNS2_11char_traitsIcEENS2_9allocatorIcEEEEED2Ev
FNDA:0,_ZN7testing8internal10scoped_ptrINSt3__112basic_stringIcNS2_11char_traitsIcEENS2_9allocatorIcEEEEED1Ev
FNDA:0,_ZN7testing8internal10scoped_ptrINSt3__112basic_stringIcNS2_11char_traitsIcEENS2_9allocatorIcEEEEED2Ev
FNDA:0,_ZN7testing8internal10scoped_ptrINSt3__118basic_stringstreamIcNS2_11char_traitsIcEENS2_9allocatorIcEEEEE5resetEPS8_
FNDA:0,_ZN7testing8internal10scoped_ptrINSt3__112basic_stringIcNS2_11char_traitsIcEENS2_9allocatorIcEEEEE5resetEPS8_
FNF:8
FNH:0
DA:1156,0
DA:1157,0
DA:1170,0
DA:1171,0
DA:1172,0
DA:1173,0
DA:1174,0
DA:1175,0
DA:1176,0
LF:9
LH:0
end_of_record
SF:/Users/vpomsztein/Documents/PrivateRepositories/Algoritmos1/TPI/juegoDeLaVida/tests/vistaTrasladadaTEST.cpp
FN:7,_ZN51vistaTrasladadaTEST_muevoTerceraFilaParaArriba_TestD2Ev
FN:7,_ZN51vistaTrasladadaTEST_muevoTerceraFilaParaArriba_TestD0Ev
FN:7,_ZN51vistaTrasladadaTEST_muevoTerceraFilaParaArriba_TestD1Ev
FN:7,_ZN51vistaTrasladadaTEST_muevoTerceraFilaParaArriba_Test8TestBodyEv
FN:7,_ZN51vistaTrasladadaTEST_muevoTerceraFilaParaArriba_TestC1Ev
FN:7,__cxx_global_var_init
FN:7,_ZN51vistaTrasladadaTEST_muevoTerceraFilaParaArriba_TestC2Ev
FN:21,_ZN43vistaTrasladadaTEST_DiagonalVsTodoTrue_TestD1Ev
FN:21,_ZN43vistaTrasladadaTEST_DiagonalVsTodoTrue_Test8TestBodyEv
FN:21,_ZN43vistaTrasladadaTEST_DiagonalVsTodoTrue_TestD2Ev
FN:21,__cxx_global_var_init.11
FN:21,_ZN43vistaTrasladadaTEST_DiagonalVsTodoTrue_TestC1Ev
FN:21,_ZN43vistaTrasladadaTEST_DiagonalVsTodoTrue_TestC2Ev
FN:21,_ZN43vistaTrasladadaTEST_DiagonalVsTodoTrue_TestD0Ev
FNDA:4,__cxx_global_var_init
FNDA:2,_ZN51vistaTrasladadaTEST_muevoTerceraFilaParaArriba_Test8TestBodyEv
FNDA:2,_ZN51vistaTrasladadaTEST_muevoTerceraFilaParaArriba_TestD1Ev
FNDA:2,_ZN51vistaTrasladadaTEST_muevoTerceraFilaParaArriba_TestD0Ev
FNDA:2,_ZN51vistaTrasladadaTEST_muevoTerceraFilaParaArriba_TestC1Ev
FNDA:2,_ZN51vistaTrasladadaTEST_muevoTerceraFilaParaArriba_TestC2Ev
FNDA:2,_ZN51vistaTrasladadaTEST_muevoTerceraFilaParaArriba_TestD2Ev
FNDA:4,__cxx_global_var_init.11
FNDA:2,_ZN43vistaTrasladadaTEST_DiagonalVsTodoTrue_Test8TestBodyEv
FNDA:2,_ZN43vistaTrasladadaTEST_DiagonalVsTodoTrue_TestD1Ev
FNDA:2,_ZN43vistaTrasladadaTEST_DiagonalVsTodoTrue_TestD0Ev
FNDA:2,_ZN43vistaTrasladadaTEST_DiagonalVsTodoTrue_TestC1Ev
FNDA:2,_ZN43vistaTrasladadaTEST_DiagonalVsTodoTrue_TestC2Ev
FNDA:2,_ZN43vistaTrasladadaTEST_DiagonalVsTodoTrue_TestD2Ev
FNF:14
FNH:14
DA:7,38
DA:8,16
DA:9,2
DA:10,2
DA:11,2
DA:12,16
DA:13,2
DA:14,2
DA:15,2
DA:17,8
DA:18,10
DA:19,2
DA:21,38
DA:22,16
DA:23,2
DA:24,2
DA:25,2
DA:26,16
DA:27,2
DA:28,2
DA:29,2
DA:30,8
DA:31,10
DA:32,2
LF:24
LH:24
end_of_record
TN:
SF:/Applications/Xcode.app/Contents/Developer/Toolchains/XcodeDefault.xctoolchain/usr/include/c++/v1/__bit_reference
FN:56,_ZNSt3__115__bit_referenceINS_6vectorIbNS_9allocatorIbEEEELb1EEaSEb
FN:74,_ZNSt3__115__bit_referenceINS_6vectorIbNS_9allocatorIbEEEELb1EEC2EPmm
FN:74,_ZNSt3__115__bit_referenceINS_6vectorIbNS_9allocatorIbEEEELb1EEC1EPmm
FN:139,_ZNKSt3__121__bit_const_referenceINS_6vectorIbNS_9allocatorIbEEEEEcvbEv
FN:147,_ZNSt3__121__bit_const_referenceINS_6vectorIbNS_9allocatorIbEEEEEC2EPKmm
FN:147,_ZNSt3__121__bit_const_referenceINS_6vectorIbNS_9allocatorIbEEEEEC1EPKmm
FN:404,_ZNSt3__114__copy_alignedINS_6vectorIbNS_9allocatorIbEEEELb1EEENS_14__bit_iteratorIT_Lb0EXLi0EEEENS5_IS6_XT0_EXLi0EEEES8_S7_
FN:453,_ZNSt3__116__copy_unalignedINS_6vectorIbNS_9allocatorIbEEEELb1EEENS_14__bit_iteratorIT_Lb0EXLi0EEEENS5_IS6_XT0_EXLi0EEEES8_S7_
FN:532,_ZNSt3__14copyINS_6vectorIbNS_9allocatorIbEEEELb1EEENS_14__bit_iteratorIT_Lb0EXLi0EEEENS5_IS6_XT0_EXLi0EEEES8_S7_
FN:951,_ZNSt3__117__equal_unalignedINS_6vectorIbNS_9allocatorIbEEEELb1ELb1EEEbNS_14__bit_iteratorIT_XT0_EXLi0EEEES7_NS5_IS6_XT1_EXLi0EEEE
FN:1033,_ZNSt3__115__equal_alignedINS_6vectorIbNS_9allocatorIbEEEELb1ELb1EEEbNS_14__bit_iteratorIT_XT0_EXLi0EEEES7_NS5_IS6_XT1_EXLi0EEEE
FN:1077,_ZNSt3__15equalINS_6vectorIbNS_9allocatorIbEEEELb1ELb1EEEbNS_14__bit_iteratorIT_XT0_EXLi0EEEES7_NS5_IS6_XT1_EXLi0EEEE
FN:1112,_ZNSt3__114__bit_iteratorINS_6vectorIbNS_9allocatorIbEEEELb0ELm0EEC2ERKS5_
FN:1112,_ZNSt3__114__bit_iteratorINS_6vectorIbNS_9allocatorIbEEEELb0ELm0EEC1ERKS5_
FN:1115,_ZNKSt3__114__bit_iteratorINS_6vectorIbNS_9allocatorIbEEEELb1ELm0EEdeEv
FN:1115,_ZNKSt3__114__bit_iteratorINS_6vectorIbNS_9allocatorIbEEEELb0ELm0EEdeEv
FN:1118,_ZNSt3__114__bit_iteratorINS_6vectorIbNS_9allocatorIbEEEELb1ELm0EEppEv
FN:1118,_ZNSt3__114__bit_iteratorINS_6vectorIbNS_9allocatorIbEEEELb0ELm0EEppEv
FN:1191,_ZNSt3__1miERKNS_14__bit_iteratorINS_6vectorIbNS_9allocatorIbEEEELb1ELm0EEES7_
FN:1196,_ZNSt3__1eqERKNS_14__bit_iteratorINS_6vectorIbNS_9allocatorIbEEEELb1ELm0EEES7_
FN:1199,_ZNSt3__1neERKNS_14__bit_iteratorINS_6vectorIbNS_9allocatorIbEEEELb1ELm0EEES7_
FN:1216,_ZNSt3__114__bit_iteratorINS_6vectorIbNS_9allocatorIbEEEELb0ELm0EEC2EPmj
FN:1216,_ZNSt3__114__bit_iteratorINS_6vectorIbNS_9allocatorIbEEEELb0ELm0EEC1EPmj
FN:1216,_ZNSt3__114__bit_iteratorINS_6vectorIbNS_9allocatorIbEEEELb1ELm0EEC2EPKmj
FN:1216,_ZNSt3__114__bit_iteratorINS_6vectorIbNS_9allocatorIbEEEELb1ELm0EEC1EPKmj
FNDA:0,_ZNSt3__115__bit_referenceINS_6vectorIbNS_9allocatorIbEEEELb1EEaSEb
FNDA:0,_ZNSt3__115__bit_referenceINS_6vectorIbNS_9allocatorIbEEEELb1EEC1EPmm
FNDA:0,_ZNSt3__115__bit_referenceINS_6vectorIbNS_9allocatorIbEEEELb1EEC2EPmm
FNDA:0,_ZNKSt3__121__bit_const_referenceINS_6vectorIbNS_9allocatorIbEEEEEcvbEv
FNDA:0,_ZNSt3__121__bit_const_referenceINS_6vectorIbNS_9allocatorIbEEEEEC1EPKmm
FNDA:0,_ZNSt3__121__bit_const_referenceINS_6vectorIbNS_9allocatorIbEEEEEC2EPKmm
FNDA:0,_ZNSt3__114__copy_alignedINS_6vectorIbNS_9allocatorIbEEEELb1EEENS_14__bit_iteratorIT_Lb0EXLi0EEEENS5_IS6_XT0_EXLi0EEEES8_S7_
FNDA:0,_ZNSt3__116__copy_unalignedINS_6vectorIbNS_9allocatorIbEEEELb1EEENS_14__bit_iteratorIT_Lb0EXLi0EEEENS5_IS6_XT0_EXLi0EEEES8_S7_
FNDA:0,_ZNSt3__14copyINS_6vectorIbNS_9allocatorIbEEEELb1EEENS_14__bit_iteratorIT_Lb0EXLi0EEEENS5_IS6_XT0_EXLi0EEEES8_S7_
FNDA:0,_ZNSt3__117__equal_unalignedINS_6vectorIbNS_9allocatorIbEEEELb1ELb1EEEbNS_14__bit_iteratorIT_XT0_EXLi0EEEES7_NS5_IS6_XT1_EXLi0EEEE
FNDA:0,_ZNSt3__115__equal_alignedINS_6vectorIbNS_9allocatorIbEEEELb1ELb1EEEbNS_14__bit_iteratorIT_XT0_EXLi0EEEES7_NS5_IS6_XT1_EXLi0EEEE
FNDA:84,_ZNSt3__15equalINS_6vectorIbNS_9allocatorIbEEEELb1ELb1EEEbNS_14__bit_iteratorIT_XT0_EXLi0EEEES7_NS5_IS6_XT1_EXLi0EEEE
FNDA:0,_ZNSt3__114__bit_iteratorINS_6vectorIbNS_9allocatorIbEEEELb0ELm0EEC1ERKS5_
FNDA:0,_ZNSt3__114__bit_iteratorINS_6vectorIbNS_9allocatorIbEEEELb0ELm0EEC2ERKS5_
FNDA:0,_ZNKSt3__114__bit_iteratorINS_6vectorIbNS_9allocatorIbEEEELb0ELm0EEdeEv
FNDA:0,_ZNKSt3__114__bit_iteratorINS_6vectorIbNS_9allocatorIbEEEELb1ELm0EEdeEv
FNDA:0,_ZNSt3__114__bit_iteratorINS_6vectorIbNS_9allocatorIbEEEELb0ELm0EEppEv
FNDA:0,_ZNSt3__114__bit_iteratorINS_6vectorIbNS_9allocatorIbEEEELb1ELm0EEppEv
FNDA:0,_ZNSt3__1miERKNS_14__bit_iteratorINS_6vectorIbNS_9allocatorIbEEEELb1ELm0EEES7_
FNDA:0,_ZNSt3__1eqERKNS_14__bit_iteratorINS_6vectorIbNS_9allocatorIbEEEELb1ELm0EEES7_
FNDA:0,_ZNSt3__1neERKNS_14__bit_iteratorINS_6vectorIbNS_9allocatorIbEEEELb1ELm0EEES7_
FNDA:0,_ZNSt3__114__bit_iteratorINS_6vectorIbNS_9allocatorIbEEEELb0ELm0EEC1EPmj
FNDA:0,_ZNSt3__114__bit_iteratorINS_6vectorIbNS_9allocatorIbEEEELb0ELm0EEC2EPmj
FNDA:252,_ZNSt3__114__bit_iteratorINS_6vectorIbNS_9allocatorIbEEEELb1ELm0EEC1EPKmj
FNDA:252,_ZNSt3__114__bit_iteratorINS_6vectorIbNS_9allocatorIbEEEELb1ELm0EEC2EPKmj
FNF:25
FNH:3
DA:58,0
DA:59,0
DA:61,0
DA:62,0
DA:75,0
DA:140,0
DA:148,0
DA:410,0
DA:411,0
DA:412,0
DA:415,0
DA:417,0
DA:418,0
DA:419,0
DA:420,0
DA:421,0
DA:422,0
DA:423,0
DA:424,0
DA:425,0
DA:426,0
DA:428,0
DA:431,0
DA:432,0
DA:433,0
DA:434,0
DA:435,0
DA:436,0
DA:438,0
DA:440,0
DA:441,0
DA:442,0
DA:443,0
DA:444,0
DA:445,0
DA:446,0
DA:447,0
DA:448,0
DA:460,0
DA:461,0
DA:464,0
DA:466,0
DA:467,0
DA:468,0
DA:469,0
DA:470,0
DA:471,0
DA:472,0
DA:473,0
DA:474,0
DA:475,0
DA:476,0
DA:478,0
DA:479,0
DA:480,0
DA:481,0
DA:482,0
DA:484,0
DA:485,0
DA:486,0
DA:487,0
DA:488,0
DA:489,0
DA:491,0
DA:494,0
DA:495,0
DA:496,0
DA:498,0
DA:499,0
DA:500,0
DA:501,0
DA:502,0
DA:503,0
DA:504,0
DA:506,0
DA:508,0
DA:509,0
DA:510,0
DA:511,0
DA:512,0
DA:513,0
DA:514,0
DA:515,0
DA:516,0
DA:517,0
DA:519,0
DA:520,0
DA:521,0
DA:522,0
DA:523,0
DA:524,0
DA:525,0
DA:526,0
DA:534,0
DA:535,0
DA:536,0
DA:537,0
DA:958,0
DA:959,0
DA:962,0
DA:964,0
DA:965,0
DA:966,0
DA:967,0
DA:968,0
DA:969,0
DA:970,0
DA:971,0
DA:972,0
DA:974,0
DA:975,0
DA:976,0
DA:979,0
DA:980,0
DA:982,0
DA:983,0
DA:984,0
DA:985,0
DA:987,0
DA:988,0
DA:989,0
DA:990,0
DA:991,0
DA:992,0
DA:994,0
DA:997,0
DA:998,0
DA:999,0
DA:1001,0
DA:1002,0
DA:1003,0
DA:1004,0
DA:1005,0
DA:1006,0
DA:1007,0
DA:1009,0
DA:1011,0
DA:1012,0
DA:1013,0
DA:1014,0
DA:1015,0
DA:1016,0
DA:1017,0
DA:1018,0
DA:1019,0
DA:1020,0
DA:1022,0
DA:1023,0
DA:1024,0
DA:1025,0
DA:1026,0
DA:1027,0
DA:1028,0
DA:1029,0
DA:1040,0
DA:1041,0
DA:1044,0
DA:1046,0
DA:1047,0
DA:1048,0
DA:1049,0
DA:1050,0
DA:1051,0
DA:1052,0
DA:1053,0
DA:1056,0
DA:1060,0
DA:1061,0
DA:1062,0
DA:1064,0
DA:1066,0
DA:1067,0
DA:1068,0
DA:1069,0
DA:1070,0
DA:1071,0
DA:1072,0
DA:1079,84
DA:1080,84
DA:1081,0
DA:1082,84
DA:1113,0
DA:1116,0
DA:1120,0
DA:1121,0
DA:1124,0
DA:1125,0
DA:1127,0
DA:1192,0
DA:1197,0
DA:1200,0
DA:1217,504
LF:192
LH:4
end_of_record
SF:/Applications/Xcode.app/Contents/Developer/Toolchains/XcodeDefault.xctoolchain/usr/include/c++/v1/__locale
FN:210,_ZNSt3__19use_facetINS_5ctypeIcEEEERKT_RKNS_6localeE
FN:625,_ZNKSt3__15ctypeIcE5widenEc
FNDA:0,_ZNSt3__19use_facetINS_5ctypeIcEEEERKT_RKNS_6localeE
FNDA:0,_ZNKSt3__15ctypeIcE5widenEc
FNF:2
FNH:0
DA:212,0
DA:627,0
LF:2
LH:0
end_of_record
SF:/Applications/Xcode.app/Contents/Developer/Toolchains/XcodeDefault.xctoolchain/usr/include/c++/v1/__string
FN:208,_ZNSt3__111char_traitsIcE6assignERcRKc
FN:209,_ZNSt3__111char_traitsIcE2eqEcc
FN:217,_ZNSt3__111char_traitsIcE6lengthEPKc
FN:230,_ZNSt3__111char_traitsIcE7not_eofEi
FN:232,_ZNSt3__111char_traitsIcE12to_char_typeEi
FN:234,_ZNSt3__111char_traitsIcE11to_int_typeEc
FN:236,_ZNSt3__111char_traitsIcE11eq_int_typeEii
FN:238,_ZNSt3__111char_traitsIcE3eofEv
FNDA:0,_ZNSt3__111char_traitsIcE6assignERcRKc
FNDA:0,_ZNSt3__111char_traitsIcE2eqEcc
FNDA:0,_ZNSt3__111char_traitsIcE6lengthEPKc
FNDA:0,_ZNSt3__111char_traitsIcE7not_eofEi
FNDA:0,_ZNSt3__111char_traitsIcE12to_char_typeEi
FNDA:0,_ZNSt3__111char_traitsIcE11to_int_typeEc
FNDA:0,_ZNSt3__111char_traitsIcE11eq_int_typeEii
FNDA:0,_ZNSt3__111char_traitsIcE3eofEv
FNF:8
FNH:0
DA:208,0
DA:210,0
DA:217,0
DA:231,0
DA:233,0
DA:235,0
DA:237,0
DA:239,0
LF:8
LH:0
end_of_record
SF:/Applications/Xcode.app/Contents/Developer/Toolchains/XcodeDefault.xctoolchain/usr/include/c++/v1/algorithm
FN:682,_ZNKSt3__110__equal_toINS_6vectorIbNS_9allocatorIbEEEES4_EclERKS4_S7_
FN:719,_ZNKSt3__16__lessImmEclERKmS3_
FN:719,_ZNKSt3__16__lessIPcS1_EclERKS1_S4_
FN:719,_ZNKSt3__16__lessIllEclERKlS3_
FN:1322,_ZNSt3__15equalINS_11__wrap_iterIPKNS_6vectorIbNS_9allocatorIbEEEEEES8_NS_10__equal_toIS5_S5_EEEEbT_SB_T0_T1_
FN:1333,_ZNSt3__15equalINS_11__wrap_iterIPKNS_6vectorIbNS_9allocatorIbEEEEEES8_EEbT_S9_T0_
FN:1759,_ZNSt3__113__unwrap_iterIPKbEET_S3_
FN:1759,_ZNSt3__113__unwrap_iterINS_14__bit_iteratorINS_6vectorIbNS_9allocatorIbEEEELb0ELm0EEEEET_S7_
FN:1809,_ZNSt3__16__copyIPKbNS_14__bit_iteratorINS_6vectorIbNS_9allocatorIbEEEELb0ELm0EEEEET0_T_SA_S9_
FN:1835,_ZNSt3__14copyIPKbNS_14__bit_iteratorINS_6vectorIbNS_9allocatorIbEEEELb0ELm0EEEEET0_T_SA_S9_
FN:2644,_ZNSt3__13minImNS_6__lessImmEEEERKT_S5_S5_T0_
FN:2644,_ZNSt3__13minIlNS_6__lessIllEEEERKT_S5_S5_T0_
FN:2652,_ZNSt3__13minImEERKT_S3_S3_
FN:2652,_ZNSt3__13minIlEERKT_S3_S3_
FN:2709,_ZNSt3__13maxIPcNS_6__lessIS1_S1_EEEERKT_S6_S6_T0_
FN:2717,_ZNSt3__13maxIPcEERKT_S4_S4_
FNDA:84,_ZNKSt3__110__equal_toINS_6vectorIbNS_9allocatorIbEEEES4_EclERKS4_S7_
FNDA:0,_ZNKSt3__16__lessImmEclERKmS3_
FNDA:0,_ZNKSt3__16__lessIllEclERKlS3_
FNDA:0,_ZNKSt3__16__lessIPcS1_EclERKS1_S4_
FNDA:28,_ZNSt3__15equalINS_11__wrap_iterIPKNS_6vectorIbNS_9allocatorIbEEEEEES8_NS_10__equal_toIS5_S5_EEEEbT_SB_T0_T1_
FNDA:28,_ZNSt3__15equalINS_11__wrap_iterIPKNS_6vectorIbNS_9allocatorIbEEEEEES8_EEbT_S9_T0_
FNDA:0,_ZNSt3__113__unwrap_iterIPKbEET_S3_
FNDA:0,_ZNSt3__113__unwrap_iterINS_14__bit_iteratorINS_6vectorIbNS_9allocatorIbEEEELb0ELm0EEEEET_S7_
FNDA:0,_ZNSt3__16__copyIPKbNS_14__bit_iteratorINS_6vectorIbNS_9allocatorIbEEEELb0ELm0EEEEET0_T_SA_S9_
FNDA:0,_ZNSt3__14copyIPKbNS_14__bit_iteratorINS_6vectorIbNS_9allocatorIbEEEELb0ELm0EEEEET0_T_SA_S9_
FNDA:0,_ZNSt3__13minImNS_6__lessImmEEEERKT_S5_S5_T0_
FNDA:0,_ZNSt3__13minIlNS_6__lessIllEEEERKT_S5_S5_T0_
FNDA:0,_ZNSt3__13minImEERKT_S3_S3_
FNDA:0,_ZNSt3__13minIlEERKT_S3_S3_
FNDA:0,_ZNSt3__13maxIPcNS_6__lessIS1_S1_EEEERKT_S6_S6_T0_
FNDA:0,_ZNSt3__13maxIPcEERKT_S4_S4_
FNF:16
FNH:3
DA:682,84
DA:719,0
DA:1324,224
DA:1325,168
DA:1326,0
DA:1327,28
DA:1328,28
DA:1337,28
DA:1761,0
DA:1811,0
DA:1812,0
DA:1813,0
DA:1837,0
DA:2646,0
DA:2654,0
DA:2711,0
DA:2719,0
LF:17
LH:6
end_of_record
SF:/Applications/Xcode.app/Contents/Developer/Toolchains/XcodeDefault.xctoolchain/usr/include/c++/v1/initializer_list
FN:85,_ZNKSt16initializer_listIbE4sizeEv
FN:85,_ZNKSt16initializer_listINSt3__16vectorIbNS0_9allocatorIbEEEEE4sizeEv
FN:89,_ZNKSt16initializer_listIbE5beginEv
FN:89,_ZNKSt16initializer_listINSt3__16vectorIbNS0_9allocatorIbEEEEE5beginEv
FN:93,_ZNKSt16initializer_listIbE3endEv
FN:93,_ZNKSt16initializer_listINSt3__16vectorIbNS0_9allocatorIbEEEEE3endEv
FNDA:0,_ZNKSt16initializer_listIbE4sizeEv
FNDA:78,_ZNKSt16initializer_listINSt3__16vectorIbNS0_9allocatorIbEEEEE4sizeEv
FNDA:0,_ZNKSt16initializer_listIbE5beginEv
FNDA:26,_ZNKSt16initializer_listINSt3__16vectorIbNS0_9allocatorIbEEEEE5beginEv
FNDA:0,_ZNKSt16initializer_listIbE3endEv
FNDA:26,_ZNKSt16initializer_listINSt3__16vectorIbNS0_9allocatorIbEEEEE3endEv
FNF:6
FNH:3
DA:85,78
DA:89,26
DA:93,26
LF:3
LH:3
end_of_record
SF:/Applications/Xcode.app/Contents/Developer/Toolchains/XcodeDefault.xctoolchain/usr/include/c++/v1/ios
FN:336,_ZNSt3__18ios_baseC2Ev
FN:340,_ZNKSt3__18ios_base5rdbufEv
FN:440,_ZNKSt3__18ios_base5flagsEv
FN:502,_ZNKSt3__18ios_base5widthEv
FN:509,_ZNSt3__18ios_base5widthEl
FN:527,_ZNSt3__18ios_base8setstateEj
FN:611,_ZNSt3__19basic_iosIcNS_11char_traitsIcEEE8setstateEj
FN:653,_ZNSt3__19basic_iosIcNS_11char_traitsIcEEEC2Ev
FN:688,_ZNSt3__19basic_iosIcNS_11char_traitsIcEEE4initEPNS_15basic_streambufIcS2_EE
FN:716,_ZNKSt3__19basic_iosIcNS_11char_traitsIcEEE5rdbufEv
FN:754,_ZNKSt3__19basic_iosIcNS_11char_traitsIcEEE5widenEc
FN:762,_ZNKSt3__19basic_iosIcNS_11char_traitsIcEEE4fillEv
FNDA:0,_ZNSt3__18ios_baseC2Ev
FNDA:0,_ZNKSt3__18ios_base5rdbufEv
FNDA:0,_ZNKSt3__18ios_base5flagsEv
FNDA:0,_ZNKSt3__18ios_base5widthEv
FNDA:0,_ZNSt3__18ios_base5widthEl
FNDA:0,_ZNSt3__18ios_base8setstateEj
FNDA:0,_ZNSt3__19basic_iosIcNS_11char_traitsIcEEE8setstateEj
FNDA:0,_ZNSt3__19basic_iosIcNS_11char_traitsIcEEEC2Ev
FNDA:0,_ZNSt3__19basic_iosIcNS_11char_traitsIcEEE4initEPNS_15basic_streambufIcS2_EE
FNDA:0,_ZNKSt3__19basic_iosIcNS_11char_traitsIcEEE5rdbufEv
FNDA:0,_ZNKSt3__19basic_iosIcNS_11char_traitsIcEEE5widenEc
FNDA:0,_ZNKSt3__19basic_iosIcNS_11char_traitsIcEEE4fillEv
FNF:12
FNH:0
DA:336,0
DA:337,0
DA:340,0
DA:442,0
DA:504,0
DA:511,0
DA:512,0
DA:513,0
DA:529,0
DA:530,0
DA:611,0
DA:653,0
DA:654,0
DA:690,0
DA:691,0
DA:692,0
DA:693,0
DA:718,0
DA:756,0
DA:757,0
DA:764,0
DA:765,0
DA:766,0
LF:23
LH:0
end_of_record
SF:/Applications/Xcode.app/Contents/Developer/Toolchains/XcodeDefault.xctoolchain/usr/include/c++/v1/iosfwd
FN:117,_ZNSt3__115basic_stringbufIcNS_11char_traitsIcEENS_9allocatorIcEEED0Ev
FN:117,_ZNSt3__115basic_stringbufIcNS_11char_traitsIcEENS_9allocatorIcEEED2Ev
FN:117,_ZNSt3__115basic_stringbufIcNS_11char_traitsIcEENS_9allocatorIcEEED1Ev
FN:126,_ZNSt3__118basic_stringstreamIcNS_11char_traitsIcEENS_9allocatorIcEEED2Ev
FN:126,_ZNSt3__118basic_stringstreamIcNS_11char_traitsIcEENS_9allocatorIcEEED1Ev
FN:126,_ZNSt3__118basic_stringstreamIcNS_11char_traitsIcEENS_9allocatorIcEEED0Ev
FNDA:0,_ZNSt3__115basic_stringbufIcNS_11char_traitsIcEENS_9allocatorIcEEED1Ev
FNDA:0,_ZNSt3__115basic_stringbufIcNS_11char_traitsIcEENS_9allocatorIcEEED0Ev
FNDA:0,_ZNSt3__115basic_stringbufIcNS_11char_traitsIcEENS_9allocatorIcEEED2Ev
FNDA:0,_ZNSt3__118basic_stringstreamIcNS_11char_traitsIcEENS_9allocatorIcEEED1Ev
FNDA:0,_ZNSt3__118basic_stringstreamIcNS_11char_traitsIcEENS_9allocatorIcEEED0Ev
FNDA:0,_ZNSt3__118basic_stringstreamIcNS_11char_traitsIcEENS_9allocatorIcEEED2Ev
FNF:6
FNH:0
DA:117,0
DA:126,0
LF:2
LH:0
end_of_record
SF:/Applications/Xcode.app/Contents/Developer/Toolchains/XcodeDefault.xctoolchain/usr/include/c++/v1/istream
FN:190,_ZNSt3__113basic_istreamIcNS_11char_traitsIcEEEC2EPNS_15basic_streambufIcS2_EE
FN:1461,_ZNSt3__114basic_iostreamIcNS_11char_traitsIcEEEC2EPNS_15basic_streambufIcS2_EE
FNDA:0,_ZNSt3__113basic_istreamIcNS_11char_traitsIcEEEC2EPNS_15basic_streambufIcS2_EE
FNDA:0,_ZNSt3__114basic_iostreamIcNS_11char_traitsIcEEEC2EPNS_15basic_streambufIcS2_EE
FNF:2
FNH:0
DA:190,0
DA:191,0
DA:1461,0
DA:1462,0
DA:1463,0
LF:5
LH:0
end_of_record
SF:/Applications/Xcode.app/Contents/Developer/Toolchains/XcodeDefault.xctoolchain/usr/include/c++/v1/iterator
FN:592,_ZNSt3__110__distanceINS_14__bit_iteratorINS_6vectorIbNS_9allocatorIbEEEELb1ELm0EEEEENS_15iterator_traitsIT_E15difference_typeES8_S8_NS_26random_access_iterator_tagE
FN:592,_ZNSt3__110__distanceIPcEENS_15iterator_traitsIT_E15difference_typeES3_S3_NS_26random_access_iterator_tagE
FN:592,_ZNSt3__110__distanceIPKbEENS_15iterator_traitsIT_E15difference_typeES4_S4_NS_26random_access_iterator_tagE
FN:600,_ZNSt3__18distanceIPKbEENS_15iterator_traitsIT_E15difference_typeES4_S4_
FN:600,_ZNSt3__18distanceIPcEENS_15iterator_traitsIT_E15difference_typeES3_S3_
FN:600,_ZNSt3__18distanceINS_14__bit_iteratorINS_6vectorIbNS_9allocatorIbEEEELb1ELm0EEEEENS_15iterator_traitsIT_E15difference_typeES8_S8_
FN:1031,_ZNSt3__119ostreambuf_iteratorIcNS_11char_traitsIcEEEC1ERNS_13basic_ostreamIcS2_EE
FN:1031,_ZNSt3__119ostreambuf_iteratorIcNS_11char_traitsIcEEEC2ERNS_13basic_ostreamIcS2_EE
FN:1044,_ZNKSt3__119ostreambuf_iteratorIcNS_11char_traitsIcEEE6failedEv
FN:1331,_ZNKSt3__111__wrap_iterIPKNS_6vectorIbNS_9allocatorIbEEEEEdeEv
FN:1347,_ZNSt3__111__wrap_iterIPKNS_6vectorIbNS_9allocatorIbEEEEEppEv
FN:1393,_ZNKSt3__111__wrap_iterIPKNS_6vectorIbNS_9allocatorIbEEEEE4baseEv
FN:1402,_ZNSt3__111__wrap_iterIPKNS_6vectorIbNS_9allocatorIbEEEEEC1ES6_
FN:1402,_ZNSt3__111__wrap_iterIPKNS_6vectorIbNS_9allocatorIbEEEEEC2ES6_
FN:1486,_ZNSt3__1eqIPKNS_6vectorIbNS_9allocatorIbEEEES6_EEbRKNS_11__wrap_iterIT_EERKNS7_IT0_EE
FN:1538,_ZNSt3__1neIPKNS_6vectorIbNS_9allocatorIbEEEEEEbRKNS_11__wrap_iterIT_EESB_
FNDA:0,_ZNSt3__110__distanceIPKbEENS_15iterator_traitsIT_E15difference_typeES4_S4_NS_26random_access_iterator_tagE
FNDA:0,_ZNSt3__110__distanceINS_14__bit_iteratorINS_6vectorIbNS_9allocatorIbEEEELb1ELm0EEEEENS_15iterator_traitsIT_E15difference_typeES8_S8_NS_26random_access_iterator_tagE
FNDA:0,_ZNSt3__110__distanceIPcEENS_15iterator_traitsIT_E15difference_typeES3_S3_NS_26random_access_iterator_tagE
FNDA:0,_ZNSt3__18distanceIPKbEENS_15iterator_traitsIT_E15difference_typeES4_S4_
FNDA:0,_ZNSt3__18distanceINS_14__bit_iteratorINS_6vectorIbNS_9allocatorIbEEEELb1ELm0EEEEENS_15iterator_traitsIT_E15difference_typeES8_S8_
FNDA:0,_ZNSt3__18distanceIPcEENS_15iterator_traitsIT_E15difference_typeES3_S3_
FNDA:0,_ZNSt3__119ostreambuf_iteratorIcNS_11char_traitsIcEEEC1ERNS_13basic_ostreamIcS2_EE
FNDA:0,_ZNSt3__119ostreambuf_iteratorIcNS_11char_traitsIcEEEC2ERNS_13basic_ostreamIcS2_EE
FNDA:0,_ZNKSt3__119ostreambuf_iteratorIcNS_11char_traitsIcEEE6failedEv
FNDA:168,_ZNKSt3__111__wrap_iterIPKNS_6vectorIbNS_9allocatorIbEEEEEdeEv
FNDA:168,_ZNSt3__111__wrap_iterIPKNS_6vectorIbNS_9allocatorIbEEEEEppEv
FNDA:224,_ZNKSt3__111__wrap_iterIPKNS_6vectorIbNS_9allocatorIbEEEEE4baseEv
FNDA:84,_ZNSt3__111__wrap_iterIPKNS_6vectorIbNS_9allocatorIbEEEEEC1ES6_
FNDA:84,_ZNSt3__111__wrap_iterIPKNS_6vectorIbNS_9allocatorIbEEEEEC2ES6_
FNDA:112,_ZNSt3__1eqIPKNS_6vectorIbNS_9allocatorIbEEEES6_EEbRKNS_11__wrap_iterIT_EERKNS7_IT0_EE
FNDA:112,_ZNSt3__1neIPKNS_6vectorIbNS_9allocatorIbEEEEEEbRKNS_11__wrap_iterIT_EESB_
FNF:16
FNH:7
DA:594,0
DA:602,0
DA:1032,0
DA:1044,0
DA:1337,168
DA:1353,168
DA:1354,168
DA:1393,224
DA:1402,168
DA:1488,112
DA:1540,112
LF:11
LH:7
end_of_record
SF:/Applications/Xcode.app/Contents/Developer/Toolchains/XcodeDefault.xctoolchain/usr/include/c++/v1/limits
FN:213,_ZNSt3__123__libcpp_numeric_limitsImLb1EE3maxEv
FN:213,_ZNSt3__123__libcpp_numeric_limitsIlLb1EE3maxEv
FN:450,_ZNSt3__114numeric_limitsIlE3maxEv
FN:450,_ZNSt3__114numeric_limitsImE3maxEv
FNDA:0,_ZNSt3__123__libcpp_numeric_limitsImLb1EE3maxEv
FNDA:0,_ZNSt3__123__libcpp_numeric_limitsIlLb1EE3maxEv
FNDA:0,_ZNSt3__114numeric_limitsImE3maxEv
FNDA:0,_ZNSt3__114numeric_limitsIlE3maxEv
FNF:4
FNH:0
DA:213,0
DA:450,0
LF:2
LH:0
end_of_record
SF:/Applications/Xcode.app/Contents/Developer/Toolchains/XcodeDefault.xctoolchain/usr/include/c++/v1/locale
FN:1381,_ZNSt3__116__pad_and_outputIcNS_11char_traitsIcEEEENS_19ostreambuf_iteratorIT_T0_EES6_PKS4_S8_S8_RNS_8ios_baseES4_
FNDA:0,_ZNSt3__116__pad_and_outputIcNS_11char_traitsIcEEEENS_19ostreambuf_iteratorIT_T0_EES6_PKS4_S8_S8_RNS_8ios_baseES4_
FNF:1
FNH:0
DA:1385,0
DA:1386,0
DA:1387,0
DA:1388,0
DA:1389,0
DA:1390,0
DA:1392,0
DA:1393,0
DA:1394,0
DA:1396,0
DA:1398,0
DA:1399,0
DA:1401,0
DA:1402,0
DA:1404,0
DA:1405,0
DA:1407,0
DA:1408,0
DA:1410,0
DA:1411,0
DA:1412,0
DA:1414,0
DA:1416,0
DA:1417,0
DA:1419,0
DA:1420,0
DA:1421,0
DA:1422,0
LF:28
LH:0
end_of_record
SF:/Applications/Xcode.app/Contents/Developer/Toolchains/XcodeDefault.xctoolchain/usr/include/c++/v1/memory
FN:977,_ZNSt3__114pointer_traitsIPKcE10pointer_toERS1_
FN:977,_ZNSt3__114pointer_traitsIPcE10pointer_toERc
FN:1095,_ZNSt3__116__to_raw_pointerIKmEEPT_S3_
FN:1095,_ZNSt3__116__to_raw_pointerIKcEEPT_S3_
FN:1095,_ZNSt3__116__to_raw_pointerINS_6vectorIbNS_9allocatorIbEEEEEEPT_S6_
FN:1095,_ZNSt3__116__to_raw_pointerImEEPT_S2_
FN:1501,_ZNSt3__116allocator_traitsINS_9allocatorIcEEE8allocateERS2_m
FN:1501,_ZNSt3__116allocator_traitsINS_9allocatorImEEE8allocateERS2_m
FN:1501,_ZNSt3__116allocator_traitsINS_9allocatorINS_6vectorIbNS1_IbEEEEEEE8allocateERS5_m
FN:1509,_ZNSt3__116allocator_traitsINS_9allocatorImEEE10deallocateERS2_Pmm
FN:1509,_ZNSt3__116allocator_traitsINS_9allocatorINS_6vectorIbNS1_IbEEEEEEE10deallocateERS5_PS4_m
FN:1515,_ZNSt3__116allocator_traitsINS_9allocatorINS_6vectorIbNS1_IbEEEEEEE9constructIS4_JRKS4_EEEvRS5_PT_DpOT0_
FN:1515,_ZNSt3__116allocator_traitsINS_9allocatorINS_6vectorIbNS1_IbEEEEEEE9constructIS4_JRS4_EEEvRS5_PT_DpOT0_
FN:1549,_ZNSt3__116allocator_traitsINS_9allocatorINS_6vectorIbNS1_IbEEEEEEE7destroyIS4_EEvRS5_PT_
FN:1553,_ZNSt3__116allocator_traitsINS_9allocatorIcEEE8max_sizeERKS2_
FN:1553,_ZNSt3__116allocator_traitsINS_9allocatorImEEE8max_sizeERKS2_
FN:1553,_ZNSt3__116allocator_traitsINS_9allocatorINS_6vectorIbNS1_IbEEEEEEE8max_sizeERKS5_
FN:1558,_ZNSt3__116allocator_traitsINS_9allocatorImEEE37select_on_container_copy_constructionERKS2_
FN:1558,_ZNSt3__116allocator_traitsINS_9allocatorINS_6vectorIbNS1_IbEEEEEEE37select_on_container_copy_constructionERKS5_
FN:1597,_ZNSt3__116allocator_traitsINS_9allocatorINS_6vectorIbNS1_IbEEEEEEE25__construct_range_forwardIPKS4_PS4_EEvRS5_T_SC_RT0_
FN:1597,_ZNSt3__116allocator_traitsINS_9allocatorINS_6vectorIbNS1_IbEEEEEEE25__construct_range_forwardIPS4_S8_EEvRS5_T_SA_RT0_
FN:1669,_ZNSt3__116allocator_traitsINS_9allocatorINS_6vectorIbNS1_IbEEEEEEE11__constructIS4_JRS4_EEEvNS_17integral_constantIbLb1EEERS5_PT_DpOT0_
FN:1669,_ZNSt3__116allocator_traitsINS_9allocatorINS_6vectorIbNS1_IbEEEEEEE11__constructIS4_JRKS4_EEEvNS_17integral_constantIbLb1EEERS5_PT_DpOT0_
FN:1681,_ZNSt3__116allocator_traitsINS_9allocatorINS_6vectorIbNS1_IbEEEEEEE9__destroyIS4_EEvNS_17integral_constantIbLb1EEERS5_PT_
FN:1691,_ZNSt3__116allocator_traitsINS_9allocatorIcEEE10__max_sizeENS_17integral_constantIbLb1EEERKS2_
FN:1691,_ZNSt3__116allocator_traitsINS_9allocatorImEEE10__max_sizeENS_17integral_constantIbLb1EEERKS2_
FN:1691,_ZNSt3__116allocator_traitsINS_9allocatorINS_6vectorIbNS1_IbEEEEEEE10__max_sizeENS_17integral_constantIbLb1EEERKS5_
FN:1703,_ZNSt3__116allocator_traitsINS_9allocatorINS_6vectorIbNS1_IbEEEEEEE39__select_on_container_copy_constructionENS_17integral_constantIbLb0EEERKS5_
FN:1703,_ZNSt3__116allocator_traitsINS_9allocatorImEEE39__select_on_container_copy_constructionENS_17integral_constantIbLb0EEERKS2_
FN:1736,_ZNSt3__19allocatorImEC2Ev
FN:1736,_ZNSt3__19allocatorIcEC2Ev
FN:1736,_ZNSt3__19allocatorINS_6vectorIbNS0_IbEEEEEC2Ev
FN:1742,_ZNSt3__19allocatorImE8allocateEmPKv
FN:1742,_ZNSt3__19allocatorINS_6vectorIbNS0_IbEEEEE8allocateEmPKv
FN:1742,_ZNSt3__19allocatorIcE8allocateEmPKv
FN:1749,_ZNSt3__19allocatorINS_6vectorIbNS0_IbEEEEE10deallocateEPS3_m
FN:1749,_ZNSt3__19allocatorImE10deallocateEPmm
FN:1751,_ZNKSt3__19allocatorImE8max_sizeEv
FN:1751,_ZNKSt3__19allocatorIcE8max_sizeEv
FN:1751,_ZNKSt3__19allocatorINS_6vectorIbNS0_IbEEEEE8max_sizeEv
FN:1757,_ZNSt3__19allocatorINS_6vectorIbNS0_IbEEEEE9constructIS3_JRS3_EEEvPT_DpOT0_
FN:1757,_ZNSt3__19allocatorINS_6vectorIbNS0_IbEEEEE9constructIS3_JRKS3_EEEvPT_DpOT0_
FN:1814,_ZNSt3__19allocatorINS_6vectorIbNS0_IbEEEEE7destroyEPS3_
FN:2043,_ZNSt3__122__compressed_pair_elemINS_12basic_stringIcNS_11char_traitsIcEENS_9allocatorIcEEE5__repELi0ELb0EEC2Ev
FN:2050,_ZNSt3__122__compressed_pair_elemImLi0ELb0EEC2IivEEOT_
FN:2050,_ZNSt3__122__compressed_pair_elemIPNS_6vectorIbNS_9allocatorIbEEEELi0ELb0EEC2IDnvEEOT_
FN:2064,_ZNSt3__122__compressed_pair_elemIPNS_6vectorIbNS_9allocatorIbEEEELi0ELb0EE5__getEv
FN:2064,_ZNSt3__122__compressed_pair_elemINS_12basic_stringIcNS_11char_traitsIcEENS_9allocatorIcEEE5__repELi0ELb0EE5__getEv
FN:2064,_ZNSt3__122__compressed_pair_elemImLi0ELb0EE5__getEv
FN:2066,_ZNKSt3__122__compressed_pair_elemIPNS_6vectorIbNS_9allocatorIbEEEELi0ELb0EE5__getEv
FN:2066,_ZNKSt3__122__compressed_pair_elemINS_12basic_stringIcNS_11char_traitsIcEENS_9allocatorIcEEE5__repELi0ELb0EE5__getEv
FN:2080,_ZNSt3__122__compressed_pair_elemINS_9allocatorImEELi1ELb1EEC2Ev
FN:2080,_ZNSt3__122__compressed_pair_elemINS_9allocatorINS_6vectorIbNS1_IbEEEEEELi1ELb1EEC2Ev
FN:2080,_ZNSt3__122__compressed_pair_elemINS_9allocatorIcEELi1ELb1EEC2Ev
FN:2087,_ZNSt3__122__compressed_pair_elemINS_9allocatorINS_6vectorIbNS1_IbEEEEEELi1ELb1EEC2IRKS5_vEEOT_
FN:2087,_ZNSt3__122__compressed_pair_elemINS_9allocatorImEELi1ELb1EEC2IS2_vEEOT_
FN:2087,_ZNSt3__122__compressed_pair_elemINS_9allocatorIcEELi1ELb1EEC2IRKS2_vEEOT_
FN:2102,_ZNSt3__122__compressed_pair_elemINS_9allocatorImEELi1ELb1EE5__getEv
FN:2102,_ZNSt3__122__compressed_pair_elemINS_9allocatorIcEELi1ELb1EE5__getEv
FN:2102,_ZNSt3__122__compressed_pair_elemINS_9allocatorINS_6vectorIbNS1_IbEEEEEELi1ELb1EE5__getEv
FN:2104,_ZNKSt3__122__compressed_pair_elemINS_9allocatorINS_6vectorIbNS1_IbEEEEEELi1ELb1EE5__getEv
FN:2104,_ZNKSt3__122__compressed_pair_elemINS_9allocatorIcEELi1ELb1EE5__getEv
FN:2104,_ZNKSt3__122__compressed_pair_elemINS_9allocatorImEELi1ELb1EE5__getEv
FN:2134,_ZNSt3__117__compressed_pairINS_12basic_stringIcNS_11char_traitsIcEENS_9allocatorIcEEE5__repES5_EC2ILb1EvEEv
FN:2134,_ZNSt3__117__compressed_pairINS_12basic_stringIcNS_11char_traitsIcEENS_9allocatorIcEEE5__repES5_EC1ILb1EvEEv
FN:2140,_ZNSt3__117__compressed_pairIPNS_6vectorIbNS_9allocatorIbEEEENS2_IS4_EEEC1IDnLb1EEEOT_
FN:2140,_ZNSt3__117__compressed_pairImNS_9allocatorImEEEC1IiLb1EEEOT_
FN:2140,_ZNSt3__117__compressed_pairImNS_9allocatorImEEEC2IiLb1EEEOT_
FN:2140,_ZNSt3__117__compressed_pairIPNS_6vectorIbNS_9allocatorIbEEEENS2_IS4_EEEC2IDnLb1EEEOT_
FN:2145,_ZNSt3__117__compressed_pairINS_12basic_stringIcNS_11char_traitsIcEENS_9allocatorIcEEE5__repES5_EC2IRKS5_EENS_12__second_tagEOT_
FN:2145,_ZNSt3__117__compressed_pairINS_12basic_stringIcNS_11char_traitsIcEENS_9allocatorIcEEE5__repES5_EC1IRKS5_EENS_12__second_tagEOT_
FN:2150,_ZNSt3__117__compressed_pairIPNS_6vectorIbNS_9allocatorIbEEEENS2_IS4_EEEC1IDnRKS6_EEOT_OT0_
FN:2150,_ZNSt3__117__compressed_pairImNS_9allocatorImEEEC1IiS2_EEOT_OT0_
FN:2150,_ZNSt3__117__compressed_pairImNS_9allocatorImEEEC2IiS2_EEOT_OT0_
FN:2150,_ZNSt3__117__compressed_pairIPNS_6vectorIbNS_9allocatorIbEEEENS2_IS4_EEEC2IDnRKS6_EEOT_OT0_
FN:2179,_ZNSt3__117__compressed_pairIPNS_6vectorIbNS_9allocatorIbEEEENS2_IS4_EEE5firstEv
FN:2179,_ZNSt3__117__compressed_pairImNS_9allocatorImEEE5firstEv
FN:2179,_ZNSt3__117__compressed_pairINS_12basic_stringIcNS_11char_traitsIcEENS_9allocatorIcEEE5__repES5_E5firstEv
FN:2184,_ZNKSt3__117__compressed_pairINS_12basic_stringIcNS_11char_traitsIcEENS_9allocatorIcEEE5__repES5_E5firstEv
FN:2184,_ZNKSt3__117__compressed_pairIPNS_6vectorIbNS_9allocatorIbEEEENS2_IS4_EEE5firstEv
FN:2189,_ZNSt3__117__compressed_pairINS_12basic_stringIcNS_11char_traitsIcEENS_9allocatorIcEEE5__repES5_E6secondEv
FN:2189,_ZNSt3__117__compressed_pairImNS_9allocatorImEEE6secondEv
FN:2189,_ZNSt3__117__compressed_pairIPNS_6vectorIbNS_9allocatorIbEEEENS2_IS4_EEE6secondEv
FN:2194,_ZNKSt3__117__compressed_pairImNS_9allocatorImEEE6secondEv
FN:2194,_ZNKSt3__117__compressed_pairINS_12basic_stringIcNS_11char_traitsIcEENS_9allocatorIcEEE5__repES5_E6secondEv
FN:2194,_ZNKSt3__117__compressed_pairIPNS_6vectorIbNS_9allocatorIbEEEENS2_IS4_EEE6secondEv
FNDA:0,_ZNSt3__114pointer_traitsIPKcE10pointer_toERS1_
FNDA:0,_ZNSt3__114pointer_traitsIPcE10pointer_toERc
FNDA:0,_ZNSt3__116__to_raw_pointerINS_6vectorIbNS_9allocatorIbEEEEEEPT_S6_
FNDA:0,_ZNSt3__116__to_raw_pointerIKcEEPT_S3_
FNDA:0,_ZNSt3__116__to_raw_pointerImEEPT_S2_
FNDA:0,_ZNSt3__116__to_raw_pointerIKmEEPT_S3_
FNDA:0,_ZNSt3__116allocator_traitsINS_9allocatorImEEE8allocateERS2_m
FNDA:0,_ZNSt3__116allocator_traitsINS_9allocatorINS_6vectorIbNS1_IbEEEEEEE8allocateERS5_m
FNDA:0,_ZNSt3__116allocator_traitsINS_9allocatorIcEEE8allocateERS2_m
FNDA:0,_ZNSt3__116allocator_traitsINS_9allocatorINS_6vectorIbNS1_IbEEEEEEE10deallocateERS5_PS4_m
FNDA:0,_ZNSt3__116allocator_traitsINS_9allocatorImEEE10deallocateERS2_Pmm
FNDA:0,_ZNSt3__116allocator_traitsINS_9allocatorINS_6vectorIbNS1_IbEEEEEEE9constructIS4_JRKS4_EEEvRS5_PT_DpOT0_
FNDA:0,_ZNSt3__116allocator_traitsINS_9allocatorINS_6vectorIbNS1_IbEEEEEEE9constructIS4_JRS4_EEEvRS5_PT_DpOT0_
FNDA:0,_ZNSt3__116allocator_traitsINS_9allocatorINS_6vectorIbNS1_IbEEEEEEE7destroyIS4_EEvRS5_PT_
FNDA:0,_ZNSt3__116allocator_traitsINS_9allocatorImEEE8max_sizeERKS2_
FNDA:0,_ZNSt3__116allocator_traitsINS_9allocatorINS_6vectorIbNS1_IbEEEEEEE8max_sizeERKS5_
FNDA:0,_ZNSt3__116allocator_traitsINS_9allocatorIcEEE8max_sizeERKS2_
FNDA:0,_ZNSt3__116allocator_traitsINS_9allocatorImEEE37select_on_container_copy_constructionERKS2_
FNDA:0,_ZNSt3__116allocator_traitsINS_9allocatorINS_6vectorIbNS1_IbEEEEEEE37select_on_container_copy_constructionERKS5_
FNDA:0,_ZNSt3__116allocator_traitsINS_9allocatorINS_6vectorIbNS1_IbEEEEEEE25__construct_range_forwardIPKS4_PS4_EEvRS5_T_SC_RT0_
FNDA:0,_ZNSt3__116allocator_traitsINS_9allocatorINS_6vectorIbNS1_IbEEEEEEE25__construct_range_forwardIPS4_S8_EEvRS5_T_SA_RT0_
FNDA:0,_ZNSt3__116allocator_traitsINS_9allocatorINS_6vectorIbNS1_IbEEEEEEE11__constructIS4_JRKS4_EEEvNS_17integral_constantIbLb1EEERS5_PT_DpOT0_
FNDA:0,_ZNSt3__116allocator_traitsINS_9allocatorINS_6vectorIbNS1_IbEEEEEEE11__constructIS4_JRS4_EEEvNS_17integral_constantIbLb1EEERS5_PT_DpOT0_
FNDA:0,_ZNSt3__116allocator_traitsINS_9allocatorINS_6vectorIbNS1_IbEEEEEEE9__destroyIS4_EEvNS_17integral_constantIbLb1EEERS5_PT_
FNDA:0,_ZNSt3__116allocator_traitsINS_9allocatorImEEE10__max_sizeENS_17integral_constantIbLb1EEERKS2_
FNDA:0,_ZNSt3__116allocator_traitsINS_9allocatorINS_6vectorIbNS1_IbEEEEEEE10__max_sizeENS_17integral_constantIbLb1EEERKS5_
FNDA:0,_ZNSt3__116allocator_traitsINS_9allocatorIcEEE10__max_sizeENS_17integral_constantIbLb1EEERKS2_
FNDA:0,_ZNSt3__116allocator_traitsINS_9allocatorImEEE39__select_on_container_copy_constructionENS_17integral_constantIbLb0EEERKS2_
FNDA:0,_ZNSt3__116allocator_traitsINS_9allocatorINS_6vectorIbNS1_IbEEEEEEE39__select_on_container_copy_constructionENS_17integral_constantIbLb0EEERKS5_
FNDA:28,_ZNSt3__19allocatorIcEC2Ev
FNDA:0,_ZNSt3__19allocatorImEC2Ev
FNDA:26,_ZNSt3__19allocatorINS_6vectorIbNS0_IbEEEEEC2Ev
FNDA:0,_ZNSt3__19allocatorImE8allocateEmPKv
FNDA:0,_ZNSt3__19allocatorINS_6vectorIbNS0_IbEEEEE8allocateEmPKv
FNDA:0,_ZNSt3__19allocatorIcE8allocateEmPKv
FNDA:0,_ZNSt3__19allocatorINS_6vectorIbNS0_IbEEEEE10deallocateEPS3_m
FNDA:0,_ZNSt3__19allocatorImE10deallocateEPmm
FNDA:0,_ZNKSt3__19allocatorImE8max_sizeEv
FNDA:0,_ZNKSt3__19allocatorINS_6vectorIbNS0_IbEEEEE8max_sizeEv
FNDA:0,_ZNKSt3__19allocatorIcE8max_sizeEv
FNDA:0,_ZNSt3__19allocatorINS_6vectorIbNS0_IbEEEEE9constructIS3_JRKS3_EEEvPT_DpOT0_
FNDA:0,_ZNSt3__19allocatorINS_6vectorIbNS0_IbEEEEE9constructIS3_JRS3_EEEvPT_DpOT0_
FNDA:0,_ZNSt3__19allocatorINS_6vectorIbNS0_IbEEEEE7destroyEPS3_
FNDA:28,_ZNSt3__122__compressed_pair_elemINS_12basic_stringIcNS_11char_traitsIcEENS_9allocatorIcEEE5__repELi0ELb0EEC2Ev
FNDA:0,_ZNSt3__122__compressed_pair_elemImLi0ELb0EEC2IivEEOT_
FNDA:26,_ZNSt3__122__compressed_pair_elemIPNS_6vectorIbNS_9allocatorIbEEEELi0ELb0EEC2IDnvEEOT_
FNDA:0,_ZNSt3__122__compressed_pair_elemImLi0ELb0EE5__getEv
FNDA:0,_ZNSt3__122__compressed_pair_elemIPNS_6vectorIbNS_9allocatorIbEEEELi0ELb0EE5__getEv
FNDA:0,_ZNSt3__122__compressed_pair_elemINS_12basic_stringIcNS_11char_traitsIcEENS_9allocatorIcEEE5__repELi0ELb0EE5__getEv
FNDA:0,_ZNKSt3__122__compressed_pair_elemIPNS_6vectorIbNS_9allocatorIbEEEELi0ELb0EE5__getEv
FNDA:0,_ZNKSt3__122__compressed_pair_elemINS_12basic_stringIcNS_11char_traitsIcEENS_9allocatorIcEEE5__repELi0ELb0EE5__getEv
FNDA:28,_ZNSt3__122__compressed_pair_elemINS_9allocatorIcEELi1ELb1EEC2Ev
FNDA:0,_ZNSt3__122__compressed_pair_elemINS_9allocatorImEELi1ELb1EEC2Ev
FNDA:26,_ZNSt3__122__compressed_pair_elemINS_9allocatorINS_6vectorIbNS1_IbEEEEEELi1ELb1EEC2Ev
FNDA:0,_ZNSt3__122__compressed_pair_elemINS_9allocatorImEELi1ELb1EEC2IS2_vEEOT_
FNDA:0,_ZNSt3__122__compressed_pair_elemINS_9allocatorINS_6vectorIbNS1_IbEEEEEELi1ELb1EEC2IRKS5_vEEOT_
FNDA:0,_ZNSt3__122__compressed_pair_elemINS_9allocatorIcEELi1ELb1EEC2IRKS2_vEEOT_
FNDA:0,_ZNSt3__122__compressed_pair_elemINS_9allocatorINS_6vectorIbNS1_IbEEEEEELi1ELb1EE5__getEv
FNDA:0,_ZNSt3__122__compressed_pair_elemINS_9allocatorImEELi1ELb1EE5__getEv
FNDA:0,_ZNSt3__122__compressed_pair_elemINS_9allocatorIcEELi1ELb1EE5__getEv
FNDA:0,_ZNKSt3__122__compressed_pair_elemINS_9allocatorImEELi1ELb1EE5__getEv
FNDA:0,_ZNKSt3__122__compressed_pair_elemINS_9allocatorINS_6vectorIbNS1_IbEEEEEELi1ELb1EE5__getEv
FNDA:0,_ZNKSt3__122__compressed_pair_elemINS_9allocatorIcEELi1ELb1EE5__getEv
FNDA:28,_ZNSt3__117__compressed_pairINS_12basic_stringIcNS_11char_traitsIcEENS_9allocatorIcEEE5__repES5_EC1ILb1EvEEv
FNDA:28,_ZNSt3__117__compressed_pairINS_12basic_stringIcNS_11char_traitsIcEENS_9allocatorIcEEE5__repES5_EC2ILb1EvEEv
FNDA:0,_ZNSt3__117__compressed_pairImNS_9allocatorImEEEC1IiLb1EEEOT_
FNDA:0,_ZNSt3__117__compressed_pairImNS_9allocatorImEEEC2IiLb1EEEOT_
FNDA:26,_ZNSt3__117__compressed_pairIPNS_6vectorIbNS_9allocatorIbEEEENS2_IS4_EEEC1IDnLb1EEEOT_
FNDA:26,_ZNSt3__117__compressed_pairIPNS_6vectorIbNS_9allocatorIbEEEENS2_IS4_EEEC2IDnLb1EEEOT_
FNDA:0,_ZNSt3__117__compressed_pairINS_12basic_stringIcNS_11char_traitsIcEENS_9allocatorIcEEE5__repES5_EC1IRKS5_EENS_12__second_tagEOT_
FNDA:0,_ZNSt3__117__compressed_pairINS_12basic_stringIcNS_11char_traitsIcEENS_9allocatorIcEEE5__repES5_EC2IRKS5_EENS_12__second_tagEOT_
FNDA:0,_ZNSt3__117__compressed_pairImNS_9allocatorImEEEC1IiS2_EEOT_OT0_
FNDA:0,_ZNSt3__117__compressed_pairImNS_9allocatorImEEEC2IiS2_EEOT_OT0_
FNDA:0,_ZNSt3__117__compressed_pairIPNS_6vectorIbNS_9allocatorIbEEEENS2_IS4_EEEC1IDnRKS6_EEOT_OT0_
FNDA:0,_ZNSt3__117__compressed_pairIPNS_6vectorIbNS_9allocatorIbEEEENS2_IS4_EEEC2IDnRKS6_EEOT_OT0_
FNDA:0,_ZNSt3__117__compressed_pairImNS_9allocatorImEEE5firstEv
FNDA:0,_ZNSt3__117__compressed_pairIPNS_6vectorIbNS_9allocatorIbEEEENS2_IS4_EEE5firstEv
FNDA:0,_ZNSt3__117__compressed_pairINS_12basic_stringIcNS_11char_traitsIcEENS_9allocatorIcEEE5__repES5_E5firstEv
FNDA:0,_ZNKSt3__117__compressed_pairIPNS_6vectorIbNS_9allocatorIbEEEENS2_IS4_EEE5firstEv
FNDA:0,_ZNKSt3__117__compressed_pairINS_12basic_stringIcNS_11char_traitsIcEENS_9allocatorIcEEE5__repES5_E5firstEv
FNDA:0,_ZNSt3__117__compressed_pairIPNS_6vectorIbNS_9allocatorIbEEEENS2_IS4_EEE6secondEv
FNDA:0,_ZNSt3__117__compressed_pairImNS_9allocatorImEEE6secondEv
FNDA:0,_ZNSt3__117__compressed_pairINS_12basic_stringIcNS_11char_traitsIcEENS_9allocatorIcEEE5__repES5_E6secondEv
FNDA:0,_ZNKSt3__117__compressed_pairImNS_9allocatorImEEE6secondEv
FNDA:0,_ZNKSt3__117__compressed_pairIPNS_6vectorIbNS_9allocatorIbEEEENS2_IS4_EEE6secondEv
FNDA:0,_ZNKSt3__117__compressed_pairINS_12basic_stringIcNS_11char_traitsIcEENS_9allocatorIcEEE5__repES5_E6secondEv
FNF:86
FNH:10
DA:979,0
DA:1097,0
DA:1502,0
DA:1510,0
DA:1516,0
DA:1517,0
DA:1550,0
DA:1554,0
DA:1559,0
DA:1560,0
DA:1561,0
DA:1599,0
DA:1600,0
DA:1601,0
DA:1670,0
DA:1682,0
DA:1692,0
DA:1704,0
DA:1736,54
DA:1744,0
DA:1745,0
DA:1747,0
DA:1750,0
DA:1752,0
DA:1759,0
DA:1760,0
DA:1814,0
DA:2043,28
DA:2051,26
DA:2064,0
DA:2066,0
DA:2080,54
DA:2088,0
DA:2102,0
DA:2104,0
DA:2134,56
DA:2141,52
DA:2146,0
DA:2151,0
DA:2180,0
DA:2185,0
DA:2190,0
DA:2195,0
LF:43
LH:6
end_of_record
SF:/Applications/Xcode.app/Contents/Developer/Toolchains/XcodeDefault.xctoolchain/usr/include/c++/v1/new
FN:222,_ZNSt3__110__allocateEm
FN:230,_ZNSt3__119__libcpp_deallocateEPv
FNDA:0,_ZNSt3__110__allocateEm
FNDA:0,_ZNSt3__119__libcpp_deallocateEPv
FNF:2
FNH:0
DA:226,0
DA:234,0
DA:236,0
LF:3
LH:0
end_of_record
SF:/Applications/Xcode.app/Contents/Developer/Toolchains/XcodeDefault.xctoolchain/usr/include/c++/v1/ostream
FN:236,_ZNSt3__113basic_ostreamIcNS_11char_traitsIcEEEC2Ev
FN:254,_ZNKSt3__113basic_ostreamIcNS_11char_traitsIcEEE6sentrycvbEv
FN:714,_ZNSt3__124__put_character_sequenceIcNS_11char_traitsIcEEEERNS_13basic_ostreamIT_T0_EES7_PKS4_m
FN:788,_ZNSt3__1lsINS_11char_traitsIcEEEERNS_13basic_ostreamIcT_EES6_c
FN:862,_ZNSt3__1lsINS_11char_traitsIcEEEERNS_13basic_ostreamIcT_EES6_PKc
FNDA:0,_ZNSt3__113basic_ostreamIcNS_11char_traitsIcEEEC2Ev
FNDA:0,_ZNKSt3__113basic_ostreamIcNS_11char_traitsIcEEE6sentrycvbEv
FNDA:0,_ZNSt3__124__put_character_sequenceIcNS_11char_traitsIcEEEERNS_13basic_ostreamIT_T0_EES7_PKS4_m
FNDA:0,_ZNSt3__1lsINS_11char_traitsIcEEEERNS_13basic_ostreamIcT_EES6_c
FNDA:0,_ZNSt3__1lsINS_11char_traitsIcEEEERNS_13basic_ostreamIcT_EES6_PKc
FNF:5
FNH:0
DA:236,0
DA:254,0
DA:721,0
DA:722,0
DA:725,0
DA:726,0
DA:727,0
DA:728,0
DA:729,0
DA:730,0
DA:731,0
DA:732,0
DA:733,0
DA:734,0
DA:736,0
DA:739,0
DA:740,0
DA:742,0
DA:743,0
DA:790,0
DA:864,0
LF:21
LH:0
end_of_record
SF:/Applications/Xcode.app/Contents/Developer/Toolchains/XcodeDefault.xctoolchain/usr/include/c++/v1/sstream
FN:242,_ZNSt3__115basic_stringbufIcNS_11char_traitsIcEENS_9allocatorIcEEEC1Ej
FN:242,_ZNSt3__115basic_stringbufIcNS_11char_traitsIcEENS_9allocatorIcEEEC2Ej
FN:439,_ZNKSt3__115basic_stringbufIcNS_11char_traitsIcEENS_9allocatorIcEEE3strEv
FN:454,_ZNSt3__115basic_stringbufIcNS_11char_traitsIcEENS_9allocatorIcEEE3strERKNS_12basic_stringIcS2_S4_EE
FN:479,_ZNSt3__115basic_stringbufIcNS_11char_traitsIcEENS_9allocatorIcEEE9underflowEv
FN:495,_ZNSt3__115basic_stringbufIcNS_11char_traitsIcEENS_9allocatorIcEEE9pbackfailEi
FN:519,_ZNSt3__115basic_stringbufIcNS_11char_traitsIcEENS_9allocatorIcEEE8overflowEi
FN:561,_ZNSt3__115basic_stringbufIcNS_11char_traitsIcEENS_9allocatorIcEEE7seekoffExNS_8ios_base7seekdirEj
FN:612,_ZNSt3__115basic_stringbufIcNS_11char_traitsIcEENS_9allocatorIcEEE7seekposENS_4fposI11__mbstate_tEEj
FN:900,_ZNSt3__118basic_stringstreamIcNS_11char_traitsIcEENS_9allocatorIcEEEC1Ej
FN:961,_ZNKSt3__118basic_stringstreamIcNS_11char_traitsIcEENS_9allocatorIcEEE3strEv
FNDA:0,_ZNSt3__115basic_stringbufIcNS_11char_traitsIcEENS_9allocatorIcEEEC1Ej
FNDA:0,_ZNSt3__115basic_stringbufIcNS_11char_traitsIcEENS_9allocatorIcEEEC2Ej
FNDA:0,_ZNKSt3__115basic_stringbufIcNS_11char_traitsIcEENS_9allocatorIcEEE3strEv
FNDA:0,_ZNSt3__115basic_stringbufIcNS_11char_traitsIcEENS_9allocatorIcEEE3strERKNS_12basic_stringIcS2_S4_EE
FNDA:0,_ZNSt3__115basic_stringbufIcNS_11char_traitsIcEENS_9allocatorIcEEE9underflowEv
FNDA:0,_ZNSt3__115basic_stringbufIcNS_11char_traitsIcEENS_9allocatorIcEEE9pbackfailEi
FNDA:0,_ZNSt3__115basic_stringbufIcNS_11char_traitsIcEENS_9allocatorIcEEE8overflowEi
FNDA:0,_ZNSt3__115basic_stringbufIcNS_11char_traitsIcEENS_9allocatorIcEEE7seekoffExNS_8ios_base7seekdirEj
FNDA:0,_ZNSt3__115basic_stringbufIcNS_11char_traitsIcEENS_9allocatorIcEEE7seekposENS_4fposI11__mbstate_tEEj
FNDA:0,_ZNSt3__118basic_stringstreamIcNS_11char_traitsIcEENS_9allocatorIcEEEC1Ej
FNDA:0,_ZNKSt3__118basic_stringstreamIcNS_11char_traitsIcEENS_9allocatorIcEEE3strEv
FNF:11
FNH:0
DA:213,0
DA:243,0
DA:244,0
DA:245,0
DA:246,0
DA:247,0
DA:441,0
DA:443,0
DA:444,0
DA:445,0
DA:447,0
DA:448,0
DA:449,0
DA:450,0
DA:456,0
DA:457,0
DA:458,0
DA:460,0
DA:461,0
DA:462,0
DA:463,0
DA:464,0
DA:465,0
DA:467,0
DA:468,0
DA:469,0
DA:470,0
DA:471,0
DA:472,0
DA:473,0
DA:474,0
DA:475,0
DA:481,0
DA:482,0
DA:483,0
DA:485,0
DA:486,0
DA:487,0
DA:488,0
DA:489,0
DA:490,0
DA:491,0
DA:497,0
DA:498,0
DA:499,0
DA:501,0
DA:503,0
DA:504,0
DA:506,0
DA:507,0
DA:509,0
DA:510,0
DA:511,0
DA:513,0
DA:514,0
DA:515,0
DA:521,0
DA:523,0
DA:524,0
DA:526,0
DA:527,0
DA:532,0
DA:533,0
DA:534,0
DA:535,0
DA:536,0
DA:537,0
DA:538,0
DA:539,0
DA:541,0
DA:544,0
DA:545,0
DA:547,0
DA:548,0
DA:549,0
DA:551,0
DA:552,0
DA:553,0
DA:554,0
DA:556,0
DA:557,0
DA:565,0
DA:566,0
DA:567,0
DA:568,0
DA:569,0
DA:570,0
DA:571,0
DA:573,0
DA:576,0
DA:577,0
DA:579,0
DA:580,0
DA:582,0
DA:583,0
DA:585,0
DA:586,0
DA:588,0
DA:590,0
DA:591,0
DA:592,0
DA:593,0
DA:595,0
DA:596,0
DA:597,0
DA:598,0
DA:599,0
DA:600,0
DA:601,0
DA:602,0
DA:604,0
DA:605,0
DA:606,0
DA:607,0
DA:608,0
DA:615,0
DA:876,0
DA:901,0
DA:902,0
DA:903,0
DA:904,0
DA:963,0
LF:122
LH:0
end_of_record
SF:/Applications/Xcode.app/Contents/Developer/Toolchains/XcodeDefault.xctoolchain/usr/include/c++/v1/stdexcept
FN:136,_ZNSt12length_errorC1EPKc
FN:136,_ZNSt12length_errorC2EPKc
FN:222,_ZNSt3__120__throw_length_errorEPKc
FNDA:0,_ZNSt12length_errorC1EPKc
FNDA:0,_ZNSt12length_errorC2EPKc
FNDA:0,_ZNSt3__120__throw_length_errorEPKc
FNF:3
FNH:0
DA:136,0
DA:225,0
DA:230,0
LF:3
LH:0
end_of_record
SF:/Applications/Xcode.app/Contents/Developer/Toolchains/XcodeDefault.xctoolchain/usr/include/c++/v1/streambuf
FN:218,_ZNSt3__115basic_streambufIcNS_11char_traitsIcEEE5sputcEc
FN:226,_ZNSt3__115basic_streambufIcNS_11char_traitsIcEEE5sputnEPKcl
FN:236,_ZNKSt3__115basic_streambufIcNS_11char_traitsIcEEE5ebackEv
FN:237,_ZNKSt3__115basic_streambufIcNS_11char_traitsIcEEE4gptrEv
FN:238,_ZNKSt3__115basic_streambufIcNS_11char_traitsIcEEE5egptrEv
FN:244,_ZNSt3__115basic_streambufIcNS_11char_traitsIcEEE4setgEPcS4_S4_
FN:251,_ZNKSt3__115basic_streambufIcNS_11char_traitsIcEEE5pbaseEv
FN:252,_ZNKSt3__115basic_streambufIcNS_11char_traitsIcEEE4pptrEv
FN:253,_ZNKSt3__115basic_streambufIcNS_11char_traitsIcEEE5epptrEv
FN:256,_ZNSt3__115basic_streambufIcNS_11char_traitsIcEEE5pbumpEi
FN:259,_ZNSt3__115basic_streambufIcNS_11char_traitsIcEEE4setpEPcS4_
FNDA:0,_ZNSt3__115basic_streambufIcNS_11char_traitsIcEEE5sputcEc
FNDA:0,_ZNSt3__115basic_streambufIcNS_11char_traitsIcEEE5sputnEPKcl
FNDA:0,_ZNKSt3__115basic_streambufIcNS_11char_traitsIcEEE5ebackEv
FNDA:0,_ZNKSt3__115basic_streambufIcNS_11char_traitsIcEEE4gptrEv
FNDA:0,_ZNKSt3__115basic_streambufIcNS_11char_traitsIcEEE5egptrEv
FNDA:0,_ZNSt3__115basic_streambufIcNS_11char_traitsIcEEE4setgEPcS4_S4_
FNDA:0,_ZNKSt3__115basic_streambufIcNS_11char_traitsIcEEE5pbaseEv
FNDA:0,_ZNKSt3__115basic_streambufIcNS_11char_traitsIcEEE4pptrEv
FNDA:0,_ZNKSt3__115basic_streambufIcNS_11char_traitsIcEEE5epptrEv
FNDA:0,_ZNSt3__115basic_streambufIcNS_11char_traitsIcEEE5pbumpEi
FNDA:0,_ZNSt3__115basic_streambufIcNS_11char_traitsIcEEE4setpEPcS4_
FNF:11
FNH:0
DA:219,0
DA:220,0
DA:221,0
DA:222,0
DA:223,0
DA:227,0
DA:236,0
DA:237,0
DA:238,0
DA:245,0
DA:246,0
DA:247,0
DA:248,0
DA:251,0
DA:252,0
DA:253,0
DA:256,0
DA:260,0
DA:261,0
DA:262,0
LF:20
LH:0
end_of_record
SF:/Applications/Xcode.app/Contents/Developer/Toolchains/XcodeDefault.xctoolchain/usr/include/c++/v1/string
FN:508,_ZNSt3__14fposI11__mbstate_tEC1Ex
FN:508,_ZNSt3__14fposI11__mbstate_tEC2Ex
FN:510,_ZNKSt3__14fposI11__mbstate_tEcvxEv
FN:888,_ZNKSt3__112basic_stringIcNS_11char_traitsIcEENS_9allocatorIcEEE4sizeEv
FN:892,_ZNKSt3__112basic_stringIcNS_11char_traitsIcEENS_9allocatorIcEEE8capacityEv
FN:897,_ZNSt3__112basic_stringIcNS_11char_traitsIcEENS_9allocatorIcEEE6resizeEm
FN:1127,_ZNKSt3__112basic_stringIcNS_11char_traitsIcEENS_9allocatorIcEEE5c_strEv
FN:1129,_ZNKSt3__112basic_stringIcNS_11char_traitsIcEENS_9allocatorIcEEE4dataEv
FN:1136,_ZNKSt3__112basic_stringIcNS_11char_traitsIcEENS_9allocatorIcEEE13get_allocatorEv
FN:1220,_ZNKSt3__112basic_stringIcNS_11char_traitsIcEENS_9allocatorIcEEE9__is_longEv
FN:1234,_ZNSt3__112basic_stringIcNS_11char_traitsIcEENS_9allocatorIcEEE7__allocEv
FN:1237,_ZNKSt3__112basic_stringIcNS_11char_traitsIcEENS_9allocatorIcEEE7__allocEv
FN:1261,_ZNSt3__112basic_stringIcNS_11char_traitsIcEENS_9allocatorIcEEE16__set_short_sizeEm
FN:1269,_ZNKSt3__112basic_stringIcNS_11char_traitsIcEENS_9allocatorIcEEE16__get_short_sizeEv
FN:1279,_ZNSt3__112basic_stringIcNS_11char_traitsIcEENS_9allocatorIcEEE15__set_long_sizeEm
FN:1282,_ZNKSt3__112basic_stringIcNS_11char_traitsIcEENS_9allocatorIcEEE15__get_long_sizeEv
FN:1289,_ZNSt3__112basic_stringIcNS_11char_traitsIcEENS_9allocatorIcEEE14__set_long_capEm
FN:1292,_ZNKSt3__112basic_stringIcNS_11char_traitsIcEENS_9allocatorIcEEE14__get_long_capEv
FN:1296,_ZNSt3__112basic_stringIcNS_11char_traitsIcEENS_9allocatorIcEEE18__set_long_pointerEPc
FN:1302,_ZNKSt3__112basic_stringIcNS_11char_traitsIcEENS_9allocatorIcEEE18__get_long_pointerEv
FN:1305,_ZNSt3__112basic_stringIcNS_11char_traitsIcEENS_9allocatorIcEEE19__get_short_pointerEv
FN:1308,_ZNKSt3__112basic_stringIcNS_11char_traitsIcEENS_9allocatorIcEEE19__get_short_pointerEv
FN:1314,_ZNKSt3__112basic_stringIcNS_11char_traitsIcEENS_9allocatorIcEEE13__get_pointerEv
FN:1318,_ZNSt3__112basic_stringIcNS_11char_traitsIcEENS_9allocatorIcEEE6__zeroEv
FN:1327,_ZNSt3__112basic_stringIcNS_11char_traitsIcEENS_9allocatorIcEEE10__align_itILm16EEEmm
FN:1331,_ZNSt3__112basic_stringIcNS_11char_traitsIcEENS_9allocatorIcEEE11__recommendEm
FN:1492,_ZNSt3__112basic_stringIcNS_11char_traitsIcEENS_9allocatorIcEEEC1Ev
FN:1492,_ZNSt3__112basic_stringIcNS_11char_traitsIcEENS_9allocatorIcEEEC2Ev
FN:1503,_ZNSt3__112basic_stringIcNS_11char_traitsIcEENS_9allocatorIcEEEC1ERKS4_
FN:1503,_ZNSt3__112basic_stringIcNS_11char_traitsIcEENS_9allocatorIcEEEC2ERKS4_
FN:1568,_ZNSt3__112basic_stringIcNS_11char_traitsIcEENS_9allocatorIcEEEC1EPKc
FN:1568,_ZNSt3__112basic_stringIcNS_11char_traitsIcEENS_9allocatorIcEEEC2EPKc
FN:1706,_ZNSt3__112basic_stringIcNS_11char_traitsIcEENS_9allocatorIcEEEC1Emc
FN:1706,_ZNSt3__112basic_stringIcNS_11char_traitsIcEENS_9allocatorIcEEEC2Emc
FN:1824,_ZNSt3__112basic_stringIcNS_11char_traitsIcEENS_9allocatorIcEEE6__initIPcEENS_9enable_ifIXsr21__is_forward_iteratorIT_EE5valueEvE4typeES9_S9_
FN:1862,_ZNSt3__112basic_stringIcNS_11char_traitsIcEENS_9allocatorIcEEEC2IPcEET_S8_RKS4_
FN:1862,_ZNSt3__112basic_stringIcNS_11char_traitsIcEENS_9allocatorIcEEEC1IPcEET_S8_RKS4_
FN:2870,_ZNKSt3__112basic_stringIcNS_11char_traitsIcEENS_9allocatorIcEEE8max_sizeEv
FNDA:0,_ZNSt3__14fposI11__mbstate_tEC1Ex
FNDA:0,_ZNSt3__14fposI11__mbstate_tEC2Ex
FNDA:0,_ZNKSt3__14fposI11__mbstate_tEcvxEv
FNDA:0,_ZNKSt3__112basic_stringIcNS_11char_traitsIcEENS_9allocatorIcEEE4sizeEv
FNDA:0,_ZNKSt3__112basic_stringIcNS_11char_traitsIcEENS_9allocatorIcEEE8capacityEv
FNDA:0,_ZNSt3__112basic_stringIcNS_11char_traitsIcEENS_9allocatorIcEEE6resizeEm
FNDA:0,_ZNKSt3__112basic_stringIcNS_11char_traitsIcEENS_9allocatorIcEEE5c_strEv
FNDA:0,_ZNKSt3__112basic_stringIcNS_11char_traitsIcEENS_9allocatorIcEEE4dataEv
FNDA:0,_ZNKSt3__112basic_stringIcNS_11char_traitsIcEENS_9allocatorIcEEE13get_allocatorEv
FNDA:0,_ZNKSt3__112basic_stringIcNS_11char_traitsIcEENS_9allocatorIcEEE9__is_longEv
FNDA:0,_ZNSt3__112basic_stringIcNS_11char_traitsIcEENS_9allocatorIcEEE7__allocEv
FNDA:0,_ZNKSt3__112basic_stringIcNS_11char_traitsIcEENS_9allocatorIcEEE7__allocEv
FNDA:0,_ZNSt3__112basic_stringIcNS_11char_traitsIcEENS_9allocatorIcEEE16__set_short_sizeEm
FNDA:0,_ZNKSt3__112basic_stringIcNS_11char_traitsIcEENS_9allocatorIcEEE16__get_short_sizeEv
FNDA:0,_ZNSt3__112basic_stringIcNS_11char_traitsIcEENS_9allocatorIcEEE15__set_long_sizeEm
FNDA:0,_ZNKSt3__112basic_stringIcNS_11char_traitsIcEENS_9allocatorIcEEE15__get_long_sizeEv
FNDA:0,_ZNSt3__112basic_stringIcNS_11char_traitsIcEENS_9allocatorIcEEE14__set_long_capEm
FNDA:0,_ZNKSt3__112basic_stringIcNS_11char_traitsIcEENS_9allocatorIcEEE14__get_long_capEv
FNDA:0,_ZNSt3__112basic_stringIcNS_11char_traitsIcEENS_9allocatorIcEEE18__set_long_pointerEPc
FNDA:0,_ZNKSt3__112basic_stringIcNS_11char_traitsIcEENS_9allocatorIcEEE18__get_long_pointerEv
FNDA:0,_ZNSt3__112basic_stringIcNS_11char_traitsIcEENS_9allocatorIcEEE19__get_short_pointerEv
FNDA:0,_ZNKSt3__112basic_stringIcNS_11char_traitsIcEENS_9allocatorIcEEE19__get_short_pointerEv
FNDA:0,_ZNKSt3__112basic_stringIcNS_11char_traitsIcEENS_9allocatorIcEEE13__get_pointerEv
FNDA:0,_ZNSt3__112basic_stringIcNS_11char_traitsIcEENS_9allocatorIcEEE6__zeroEv
FNDA:0,_ZNSt3__112basic_stringIcNS_11char_traitsIcEENS_9allocatorIcEEE10__align_itILm16EEEmm
FNDA:0,_ZNSt3__112basic_stringIcNS_11char_traitsIcEENS_9allocatorIcEEE11__recommendEm
FNDA:0,_ZNSt3__112basic_stringIcNS_11char_traitsIcEENS_9allocatorIcEEEC1Ev
FNDA:0,_ZNSt3__112basic_stringIcNS_11char_traitsIcEENS_9allocatorIcEEEC2Ev
FNDA:0,_ZNSt3__112basic_stringIcNS_11char_traitsIcEENS_9allocatorIcEEEC1ERKS4_
FNDA:0,_ZNSt3__112basic_stringIcNS_11char_traitsIcEENS_9allocatorIcEEEC2ERKS4_
FNDA:28,_ZNSt3__112basic_stringIcNS_11char_traitsIcEENS_9allocatorIcEEEC1EPKc
FNDA:28,_ZNSt3__112basic_stringIcNS_11char_traitsIcEENS_9allocatorIcEEEC2EPKc
FNDA:0,_ZNSt3__112basic_stringIcNS_11char_traitsIcEENS_9allocatorIcEEEC1Emc
FNDA:0,_ZNSt3__112basic_stringIcNS_11char_traitsIcEENS_9allocatorIcEEEC2Emc
FNDA:0,_ZNSt3__112basic_stringIcNS_11char_traitsIcEENS_9allocatorIcEEE6__initIPcEENS_9enable_ifIXsr21__is_forward_iteratorIT_EE5valueEvE4typeES9_S9_
FNDA:0,_ZNSt3__112basic_stringIcNS_11char_traitsIcEENS_9allocatorIcEEEC1IPcEET_S8_RKS4_
FNDA:0,_ZNSt3__112basic_stringIcNS_11char_traitsIcEENS_9allocatorIcEEEC2IPcEET_S8_RKS4_
FNDA:0,_ZNKSt3__112basic_stringIcNS_11char_traitsIcEENS_9allocatorIcEEE8max_sizeEv
FNF:38
FNH:2
DA:508,0
DA:510,0
DA:750,0
DA:775,28
DA:783,0
DA:889,0
DA:893,0
DA:894,0
DA:897,0
DA:1127,0
DA:1129,0
DA:1136,0
DA:1221,0
DA:1235,0
DA:1238,0
DA:1265,0
DA:1273,0
DA:1280,0
DA:1283,0
DA:1290,0
DA:1293,0
DA:1297,0
DA:1303,0
DA:1306,0
DA:1309,0
DA:1315,0
DA:1320,0
DA:1321,0
DA:1322,0
DA:1323,0
DA:1328,0
DA:1332,0
DA:1333,0
DA:1334,0
DA:1494,0
DA:1498,0
DA:1499,0
DA:1509,0
DA:1510,0
DA:1514,0
DA:1515,0
DA:1569,56
DA:1571,28
DA:1575,56
DA:1707,0
DA:1708,0
DA:1712,0
DA:1826,0
DA:1827,0
DA:1828,0
DA:1830,0
DA:1832,0
DA:1833,0
DA:1834,0
DA:1837,0
DA:1838,0
DA:1839,0
DA:1840,0
DA:1841,0
DA:1843,0
DA:1844,0
DA:1845,0
DA:1846,0
DA:1864,0
DA:1865,0
DA:1866,0
DA:1870,0
DA:2872,0
DA:2876,0
LF:69
LH:4
end_of_record
SF:/Applications/Xcode.app/Contents/Developer/Toolchains/XcodeDefault.xctoolchain/usr/include/c++/v1/type_traits
FN:437,_ZNSt3__19addressofIcEEPT_RS1_
FN:437,_ZNSt3__19addressofIKcEEPT_RS2_
FN:2219,_ZNSt3__17forwardINS_9allocatorImEEEEOT_RNS_16remove_referenceIS3_E4typeE
FN:2219,_ZNSt3__17forwardIRKNS_6vectorIbNS_9allocatorIbEEEEEEOT_RNS_16remove_referenceIS7_E4typeE
FN:2219,_ZNSt3__17forwardIRKNS_9allocatorINS_6vectorIbNS1_IbEEEEEEEEOT_RNS_16remove_referenceIS8_E4typeE
FN:2219,_ZNSt3__17forwardIRNS_6vectorIbNS_9allocatorIbEEEEEEOT_RNS_16remove_referenceIS6_E4typeE
FN:2219,_ZNSt3__17forwardIiEEOT_RNS_16remove_referenceIS1_E4typeE
FN:2219,_ZNSt3__17forwardIRKNS_9allocatorIcEEEEOT_RNS_16remove_referenceIS5_E4typeE
FN:2219,_ZNSt3__17forwardIDnEEOT_RNS_16remove_referenceIS1_E4typeE
FNDA:0,_ZNSt3__19addressofIKcEEPT_RS2_
FNDA:0,_ZNSt3__19addressofIcEEPT_RS1_
FNDA:0,_ZNSt3__17forwardIiEEOT_RNS_16remove_referenceIS1_E4typeE
FNDA:52,_ZNSt3__17forwardIDnEEOT_RNS_16remove_referenceIS1_E4typeE
FNDA:0,_ZNSt3__17forwardIRKNS_6vectorIbNS_9allocatorIbEEEEEEOT_RNS_16remove_referenceIS7_E4typeE
FNDA:0,_ZNSt3__17forwardINS_9allocatorImEEEEOT_RNS_16remove_referenceIS3_E4typeE
FNDA:0,_ZNSt3__17forwardIRKNS_9allocatorINS_6vectorIbNS1_IbEEEEEEEEOT_RNS_16remove_referenceIS8_E4typeE
FNDA:0,_ZNSt3__17forwardIRNS_6vectorIbNS_9allocatorIbEEEEEEOT_RNS_16remove_referenceIS6_E4typeE
FNDA:0,_ZNSt3__17forwardIRKNS_9allocatorIcEEEEOT_RNS_16remove_referenceIS5_E4typeE
FNF:9
FNH:1
DA:439,0
DA:2221,52
LF:2
LH:1
end_of_record
SF:/Applications/Xcode.app/Contents/Developer/Toolchains/XcodeDefault.xctoolchain/usr/include/c++/v1/vector
FN:294,_ZNSt3__120__vector_base_commonILb1EEC2Ev
FN:337,_ZNSt3__113__vector_baseINS_6vectorIbNS_9allocatorIbEEEENS2_IS4_EEE7__allocEv
FN:340,_ZNKSt3__113__vector_baseINS_6vectorIbNS_9allocatorIbEEEENS2_IS4_EEE7__allocEv
FN:343,_ZNSt3__113__vector_baseINS_6vectorIbNS_9allocatorIbEEEENS2_IS4_EEE9__end_capEv
FN:346,_ZNKSt3__113__vector_baseINS_6vectorIbNS_9allocatorIbEEEENS2_IS4_EEE9__end_capEv
FN:356,_ZNSt3__113__vector_baseINS_6vectorIbNS_9allocatorIbEEEENS2_IS4_EEE5clearEv
FN:358,_ZNKSt3__113__vector_baseINS_6vectorIbNS_9allocatorIbEEEENS2_IS4_EEE8capacityEv
FN:409,_ZNSt3__113__vector_baseINS_6vectorIbNS_9allocatorIbEEEENS2_IS4_EEE17__destruct_at_endEPS4_
FN:419,_ZNSt3__113__vector_baseINS_6vectorIbNS_9allocatorIbEEEENS2_IS4_EEEC2Ev
FN:429,_ZNSt3__113__vector_baseINS_6vectorIbNS_9allocatorIbEEEENS2_IS4_EEEC2ERKS5_
FN:437,_ZNSt3__113__vector_baseINS_6vectorIbNS_9allocatorIbEEEENS2_IS4_EEED2Ev
FN:447,_ZNSt3__16vectorINS0_IbNS_9allocatorIbEEEENS1_IS3_EEED2Ev
FN:447,_ZNSt3__16vectorINS0_IbNS_9allocatorIbEEEENS1_IS3_EEED1Ev
FN:632,_ZNKSt3__16vectorINS0_IbNS_9allocatorIbEEEENS1_IS3_EEE4sizeEv
FN:635,_ZNKSt3__16vectorINS0_IbNS_9allocatorIbEEEENS1_IS3_EEE8capacityEv
FN:674,_ZNKSt3__16vectorINS0_IbNS_9allocatorIbEEEENS1_IS3_EEE4dataEv
FN:827,_ZNKSt3__16vectorINS0_IbNS_9allocatorIbEEEENS1_IS3_EEE31__annotate_contiguous_containerEPKvS7_S7_S7_
FN:831,_ZNKSt3__16vectorINS0_IbNS_9allocatorIbEEEENS1_IS3_EEE14__annotate_newEm
FN:875,_ZNSt3__16vectorINS0_IbNS_9allocatorIbEEEENS1_IS3_EEE24__RAII_IncreaseAnnotatorC1ERKS5_m
FN:875,_ZNSt3__16vectorINS0_IbNS_9allocatorIbEEEENS1_IS3_EEE24__RAII_IncreaseAnnotatorC2ERKS5_m
FN:876,_ZNSt3__16vectorINS0_IbNS_9allocatorIbEEEENS1_IS3_EEE24__RAII_IncreaseAnnotator6__doneEv
FN:922,_ZNSt3__16vectorINS0_IbNS_9allocatorIbEEEENS1_IS3_EEE8allocateEm
FN:945,_ZNKSt3__16vectorINS0_IbNS_9allocatorIbEEEENS1_IS3_EEE8max_sizeEv
FN:1015,_ZNSt3__16vectorINS0_IbNS_9allocatorIbEEEENS1_IS3_EEE18__construct_at_endIPKS3_EENS_9enable_ifIXsr21__is_forward_iteratorIT_EE5valueEvE4typeESA_SA_m
FN:1015,_ZNSt3__16vectorINS0_IbNS_9allocatorIbEEEENS1_IS3_EEE18__construct_at_endIPS3_EENS_9enable_ifIXsr21__is_forward_iteratorIT_EE5valueEvE4typeES9_S9_m
FN:1192,_ZNSt3__16vectorINS0_IbNS_9allocatorIbEEEENS1_IS3_EEEC1ERKS5_
FN:1192,_ZNSt3__16vectorINS0_IbNS_9allocatorIbEEEENS1_IS3_EEEC2ERKS5_
FN:1270,_ZNSt3__16vectorINS0_IbNS_9allocatorIbEEEENS1_IS3_EEEC2ESt16initializer_listIS3_E
FN:1270,_ZNSt3__16vectorINS0_IbNS_9allocatorIbEEEENS1_IS3_EEEC1ESt16initializer_listIS3_E
FN:1446,_ZNKSt3__16vectorINS0_IbNS_9allocatorIbEEEENS1_IS3_EEE11__make_iterEPKS3_
FN:1466,_ZNKSt3__16vectorINS0_IbNS_9allocatorIbEEEENS1_IS3_EEE5beginEv
FN:1482,_ZNKSt3__16vectorINS0_IbNS_9allocatorIbEEEENS1_IS3_EEE3endEv
FN:2169,_ZNSt3__16vectorIbNS_9allocatorIbEEE5__capEv
FN:2175,_ZNSt3__16vectorIbNS_9allocatorIbEEE7__allocEv
FN:2178,_ZNKSt3__16vectorIbNS_9allocatorIbEEE7__allocEv
FN:2184,_ZNSt3__16vectorIbNS_9allocatorIbEEE26__internal_cap_to_externalEm
FN:2187,_ZNSt3__16vectorIbNS_9allocatorIbEEE26__external_cap_to_internalEm
FN:2280,_ZNKSt3__16vectorIbNS_9allocatorIbEEE4sizeEv
FN:2292,_ZNKSt3__16vectorIbNS_9allocatorIbEEE5beginEv
FN:2298,_ZNKSt3__16vectorIbNS_9allocatorIbEEE3endEv
FN:2430,_ZNSt3__16vectorIbNS_9allocatorIbEEE11__make_iterEm
FN:2433,_ZNKSt3__16vectorIbNS_9allocatorIbEEE11__make_iterEm
FN:2490,_ZNSt3__16vectorIbNS_9allocatorIbEEE26__invalidate_all_iteratorsEv
FN:2503,_ZNSt3__16vectorIbNS_9allocatorIbEEE8allocateEm
FN:2528,_ZNKSt3__16vectorIbNS_9allocatorIbEEE8max_sizeEv
FN:2573,_ZNSt3__16vectorIbNS_9allocatorIbEEE18__construct_at_endINS_14__bit_iteratorIS3_Lb1ELm0EEEEENS_9enable_ifIXsr21__is_forward_iteratorIT_EE5valueEvE4typeES8_S8_
FN:2573,_ZNSt3__16vectorIbNS_9allocatorIbEEE18__construct_at_endIPKbEENS_9enable_ifIXsr21__is_forward_iteratorIT_EE5valueEvE4typeES8_S8_
FN:2747,_ZNSt3__16vectorIbNS_9allocatorIbEEEC2ESt16initializer_listIbE
FN:2747,_ZNSt3__16vectorIbNS_9allocatorIbEEEC1ESt16initializer_listIbE
FN:2777,_ZNSt3__16vectorIbNS_9allocatorIbEEED1Ev
FN:2777,_ZNSt3__16vectorIbNS_9allocatorIbEEED2Ev
FN:2785,_ZNSt3__16vectorIbNS_9allocatorIbEEEC1ERKS3_
FN:2785,_ZNSt3__16vectorIbNS_9allocatorIbEEEC2ERKS3_
FN:3298,_ZNSt3__1eqINS_6vectorIbNS_9allocatorIbEEEENS2_IS4_EEEEbRKNS1_IT_T0_EESA_
FN:3298,_ZNSt3__1eqIbNS_9allocatorIbEEEEbRKNS_6vectorIT_T0_EES8_
FNDA:26,_ZNSt3__120__vector_base_commonILb1EEC2Ev
FNDA:0,_ZNSt3__113__vector_baseINS_6vectorIbNS_9allocatorIbEEEENS2_IS4_EEE7__allocEv
FNDA:0,_ZNKSt3__113__vector_baseINS_6vectorIbNS_9allocatorIbEEEENS2_IS4_EEE7__allocEv
FNDA:0,_ZNSt3__113__vector_baseINS_6vectorIbNS_9allocatorIbEEEENS2_IS4_EEE9__end_capEv
FNDA:0,_ZNKSt3__113__vector_baseINS_6vectorIbNS_9allocatorIbEEEENS2_IS4_EEE9__end_capEv
FNDA:0,_ZNSt3__113__vector_baseINS_6vectorIbNS_9allocatorIbEEEENS2_IS4_EEE5clearEv
FNDA:0,_ZNKSt3__113__vector_baseINS_6vectorIbNS_9allocatorIbEEEENS2_IS4_EEE8capacityEv
FNDA:0,_ZNSt3__113__vector_baseINS_6vectorIbNS_9allocatorIbEEEENS2_IS4_EEE17__destruct_at_endEPS4_
FNDA:26,_ZNSt3__113__vector_baseINS_6vectorIbNS_9allocatorIbEEEENS2_IS4_EEEC2Ev
FNDA:0,_ZNSt3__113__vector_baseINS_6vectorIbNS_9allocatorIbEEEENS2_IS4_EEEC2ERKS5_
FNDA:0,_ZNSt3__113__vector_baseINS_6vectorIbNS_9allocatorIbEEEENS2_IS4_EEED2Ev
FNDA:0,_ZNSt3__16vectorINS0_IbNS_9allocatorIbEEEENS1_IS3_EEED1Ev
FNDA:0,_ZNSt3__16vectorINS0_IbNS_9allocatorIbEEEENS1_IS3_EEED2Ev
FNDA:56,_ZNKSt3__16vectorINS0_IbNS_9allocatorIbEEEENS1_IS3_EEE4sizeEv
FNDA:0,_ZNKSt3__16vectorINS0_IbNS_9allocatorIbEEEENS1_IS3_EEE8capacityEv
FNDA:0,_ZNKSt3__16vectorINS0_IbNS_9allocatorIbEEEENS1_IS3_EEE4dataEv
FNDA:0,_ZNKSt3__16vectorINS0_IbNS_9allocatorIbEEEENS1_IS3_EEE31__annotate_contiguous_containerEPKvS7_S7_S7_
FNDA:0,_ZNKSt3__16vectorINS0_IbNS_9allocatorIbEEEENS1_IS3_EEE14__annotate_newEm
FNDA:0,_ZNSt3__16vectorINS0_IbNS_9allocatorIbEEEENS1_IS3_EEE24__RAII_IncreaseAnnotatorC1ERKS5_m
FNDA:0,_ZNSt3__16vectorINS0_IbNS_9allocatorIbEEEENS1_IS3_EEE24__RAII_IncreaseAnnotatorC2ERKS5_m
FNDA:0,_ZNSt3__16vectorINS0_IbNS_9allocatorIbEEEENS1_IS3_EEE24__RAII_IncreaseAnnotator6__doneEv
FNDA:0,_ZNSt3__16vectorINS0_IbNS_9allocatorIbEEEENS1_IS3_EEE8allocateEm
FNDA:0,_ZNKSt3__16vectorINS0_IbNS_9allocatorIbEEEENS1_IS3_EEE8max_sizeEv
FNDA:0,_ZNSt3__16vectorINS0_IbNS_9allocatorIbEEEENS1_IS3_EEE18__construct_at_endIPKS3_EENS_9enable_ifIXsr21__is_forward_iteratorIT_EE5valueEvE4typeESA_SA_m
FNDA:0,_ZNSt3__16vectorINS0_IbNS_9allocatorIbEEEENS1_IS3_EEE18__construct_at_endIPS3_EENS_9enable_ifIXsr21__is_forward_iteratorIT_EE5valueEvE4typeES9_S9_m
FNDA:0,_ZNSt3__16vectorINS0_IbNS_9allocatorIbEEEENS1_IS3_EEEC1ERKS5_
FNDA:0,_ZNSt3__16vectorINS0_IbNS_9allocatorIbEEEENS1_IS3_EEEC2ERKS5_
FNDA:26,_ZNSt3__16vectorINS0_IbNS_9allocatorIbEEEENS1_IS3_EEEC1ESt16initializer_listIS3_E
FNDA:26,_ZNSt3__16vectorINS0_IbNS_9allocatorIbEEEENS1_IS3_EEEC2ESt16initializer_listIS3_E
FNDA:84,_ZNKSt3__16vectorINS0_IbNS_9allocatorIbEEEENS1_IS3_EEE11__make_iterEPKS3_
FNDA:56,_ZNKSt3__16vectorINS0_IbNS_9allocatorIbEEEENS1_IS3_EEE5beginEv
FNDA:28,_ZNKSt3__16vectorINS0_IbNS_9allocatorIbEEEENS1_IS3_EEE3endEv
FNDA:0,_ZNSt3__16vectorIbNS_9allocatorIbEEE5__capEv
FNDA:0,_ZNSt3__16vectorIbNS_9allocatorIbEEE7__allocEv
FNDA:0,_ZNKSt3__16vectorIbNS_9allocatorIbEEE7__allocEv
FNDA:0,_ZNSt3__16vectorIbNS_9allocatorIbEEE26__internal_cap_to_externalEm
FNDA:0,_ZNSt3__16vectorIbNS_9allocatorIbEEE26__external_cap_to_internalEm
FNDA:168,_ZNKSt3__16vectorIbNS_9allocatorIbEEE4sizeEv
FNDA:168,_ZNKSt3__16vectorIbNS_9allocatorIbEEE5beginEv
FNDA:84,_ZNKSt3__16vectorIbNS_9allocatorIbEEE3endEv
FNDA:0,_ZNSt3__16vectorIbNS_9allocatorIbEEE11__make_iterEm
FNDA:252,_ZNKSt3__16vectorIbNS_9allocatorIbEEE11__make_iterEm
FNDA:0,_ZNSt3__16vectorIbNS_9allocatorIbEEE26__invalidate_all_iteratorsEv
FNDA:0,_ZNSt3__16vectorIbNS_9allocatorIbEEE8allocateEm
FNDA:0,_ZNKSt3__16vectorIbNS_9allocatorIbEEE8max_sizeEv
FNDA:0,_ZNSt3__16vectorIbNS_9allocatorIbEEE18__construct_at_endIPKbEENS_9enable_ifIXsr21__is_forward_iteratorIT_EE5valueEvE4typeES8_S8_
FNDA:0,_ZNSt3__16vectorIbNS_9allocatorIbEEE18__construct_at_endINS_14__bit_iteratorIS3_Lb1ELm0EEEEENS_9enable_ifIXsr21__is_forward_iteratorIT_EE5valueEvE4typeES8_S8_
FNDA:0,_ZNSt3__16vectorIbNS_9allocatorIbEEEC1ESt16initializer_listIbE
FNDA:0,_ZNSt3__16vectorIbNS_9allocatorIbEEEC2ESt16initializer_listIbE
FNDA:0,_ZNSt3__16vectorIbNS_9allocatorIbEEED1Ev
FNDA:0,_ZNSt3__16vectorIbNS_9allocatorIbEEED2Ev
FNDA:0,_ZNSt3__16vectorIbNS_9allocatorIbEEEC1ERKS3_
FNDA:0,_ZNSt3__16vectorIbNS_9allocatorIbEEEC2ERKS3_
FNDA:28,_ZNSt3__1eqINS_6vectorIbNS_9allocatorIbEEEENS2_IS4_EEEEbRKNS1_IT_T0_EESA_
FNDA:84,_ZNSt3__1eqIbNS_9allocatorIbEEEEbRKNS_6vectorIT_T0_EES8_
FNF:55
FNH:14
DA:294,26
DA:338,0
DA:341,0
DA:344,0
DA:347,0
DA:350,26
DA:352,0
DA:356,0
DA:359,0
DA:411,0
DA:412,0
DA:413,0
DA:414,0
DA:415,0
DA:421,26
DA:422,26
DA:423,26
DA:424,26
DA:425,26
DA:430,0
DA:431,0
DA:432,0
DA:433,0
DA:434,0
DA:439,0
DA:441,0
DA:442,0
DA:443,0
DA:444,0
DA:447,0
DA:541,26
DA:633,56
DA:636,0
DA:675,0
DA:828,0
DA:832,0
DA:833,0
DA:834,0
DA:875,0
DA:876,0
DA:924,0
DA:925,0
DA:926,0
DA:927,0
DA:928,0
DA:929,0
DA:947,0
DA:948,0
DA:1017,0
DA:1018,0
DA:1019,0
DA:1020,0
DA:1021,0
DA:1193,0
DA:1194,0
DA:1198,0
DA:1199,0
DA:1201,0
DA:1202,0
DA:1203,0
DA:1204,0
DA:1271,52
DA:1275,26
DA:1277,26
DA:1278,26
DA:1279,26
DA:1280,52
DA:1451,84
DA:1468,56
DA:1484,28
DA:2170,0
DA:2176,0
DA:2179,0
DA:2185,0
DA:2188,0
DA:2222,0
DA:2227,0
DA:2281,168
DA:2293,168
DA:2299,84
DA:2431,0
DA:2434,252
DA:2492,0
DA:2505,0
DA:2506,0
DA:2507,0
DA:2508,0
DA:2509,0
DA:2510,0
DA:2511,0
DA:2530,0
DA:2531,0
DA:2532,0
DA:2533,0
DA:2534,0
DA:2535,0
DA:2575,0
DA:2576,0
DA:2577,0
DA:2578,0
DA:2748,0
DA:2749,0
DA:2750,0
DA:2751,0
DA:2752,0
DA:2753,0
DA:2755,0
DA:2756,0
DA:2757,0
DA:2758,0
DA:2778,0
DA:2779,0
DA:2780,0
DA:2781,0
DA:2782,0
DA:2786,0
DA:2787,0
DA:2788,0
DA:2789,0
DA:2790,0
DA:2792,0
DA:2793,0
DA:2794,0
DA:2795,0
DA:3300,112
DA:3301,336
LF:126
LH:24
end_of_record
SF:/Users/vpomsztein/Documents/PrivateRepositories/Algoritmos1/TPI/juegoDeLaVida/lib/googletest-master/googletest/include/gtest/gtest-message.h
FN:85,_ZN7testing7MessageD1Ev
FN:85,_ZN7testing7MessageD2Ev
FNDA:0,_ZN7testing7MessageD1Ev
FNDA:0,_ZN7testing7MessageD2Ev
FNF:2
FNH:0
DA:85,0
LF:1
LH:0
end_of_record
SF:/Users/vpomsztein/Documents/PrivateRepositories/Algoritmos1/TPI/juegoDeLaVida/lib/googletest-master/googletest/include/gtest/gtest-printers.h
FN:172,_ZN7testing9internal220TypeWithoutFormatterINSt3__121__bit_const_referenceINS2_6vectorIbNS2_9allocatorIbEEEEEELNS0_8TypeKindE1EE10PrintValueERKS8_PNS2_13basic_ostreamIcNS2_11char_traitsIcEEEE
FN:203,_ZN7testing9internal2lsIcNSt3__111char_traitsIcEENS2_21__bit_const_referenceINS2_6vectorIbNS2_9allocatorIbEEEEEEEERNS2_13basic_ostreamIT_T0_EESF_RKT1_
FN:222,_ZN16testing_internal26DefaultPrintNonContainerToINSt3__121__bit_const_referenceINS1_6vectorIbNS1_9allocatorIbEEEEEEEEvRKT_PNS1_13basic_ostreamIcNS1_11char_traitsIcEEEE
FN:275,_ZN7testing8internal19FormatForComparisonINSt3__16vectorINS3_IbNS2_9allocatorIbEEEENS4_IS6_EEEES8_E6FormatERKS8_
FN:349,_ZN7testing8internal33FormatForComparisonFailureMessageINSt3__16vectorINS3_IbNS2_9allocatorIbEEEENS4_IS6_EEEES8_EENS2_12basic_stringIcNS2_11char_traitsIcEENS4_IcEEEERKT_RKT0_
FN:378,_ZN7testing8internal14DefaultPrintToINSt3__16vectorINS3_IbNS2_9allocatorIbEEEENS4_IS6_EEEEEEvNS0_15WrapPrinterTypeILNS0_18DefaultPrinterTypeE0EEERKT_PNS2_13basic_ostreamIcNS2_11char_traitsIcEEEE
FN:378,_ZN7testing8internal14DefaultPrintToINSt3__16vectorIbNS2_9allocatorIbEEEEEEvNS0_15WrapPrinterTypeILNS0_18DefaultPrinterTypeE0EEERKT_PNS2_13basic_ostreamIcNS2_11char_traitsIcEEEE
FN:442,_ZN7testing8internal14DefaultPrintToINSt3__121__bit_const_referenceINS2_6vectorIbNS2_9allocatorIbEEEEEEEEvNS0_15WrapPrinterTypeILNS0_18DefaultPrinterTypeE3EEERKT_PNS2_13basic_ostreamIcNS2_11char_traitsIcEEEE
FN:459,_ZN7testing8internal7PrintToINSt3__16vectorINS3_IbNS2_9allocatorIbEEEENS4_IS6_EEEEEEvRKT_PNS2_13basic_ostreamIcNS2_11char_traitsIcEEEE
FN:459,_ZN7testing8internal7PrintToINSt3__16vectorIbNS2_9allocatorIbEEEEEEvRKT_PNS2_13basic_ostreamIcNS2_11char_traitsIcEEEE
FN:459,_ZN7testing8internal7PrintToINSt3__121__bit_const_referenceINS2_6vectorIbNS2_9allocatorIbEEEEEEEEvRKT_PNS2_13basic_ostreamIcNS2_11char_traitsIcEEEE
FN:714,_ZN7testing8internal16UniversalPrinterINSt3__16vectorINS3_IbNS2_9allocatorIbEEEENS4_IS6_EEEEE5PrintERKS8_PNS2_13basic_ostreamIcNS2_11char_traitsIcEEEE
FN:714,_ZN7testing8internal16UniversalPrinterINSt3__16vectorIbNS2_9allocatorIbEEEEE5PrintERKS6_PNS2_13basic_ostreamIcNS2_11char_traitsIcEEEE
FN:714,_ZN7testing8internal16UniversalPrinterINSt3__121__bit_const_referenceINS2_6vectorIbNS2_9allocatorIbEEEEEEE5PrintERKS8_PNS2_13basic_ostreamIcNS2_11char_traitsIcEEEE
FN:799,_ZN7testing8internal21UniversalTersePrinterINSt3__16vectorINS3_IbNS2_9allocatorIbEEEENS4_IS6_EEEEE5PrintERKS8_PNS2_13basic_ostreamIcNS2_11char_traitsIcEEEE
FN:868,_ZN7testing8internal14UniversalPrintINSt3__16vectorIbNS2_9allocatorIbEEEEEEvRKT_PNS2_13basic_ostreamIcNS2_11char_traitsIcEEEE
FN:868,_ZN7testing8internal14UniversalPrintINSt3__121__bit_const_referenceINS2_6vectorIbNS2_9allocatorIbEEEEEEEEvRKT_PNS2_13basic_ostreamIcNS2_11char_traitsIcEEEE
FN:868,_ZN7testing8internal14UniversalPrintINSt3__16vectorINS3_IbNS2_9allocatorIbEEEENS4_IS6_EEEEEEvRKT_PNS2_13basic_ostreamIcNS2_11char_traitsIcEEEE
FN:996,_ZN7testing13PrintToStringINSt3__16vectorINS2_IbNS1_9allocatorIbEEEENS3_IS5_EEEEEENS1_12basic_stringIcNS1_11char_traitsIcEENS3_IcEEEERKT_
FNDA:0,_ZN7testing9internal220TypeWithoutFormatterINSt3__121__bit_const_referenceINS2_6vectorIbNS2_9allocatorIbEEEEEELNS0_8TypeKindE1EE10PrintValueERKS8_PNS2_13basic_ostreamIcNS2_11char_traitsIcEEEE
FNDA:0,_ZN7testing9internal2lsIcNSt3__111char_traitsIcEENS2_21__bit_const_referenceINS2_6vectorIbNS2_9allocatorIbEEEEEEEERNS2_13basic_ostreamIT_T0_EESF_RKT1_
FNDA:0,_ZN16testing_internal26DefaultPrintNonContainerToINSt3__121__bit_const_referenceINS1_6vectorIbNS1_9allocatorIbEEEEEEEEvRKT_PNS1_13basic_ostreamIcNS1_11char_traitsIcEEEE
FNDA:0,_ZN7testing8internal19FormatForComparisonINSt3__16vectorINS3_IbNS2_9allocatorIbEEEENS4_IS6_EEEES8_E6FormatERKS8_
FNDA:0,_ZN7testing8internal33FormatForComparisonFailureMessageINSt3__16vectorINS3_IbNS2_9allocatorIbEEEENS4_IS6_EEEES8_EENS2_12basic_stringIcNS2_11char_traitsIcEENS4_IcEEEERKT_RKT0_
FNDA:0,_ZN7testing8internal14DefaultPrintToINSt3__16vectorINS3_IbNS2_9allocatorIbEEEENS4_IS6_EEEEEEvNS0_15WrapPrinterTypeILNS0_18DefaultPrinterTypeE0EEERKT_PNS2_13basic_ostreamIcNS2_11char_traitsIcEEEE
FNDA:0,_ZN7testing8internal14DefaultPrintToINSt3__16vectorIbNS2_9allocatorIbEEEEEEvNS0_15WrapPrinterTypeILNS0_18DefaultPrinterTypeE0EEERKT_PNS2_13basic_ostreamIcNS2_11char_traitsIcEEEE
FNDA:0,_ZN7testing8internal14DefaultPrintToINSt3__121__bit_const_referenceINS2_6vectorIbNS2_9allocatorIbEEEEEEEEvNS0_15WrapPrinterTypeILNS0_18DefaultPrinterTypeE3EEERKT_PNS2_13basic_ostreamIcNS2_11char_traitsIcEEEE
FNDA:0,_ZN7testing8internal7PrintToINSt3__16vectorINS3_IbNS2_9allocatorIbEEEENS4_IS6_EEEEEEvRKT_PNS2_13basic_ostreamIcNS2_11char_traitsIcEEEE
FNDA:0,_ZN7testing8internal7PrintToINSt3__16vectorIbNS2_9allocatorIbEEEEEEvRKT_PNS2_13basic_ostreamIcNS2_11char_traitsIcEEEE
FNDA:0,_ZN7testing8internal7PrintToINSt3__121__bit_const_referenceINS2_6vectorIbNS2_9allocatorIbEEEEEEEEvRKT_PNS2_13basic_ostreamIcNS2_11char_traitsIcEEEE
FNDA:0,_ZN7testing8internal16UniversalPrinterINSt3__16vectorINS3_IbNS2_9allocatorIbEEEENS4_IS6_EEEEE5PrintERKS8_PNS2_13basic_ostreamIcNS2_11char_traitsIcEEEE
FNDA:0,_ZN7testing8internal16UniversalPrinterINSt3__16vectorIbNS2_9allocatorIbEEEEE5PrintERKS6_PNS2_13basic_ostreamIcNS2_11char_traitsIcEEEE
FNDA:0,_ZN7testing8internal16UniversalPrinterINSt3__121__bit_const_referenceINS2_6vectorIbNS2_9allocatorIbEEEEEEE5PrintERKS8_PNS2_13basic_ostreamIcNS2_11char_traitsIcEEEE
FNDA:0,_ZN7testing8internal21UniversalTersePrinterINSt3__16vectorINS3_IbNS2_9allocatorIbEEEENS4_IS6_EEEEE5PrintERKS8_PNS2_13basic_ostreamIcNS2_11char_traitsIcEEEE
FNDA:0,_ZN7testing8internal14UniversalPrintINSt3__16vectorINS3_IbNS2_9allocatorIbEEEENS4_IS6_EEEEEEvRKT_PNS2_13basic_ostreamIcNS2_11char_traitsIcEEEE
FNDA:0,_ZN7testing8internal14UniversalPrintINSt3__16vectorIbNS2_9allocatorIbEEEEEEvRKT_PNS2_13basic_ostreamIcNS2_11char_traitsIcEEEE
FNDA:0,_ZN7testing8internal14UniversalPrintINSt3__121__bit_const_referenceINS2_6vectorIbNS2_9allocatorIbEEEEEEEEvRKT_PNS2_13basic_ostreamIcNS2_11char_traitsIcEEEE
FNDA:0,_ZN7testing13PrintToStringINSt3__16vectorINS2_IbNS1_9allocatorIbEEEENS3_IS5_EEEEEENS1_12basic_stringIcNS1_11char_traitsIcEENS3_IcEEEERKT_
FNF:19
FNH:0
DA:173,0
DA:174,0
DA:175,0
DA:205,0
DA:208,0
DA:209,0
DA:249,0
DA:250,0
DA:276,0
DA:351,0
DA:380,0
DA:381,0
DA:382,0
DA:383,0
DA:384,0
DA:385,0
DA:386,0
DA:387,0
DA:388,0
DA:389,0
DA:391,0
DA:392,0
DA:395,0
DA:396,0
DA:398,0
DA:399,0
DA:400,0
DA:401,0
DA:402,0
DA:444,0
DA:445,0
DA:481,0
DA:493,0
DA:494,0
DA:723,0
DA:724,0
DA:800,0
DA:801,0
DA:872,0
DA:873,0
DA:997,0
DA:998,0
DA:999,0
DA:1000,0
LF:44
LH:0
end_of_record
SF:/Users/vpomsztein/Documents/PrivateRepositories/Algoritmos1/TPI/juegoDeLaVida/lib/googletest-master/googletest/include/gtest/gtest.h
FN:256,_ZN7testing15AssertionResultD2Ev
FN:256,_ZN7testing15AssertionResultD1Ev
FN:288,_ZNK7testing15AssertionResultcvbEv
FN:297,_ZNK7testing15AssertionResult7messageEv
FN:302,_ZNK7testing15AssertionResult15failure_messageEv
FN:389,_ZN7testing4Test13SetUpTestCaseEv
FN:397,_ZN7testing4Test16TearDownTestCaseEv
FN:474,_ZN7testing4Test5SetupEv
FN:1375,_ZN7testing8internal18CmpHelperEQFailureINSt3__16vectorINS3_IbNS2_9allocatorIbEEEENS4_IS6_EEEES8_EENS_15AssertionResultEPKcSB_RKT_RKT0_
FN:1387,_ZN7testing8internal11CmpHelperEQINSt3__16vectorINS3_IbNS2_9allocatorIbEEEENS4_IS6_EEEES8_EENS_15AssertionResultEPKcSB_RKT_RKT0_
FN:1417,_ZN7testing8internal8EqHelperILb0EE7CompareINSt3__16vectorINS5_IbNS4_9allocatorIbEEEENS6_IS8_EEEESA_EENS_15AssertionResultEPKcSD_RKT_RKT0_
FNDA:0,_ZN7testing15AssertionResultD1Ev
FNDA:0,_ZN7testing15AssertionResultD2Ev
FNDA:0,_ZNK7testing15AssertionResultcvbEv
FNDA:0,_ZNK7testing15AssertionResult7messageEv
FNDA:0,_ZNK7testing15AssertionResult15failure_messageEv
FNDA:0,_ZN7testing4Test13SetUpTestCaseEv
FNDA:0,_ZN7testing4Test16TearDownTestCaseEv
FNDA:0,_ZN7testing4Test5SetupEv
FNDA:0,_ZN7testing8internal18CmpHelperEQFailureINSt3__16vectorINS3_IbNS2_9allocatorIbEEEENS4_IS6_EEEES8_EENS_15AssertionResultEPKcSB_RKT_RKT0_
FNDA:28,_ZN7testing8internal11CmpHelperEQINSt3__16vectorINS3_IbNS2_9allocatorIbEEEENS4_IS6_EEEES8_EENS_15AssertionResultEPKcSB_RKT_RKT0_
FNDA:28,_ZN7testing8internal8EqHelperILb0EE7CompareINSt3__16vectorINS5_IbNS4_9allocatorIbEEEENS6_IS8_EEEESA_EENS_15AssertionResultEPKcSD_RKT_RKT0_
FNF:11
FNH:2
DA:256,0
DA:288,0
DA:298,0
DA:302,0
DA:389,0
DA:397,0
DA:474,0
DA:1378,0
DA:1379,0
DA:1380,0
DA:1381,0
DA:1383,0
DA:1392,28
DA:1393,28
DA:1397,0
DA:1398,28
DA:1421,28
LF:17
LH:4
end_of_record
SF:/Users/vpomsztein/Documents/PrivateRepositories/Algoritmos1/TPI/juegoDeLaVida/lib/googletest-master/googletest/include/gtest/internal/gtest-internal.h
FN:466,_ZN7testing8internal15TestFactoryBaseD0Ev
FN:466,_ZN7testing8internal15TestFactoryBaseD1Ev
FN:466,_ZN7testing8internal15TestFactoryBaseD2Ev
FN:473,_ZN7testing8internal15TestFactoryBaseC2Ev
FN:482,_ZN7testing8internal15TestFactoryImplI45evolucionMultipleTEST_toroideUnaFilaFTTF_TestEC1Ev
FN:482,_ZN7testing8internal15TestFactoryImplI61evolucionMultipleTEST_toroideDiagonalTresPorTresDosPasos_TestED1Ev
FN:482,_ZN7testing8internal15TestFactoryImplI58evolucionMultipleTEST_toroide5EvolucionesVsEvolucion5_TestEC1Ev
FN:482,_ZN7testing8internal15TestFactoryImplI50evolucionMultipleTEST_toroideTodoFalso20Pasos_TestEC1Ev
FN:482,_ZN7testing8internal15TestFactoryImplI59evolucionMultipleTEST_toroideDiagonalTresPorTresUnPaso_TestED2Ev
FN:482,_ZN7testing8internal15TestFactoryImplI45evolucionMultipleTEST_toroideUnaFilaFTTF_TestED2Ev
FN:482,_ZN7testing8internal15TestFactoryImplI45evolucionMultipleTEST_toroideUnaFilaFTTF_TestEC2Ev
FN:482,_ZN7testing8internal15TestFactoryImplI58evolucionMultipleTEST_toroide5EvolucionesVsEvolucion5_TestED2Ev
FN:482,_ZN7testing8internal15TestFactoryImplI53evolucionMultipleTEST_toroideUnaFilaTrueEnCentro_TestED1Ev
FN:482,_ZN7testing8internal15TestFactoryImplI53evolucionMultipleTEST_toroideUnaFilaTrueEnCentro_TestEC1Ev
FN:482,_ZN7testing8internal15TestFactoryImplI59evolucionMultipleTEST_toroideDiagonalTresPorTresUnPaso_TestED1Ev
FN:482,_ZN7testing8internal15TestFactoryImplI58evolucionMultipleTEST_toroide5EvolucionesVsEvolucion5_TestED0Ev
FN:482,_ZN7testing8internal15TestFactoryImplI53evolucionMultipleTEST_toroideUnaFilaTrueEnCentro_TestED2Ev
FN:482,_ZN7testing8internal15TestFactoryImplI59evolucionMultipleTEST_toroideDiagonalTresPorTresUnPaso_TestEC1Ev
FN:482,_ZN7testing8internal15TestFactoryImplI59evolucionMultipleTEST_toroideDiagonalTresPorTresUnPaso_TestEC2Ev
FN:482,_ZN7testing8internal15TestFactoryImplI56evolucionMultipleTEST_toroideUnaColumnaTrueEnCentro_TestED1Ev
FN:482,_ZN7testing8internal15TestFactoryImplI61evolucionMultipleTEST_toroideDiagonalTresPorTresDosPasos_TestED0Ev
FN:482,_ZN7testing8internal15TestFactoryImplI56evolucionMultipleTEST_toroideUnaColumnaTrueEnCentro_TestEC1Ev
FN:482,_ZN7testing8internal15TestFactoryImplI61evolucionMultipleTEST_toroideDiagonalTresPorTresDosPasos_TestEC2Ev
FN:482,_ZN7testing8internal15TestFactoryImplI45evolucionMultipleTEST_toroideUnaFilaFTTF_TestED0Ev
FN:482,_ZN7testing8internal15TestFactoryImplI50evolucionMultipleTEST_toroideTodoFalso20Pasos_TestED1Ev
FN:482,_ZN7testing8internal15TestFactoryImplI50evolucionMultipleTEST_toroideTodoFalso20Pasos_TestED2Ev
FN:482,_ZN7testing8internal15TestFactoryImplI61evolucionMultipleTEST_toroideDiagonalTresPorTresDosPasos_TestEC1Ev
FN:482,_ZN7testing8internal15TestFactoryImplI61evolucionMultipleTEST_toroideDiagonalTresPorTresDosPasos_TestED2Ev
FN:482,_ZN7testing8internal15TestFactoryImplI58evolucionMultipleTEST_toroide5EvolucionesVsEvolucion5_TestED1Ev
FN:482,_ZN7testing8internal15TestFactoryImplI53evolucionMultipleTEST_toroideUnaFilaTrueEnCentro_TestED0Ev
FN:482,_ZN7testing8internal15TestFactoryImplI56evolucionMultipleTEST_toroideUnaColumnaTrueEnCentro_TestEC2Ev
FN:482,_ZN7testing8internal15TestFactoryImplI50evolucionMultipleTEST_toroideTodoFalso20Pasos_TestEC2Ev
FN:482,_ZN7testing8internal15TestFactoryImplI53evolucionMultipleTEST_toroideUnaFilaTrueEnCentro_TestEC2Ev
FN:482,_ZN7testing8internal15TestFactoryImplI59evolucionMultipleTEST_toroideDiagonalTresPorTresUnPaso_TestED0Ev
FN:482,_ZN7testing8internal15TestFactoryImplI50evolucionMultipleTEST_toroideTodoFalso20Pasos_TestED0Ev
FN:482,_ZN7testing8internal15TestFactoryImplI45evolucionMultipleTEST_toroideUnaFilaFTTF_TestED1Ev
FN:482,_ZN7testing8internal15TestFactoryImplI56evolucionMultipleTEST_toroideUnaColumnaTrueEnCentro_TestED0Ev
FN:482,_ZN7testing8internal15TestFactoryImplI56evolucionMultipleTEST_toroideUnaColumnaTrueEnCentro_TestED2Ev
FN:482,_ZN7testing8internal15TestFactoryImplI58evolucionMultipleTEST_toroide5EvolucionesVsEvolucion5_TestEC2Ev
FN:484,_ZN7testing8internal15TestFactoryImplI56evolucionMultipleTEST_toroideUnaColumnaTrueEnCentro_TestE10CreateTestEv
FN:484,_ZN7testing8internal15TestFactoryImplI45evolucionMultipleTEST_toroideUnaFilaFTTF_TestE10CreateTestEv
FN:484,_ZN7testing8internal15TestFactoryImplI53evolucionMultipleTEST_toroideUnaFilaTrueEnCentro_TestE10CreateTestEv
FN:484,_ZN7testing8internal15TestFactoryImplI50evolucionMultipleTEST_toroideTodoFalso20Pasos_TestE10CreateTestEv
FN:484,_ZN7testing8internal15TestFactoryImplI59evolucionMultipleTEST_toroideDiagonalTresPorTresUnPaso_TestE10CreateTestEv
FN:484,_ZN7testing8internal15TestFactoryImplI61evolucionMultipleTEST_toroideDiagonalTresPorTresDosPasos_TestE10CreateTestEv
FN:484,_ZN7testing8internal15TestFactoryImplI58evolucionMultipleTEST_toroide5EvolucionesVsEvolucion5_TestE10CreateTestEv
FN:504,_ZN7testing8internal12CodeLocationD1Ev
FN:504,_ZN7testing8internal12CodeLocationD2Ev
FN:505,_ZN7testing8internal12CodeLocationC2ERKNSt3__112basic_stringIcNS2_11char_traitsIcEENS2_9allocatorIcEEEEi
FN:505,_ZN7testing8internal12CodeLocationC1ERKNSt3__112basic_stringIcNS2_11char_traitsIcEENS2_9allocatorIcEEEEi
FNDA:0,_ZN7testing8internal15TestFactoryBaseD1Ev
FNDA:0,_ZN7testing8internal15TestFactoryBaseD0Ev
FNDA:0,_ZN7testing8internal15TestFactoryBaseD2Ev
FNDA:0,_ZN7testing8internal15TestFactoryBaseC2Ev
FNDA:4,_ZN7testing8internal15TestFactoryImplI59evolucionMultipleTEST_toroideDiagonalTresPorTresUnPaso_TestEC1Ev
FNDA:4,_ZN7testing8internal15TestFactoryImplI61evolucionMultipleTEST_toroideDiagonalTresPorTresDosPasos_TestEC1Ev
FNDA:4,_ZN7testing8internal15TestFactoryImplI50evolucionMultipleTEST_toroideTodoFalso20Pasos_TestEC1Ev
FNDA:4,_ZN7testing8internal15TestFactoryImplI53evolucionMultipleTEST_toroideUnaFilaTrueEnCentro_TestEC1Ev
FNDA:4,_ZN7testing8internal15TestFactoryImplI56evolucionMultipleTEST_toroideUnaColumnaTrueEnCentro_TestEC1Ev
FNDA:4,_ZN7testing8internal15TestFactoryImplI45evolucionMultipleTEST_toroideUnaFilaFTTF_TestEC1Ev
FNDA:4,_ZN7testing8internal15TestFactoryImplI58evolucionMultipleTEST_toroide5EvolucionesVsEvolucion5_TestEC1Ev
FNDA:4,_ZN7testing8internal15TestFactoryImplI59evolucionMultipleTEST_toroideDiagonalTresPorTresUnPaso_TestEC2Ev
FNDA:4,_ZN7testing8internal15TestFactoryImplI59evolucionMultipleTEST_toroideDiagonalTresPorTresUnPaso_TestED1Ev
FNDA:4,_ZN7testing8internal15TestFactoryImplI59evolucionMultipleTEST_toroideDiagonalTresPorTresUnPaso_TestED0Ev
FNDA:4,_ZN7testing8internal15TestFactoryImplI59evolucionMultipleTEST_toroideDiagonalTresPorTresUnPaso_TestED2Ev
FNDA:4,_ZN7testing8internal15TestFactoryImplI61evolucionMultipleTEST_toroideDiagonalTresPorTresDosPasos_TestEC2Ev
FNDA:4,_ZN7testing8internal15TestFactoryImplI61evolucionMultipleTEST_toroideDiagonalTresPorTresDosPasos_TestED1Ev
FNDA:4,_ZN7testing8internal15TestFactoryImplI61evolucionMultipleTEST_toroideDiagonalTresPorTresDosPasos_TestED0Ev
FNDA:4,_ZN7testing8internal15TestFactoryImplI61evolucionMultipleTEST_toroideDiagonalTresPorTresDosPasos_TestED2Ev
FNDA:4,_ZN7testing8internal15TestFactoryImplI50evolucionMultipleTEST_toroideTodoFalso20Pasos_TestEC2Ev
FNDA:4,_ZN7testing8internal15TestFactoryImplI50evolucionMultipleTEST_toroideTodoFalso20Pasos_TestED1Ev
FNDA:4,_ZN7testing8internal15TestFactoryImplI50evolucionMultipleTEST_toroideTodoFalso20Pasos_TestED0Ev
FNDA:4,_ZN7testing8internal15TestFactoryImplI50evolucionMultipleTEST_toroideTodoFalso20Pasos_TestED2Ev
FNDA:4,_ZN7testing8internal15TestFactoryImplI53evolucionMultipleTEST_toroideUnaFilaTrueEnCentro_TestEC2Ev
FNDA:4,_ZN7testing8internal15TestFactoryImplI53evolucionMultipleTEST_toroideUnaFilaTrueEnCentro_TestED1Ev
FNDA:4,_ZN7testing8internal15TestFactoryImplI53evolucionMultipleTEST_toroideUnaFilaTrueEnCentro_TestED0Ev
FNDA:4,_ZN7testing8internal15TestFactoryImplI53evolucionMultipleTEST_toroideUnaFilaTrueEnCentro_TestED2Ev
FNDA:4,_ZN7testing8internal15TestFactoryImplI56evolucionMultipleTEST_toroideUnaColumnaTrueEnCentro_TestEC2Ev
FNDA:4,_ZN7testing8internal15TestFactoryImplI56evolucionMultipleTEST_toroideUnaColumnaTrueEnCentro_TestED1Ev
FNDA:4,_ZN7testing8internal15TestFactoryImplI56evolucionMultipleTEST_toroideUnaColumnaTrueEnCentro_TestED0Ev
FNDA:4,_ZN7testing8internal15TestFactoryImplI56evolucionMultipleTEST_toroideUnaColumnaTrueEnCentro_TestED2Ev
FNDA:4,_ZN7testing8internal15TestFactoryImplI45evolucionMultipleTEST_toroideUnaFilaFTTF_TestEC2Ev
FNDA:4,_ZN7testing8internal15TestFactoryImplI45evolucionMultipleTEST_toroideUnaFilaFTTF_TestED1Ev
FNDA:4,_ZN7testing8internal15TestFactoryImplI45evolucionMultipleTEST_toroideUnaFilaFTTF_TestED0Ev
FNDA:4,_ZN7testing8internal15TestFactoryImplI45evolucionMultipleTEST_toroideUnaFilaFTTF_TestED2Ev
FNDA:4,_ZN7testing8internal15TestFactoryImplI58evolucionMultipleTEST_toroide5EvolucionesVsEvolucion5_TestEC2Ev
FNDA:4,_ZN7testing8internal15TestFactoryImplI58evolucionMultipleTEST_toroide5EvolucionesVsEvolucion5_TestED1Ev
FNDA:4,_ZN7testing8internal15TestFactoryImplI58evolucionMultipleTEST_toroide5EvolucionesVsEvolucion5_TestED0Ev
FNDA:4,_ZN7testing8internal15TestFactoryImplI58evolucionMultipleTEST_toroide5EvolucionesVsEvolucion5_TestED2Ev
FNDA:2,_ZN7testing8internal15TestFactoryImplI59evolucionMultipleTEST_toroideDiagonalTresPorTresUnPaso_TestE10CreateTestEv
FNDA:2,_ZN7testing8internal15TestFactoryImplI61evolucionMultipleTEST_toroideDiagonalTresPorTresDosPasos_TestE10CreateTestEv
FNDA:2,_ZN7testing8internal15TestFactoryImplI50evolucionMultipleTEST_toroideTodoFalso20Pasos_TestE10CreateTestEv
FNDA:2,_ZN7testing8internal15TestFactoryImplI53evolucionMultipleTEST_toroideUnaFilaTrueEnCentro_TestE10CreateTestEv
FNDA:2,_ZN7testing8internal15TestFactoryImplI56evolucionMultipleTEST_toroideUnaColumnaTrueEnCentro_TestE10CreateTestEv
FNDA:2,_ZN7testing8internal15TestFactoryImplI45evolucionMultipleTEST_toroideUnaFilaFTTF_TestE10CreateTestEv
FNDA:2,_ZN7testing8internal15TestFactoryImplI58evolucionMultipleTEST_toroide5EvolucionesVsEvolucion5_TestE10CreateTestEv
FNDA:0,_ZN7testing8internal12CodeLocationD1Ev
FNDA:0,_ZN7testing8internal12CodeLocationD2Ev
FNDA:0,_ZN7testing8internal12CodeLocationC1ERKNSt3__112basic_stringIcNS2_11char_traitsIcEENS2_9allocatorIcEEEEi
FNDA:0,_ZN7testing8internal12CodeLocationC2ERKNSt3__112basic_stringIcNS2_11char_traitsIcEENS2_9allocatorIcEEEEi
FNF:50
FNH:42
DA:466,0
DA:473,0
DA:482,140
DA:484,28
DA:504,0
DA:506,0
LF:6
LH:2
end_of_record
SF:/Users/vpomsztein/Documents/PrivateRepositories/Algoritmos1/TPI/juegoDeLaVida/lib/googletest-master/googletest/include/gtest/internal/gtest-port.h
FN:1157,_ZN7testing8internal10scoped_ptrINSt3__118basic_stringstreamIcNS2_11char_traitsIcEENS2_9allocatorIcEEEEED1Ev
FN:1157,_ZN7testing8internal10scoped_ptrINSt3__118basic_stringstreamIcNS2_11char_traitsIcEENS2_9allocatorIcEEEEED2Ev
FN:1157,_ZN7testing8internal10scoped_ptrINSt3__112basic_stringIcNS2_11char_traitsIcEENS2_9allocatorIcEEEEED2Ev
FN:1157,_ZN7testing8internal10scoped_ptrINSt3__112basic_stringIcNS2_11char_traitsIcEENS2_9allocatorIcEEEEED1Ev
FN:1160,_ZNK7testing8internal10scoped_ptrINSt3__112basic_stringIcNS2_11char_traitsIcEENS2_9allocatorIcEEEEEptEv
FN:1161,_ZNK7testing8internal10scoped_ptrINSt3__112basic_stringIcNS2_11char_traitsIcEENS2_9allocatorIcEEEEE3getEv
FN:1169,_ZN7testing8internal10scoped_ptrINSt3__112basic_stringIcNS2_11char_traitsIcEENS2_9allocatorIcEEEEE5resetEPS8_
FN:1169,_ZN7testing8internal10scoped_ptrINSt3__118basic_stringstreamIcNS2_11char_traitsIcEENS2_9allocatorIcEEEEE5resetEPS8_
FNDA:0,_ZN7testing8internal10scoped_ptrINSt3__118basic_stringstreamIcNS2_11char_traitsIcEENS2_9allocatorIcEEEEED1Ev
FNDA:0,_ZN7testing8internal10scoped_ptrINSt3__118basic_stringstreamIcNS2_11char_traitsIcEENS2_9allocatorIcEEEEED2Ev
FNDA:0,_ZN7testing8internal10scoped_ptrINSt3__112basic_stringIcNS2_11char_traitsIcEENS2_9allocatorIcEEEEED1Ev
FNDA:0,_ZN7testing8internal10scoped_ptrINSt3__112basic_stringIcNS2_11char_traitsIcEENS2_9allocatorIcEEEEED2Ev
FNDA:0,_ZNK7testing8internal10scoped_ptrINSt3__112basic_stringIcNS2_11char_traitsIcEENS2_9allocatorIcEEEEEptEv
FNDA:0,_ZNK7testing8internal10scoped_ptrINSt3__112basic_stringIcNS2_11char_traitsIcEENS2_9allocatorIcEEEEE3getEv
FNDA:0,_ZN7testing8internal10scoped_ptrINSt3__118basic_stringstreamIcNS2_11char_traitsIcEENS2_9allocatorIcEEEEE5resetEPS8_
FNDA:0,_ZN7testing8internal10scoped_ptrINSt3__112basic_stringIcNS2_11char_traitsIcEENS2_9allocatorIcEEEEE5resetEPS8_
FNF:8
FNH:0
DA:1157,0
DA:1160,0
DA:1161,0
DA:1170,0
DA:1171,0
DA:1172,0
DA:1173,0
DA:1174,0
DA:1175,0
DA:1176,0
LF:10
LH:0
end_of_record
SF:/Users/vpomsztein/Documents/PrivateRepositories/Algoritmos1/TPI/juegoDeLaVida/tests/evolucionMultipleTEST.cpp
FN:7,_ZN59evolucionMultipleTEST_toroideDiagonalTresPorTresUnPaso_TestD0Ev
FN:7,_ZN59evolucionMultipleTEST_toroideDiagonalTresPorTresUnPaso_TestC2Ev
FN:7,_ZN59evolucionMultipleTEST_toroideDiagonalTresPorTresUnPaso_TestD2Ev
FN:7,_ZN59evolucionMultipleTEST_toroideDiagonalTresPorTresUnPaso_TestD1Ev
FN:7,_ZN59evolucionMultipleTEST_toroideDiagonalTresPorTresUnPaso_Test8TestBodyEv
FN:7,__cxx_global_var_init
FN:7,_ZN59evolucionMultipleTEST_toroideDiagonalTresPorTresUnPaso_TestC1Ev
FN:22,_ZN61evolucionMultipleTEST_toroideDiagonalTresPorTresDosPasos_TestD1Ev
FN:22,_ZN61evolucionMultipleTEST_toroideDiagonalTresPorTresDosPasos_TestD0Ev
FN:22,_ZN61evolucionMultipleTEST_toroideDiagonalTresPorTresDosPasos_TestD2Ev
FN:22,_ZN61evolucionMultipleTEST_toroideDiagonalTresPorTresDosPasos_TestC2Ev
FN:22,_ZN61evolucionMultipleTEST_toroideDiagonalTresPorTresDosPasos_TestC1Ev
FN:22,_ZN61evolucionMultipleTEST_toroideDiagonalTresPorTresDosPasos_Test8TestBodyEv
FN:22,__cxx_global_var_init.10
FN:29,_ZN50evolucionMultipleTEST_toroideTodoFalso20Pasos_TestC2Ev
FN:29,_ZN50evolucionMultipleTEST_toroideTodoFalso20Pasos_TestC1Ev
FN:29,_ZN50evolucionMultipleTEST_toroideTodoFalso20Pasos_TestD2Ev
FN:29,_ZN50evolucionMultipleTEST_toroideTodoFalso20Pasos_TestD1Ev
FN:29,_ZN50evolucionMultipleTEST_toroideTodoFalso20Pasos_TestD0Ev
FN:29,__cxx_global_var_init.18
FN:29,_ZN50evolucionMultipleTEST_toroideTodoFalso20Pasos_Test8TestBodyEv
FN:35,_ZN53evolucionMultipleTEST_toroideUnaFilaTrueEnCentro_Test8TestBodyEv
FN:35,_ZN53evolucionMultipleTEST_toroideUnaFilaTrueEnCentro_TestC1Ev
FN:35,_ZN53evolucionMultipleTEST_toroideUnaFilaTrueEnCentro_TestC2Ev
FN:35,__cxx_global_var_init.26
FN:35,_ZN53evolucionMultipleTEST_toroideUnaFilaTrueEnCentro_TestD0Ev
FN:35,_ZN53evolucionMultipleTEST_toroideUnaFilaTrueEnCentro_TestD1Ev
FN:35,_ZN53evolucionMultipleTEST_toroideUnaFilaTrueEnCentro_TestD2Ev
FN:44,_ZN56evolucionMultipleTEST_toroideUnaColumnaTrueEnCentro_TestD1Ev
FN:44,_ZN56evolucionMultipleTEST_toroideUnaColumnaTrueEnCentro_TestC1Ev
FN:44,_ZN56evolucionMultipleTEST_toroideUnaColumnaTrueEnCentro_TestD0Ev
FN:44,_ZN56evolucionMultipleTEST_toroideUnaColumnaTrueEnCentro_TestD2Ev
FN:44,_ZN56evolucionMultipleTEST_toroideUnaColumnaTrueEnCentro_TestC2Ev
FN:44,_ZN56evolucionMultipleTEST_toroideUnaColumnaTrueEnCentro_Test8TestBodyEv
FN:44,__cxx_global_var_init.30
FN:51,_ZN45evolucionMultipleTEST_toroideUnaFilaFTTF_Test8TestBodyEv
FN:51,_ZN45evolucionMultipleTEST_toroideUnaFilaFTTF_TestC2Ev
FN:51,_ZN45evolucionMultipleTEST_toroideUnaFilaFTTF_TestD2Ev
FN:51,_ZN45evolucionMultipleTEST_toroideUnaFilaFTTF_TestC1Ev
FN:51,_ZN45evolucionMultipleTEST_toroideUnaFilaFTTF_TestD1Ev
FN:51,__cxx_global_var_init.38
FN:51,_ZN45evolucionMultipleTEST_toroideUnaFilaFTTF_TestD0Ev
FN:60,_ZN58evolucionMultipleTEST_toroide5EvolucionesVsEvolucion5_TestD1Ev
FN:60,_ZN58evolucionMultipleTEST_toroide5EvolucionesVsEvolucion5_Test8TestBodyEv
FN:60,_ZN58evolucionMultipleTEST_toroide5EvolucionesVsEvolucion5_TestC2Ev
FN:60,_ZN58evolucionMultipleTEST_toroide5EvolucionesVsEvolucion5_TestD2Ev
FN:60,_ZN58evolucionMultipleTEST_toroide5EvolucionesVsEvolucion5_TestC1Ev
FN:60,_ZN58evolucionMultipleTEST_toroide5EvolucionesVsEvolucion5_TestD0Ev
FN:60,__cxx_global_var_init.42
FNDA:4,__cxx_global_var_init
FNDA:2,_ZN59evolucionMultipleTEST_toroideDiagonalTresPorTresUnPaso_Test8TestBodyEv
FNDA:2,_ZN59evolucionMultipleTEST_toroideDiagonalTresPorTresUnPaso_TestD1Ev
FNDA:2,_ZN59evolucionMultipleTEST_toroideDiagonalTresPorTresUnPaso_TestD0Ev
FNDA:2,_ZN59evolucionMultipleTEST_toroideDiagonalTresPorTresUnPaso_TestC1Ev
FNDA:2,_ZN59evolucionMultipleTEST_toroideDiagonalTresPorTresUnPaso_TestC2Ev
FNDA:2,_ZN59evolucionMultipleTEST_toroideDiagonalTresPorTresUnPaso_TestD2Ev
FNDA:4,__cxx_global_var_init.10
FNDA:2,_ZN61evolucionMultipleTEST_toroideDiagonalTresPorTresDosPasos_Test8TestBodyEv
FNDA:2,_ZN61evolucionMultipleTEST_toroideDiagonalTresPorTresDosPasos_TestD1Ev
FNDA:2,_ZN61evolucionMultipleTEST_toroideDiagonalTresPorTresDosPasos_TestD0Ev
FNDA:2,_ZN61evolucionMultipleTEST_toroideDiagonalTresPorTresDosPasos_TestC1Ev
FNDA:2,_ZN61evolucionMultipleTEST_toroideDiagonalTresPorTresDosPasos_TestC2Ev
FNDA:2,_ZN61evolucionMultipleTEST_toroideDiagonalTresPorTresDosPasos_TestD2Ev
FNDA:4,__cxx_global_var_init.18
FNDA:2,_ZN50evolucionMultipleTEST_toroideTodoFalso20Pasos_Test8TestBodyEv
FNDA:2,_ZN50evolucionMultipleTEST_toroideTodoFalso20Pasos_TestD1Ev
FNDA:2,_ZN50evolucionMultipleTEST_toroideTodoFalso20Pasos_TestD0Ev
FNDA:2,_ZN50evolucionMultipleTEST_toroideTodoFalso20Pasos_TestC1Ev
FNDA:2,_ZN50evolucionMultipleTEST_toroideTodoFalso20Pasos_TestC2Ev
FNDA:2,_ZN50evolucionMultipleTEST_toroideTodoFalso20Pasos_TestD2Ev
FNDA:4,__cxx_global_var_init.26
FNDA:2,_ZN53evolucionMultipleTEST_toroideUnaFilaTrueEnCentro_Test8TestBodyEv
FNDA:2,_ZN53evolucionMultipleTEST_toroideUnaFilaTrueEnCentro_TestD1Ev
FNDA:2,_ZN53evolucionMultipleTEST_toroideUnaFilaTrueEnCentro_TestD0Ev
FNDA:2,_ZN53evolucionMultipleTEST_toroideUnaFilaTrueEnCentro_TestC1Ev
FNDA:2,_ZN53evolucionMultipleTEST_toroideUnaFilaTrueEnCentro_TestC2Ev
FNDA:2,_ZN53evolucionMultipleTEST_toroideUnaFilaTrueEnCentro_TestD2Ev
FNDA:4,__cxx_global_var_init.30
FNDA:2,_ZN56evolucionMultipleTEST_toroideUnaColumnaTrueEnCentro_Test8TestBodyEv
FNDA:2,_ZN56evolucionMultipleTEST_toroideUnaColumnaTrueEnCentro_TestD1Ev
FNDA:2,_ZN56evolucionMultipleTEST_toroideUnaColumnaTrueEnCentro_TestD0Ev
FNDA:2,_ZN56evolucionMultipleTEST_toroideUnaColumnaTrueEnCentro_TestC1Ev
FNDA:2,_ZN56evolucionMultipleTEST_toroideUnaColumnaTrueEnCentro_TestC2Ev
FNDA:2,_ZN56evolucionMultipleTEST_toroideUnaColumnaTrueEnCentro_TestD2Ev
FNDA:4,__cxx_global_var_init.38
FNDA:2,_ZN45evolucionMultipleTEST_toroideUnaFilaFTTF_Test8TestBodyEv
FNDA:2,_ZN45evolucionMultipleTEST_toroideUnaFilaFTTF_TestD1Ev
FNDA:2,_ZN45evolucionMultipleTEST_toroideUnaFilaFTTF_TestD0Ev
FNDA:2,_ZN45evolucionMultipleTEST_toroideUnaFilaFTTF_TestC1Ev
FNDA:2,_ZN45evolucionMultipleTEST_toroideUnaFilaFTTF_TestC2Ev
FNDA:2,_ZN45evolucionMultipleTEST_toroideUnaFilaFTTF_TestD2Ev
FNDA:4,__cxx_global_var_init.42
FNDA:2,_ZN58evolucionMultipleTEST_toroide5EvolucionesVsEvolucion5_Test8TestBodyEv
FNDA:2,_ZN58evolucionMultipleTEST_toroide5EvolucionesVsEvolucion5_TestD1Ev
FNDA:2,_ZN58evolucionMultipleTEST_toroide5EvolucionesVsEvolucion5_TestD0Ev
FNDA:2,_ZN58evolucionMultipleTEST_toroide5EvolucionesVsEvolucion5_TestC1Ev
FNDA:2,_ZN58evolucionMultipleTEST_toroide5EvolucionesVsEvolucion5_TestC2Ev
FNDA:2,_ZN58evolucionMultipleTEST_toroide5EvolucionesVsEvolucion5_TestD2Ev
FNF:49
FNH:49
DA:7,38
DA:8,16
DA:14,16
DA:18,6
DA:19,10
DA:20,2
DA:22,38
DA:23,16
DA:25,16
DA:26,6
DA:27,10
DA:28,2
DA:29,38
DA:30,16
DA:31,16
DA:32,6
DA:33,10
DA:34,2
DA:35,38
DA:36,8
DA:40,8
DA:41,6
DA:42,10
DA:43,2
DA:44,38
DA:45,16
DA:47,16
DA:48,6
DA:49,10
DA:50,2
DA:51,38
DA:52,8
DA:56,8
DA:57,6
DA:58,10
DA:59,2
DA:60,38
DA:61,32
DA:62,2
DA:63,2
DA:64,2
DA:65,2
DA:66,2
DA:67,2
DA:68,2
DA:73,6
DA:74,6
DA:75,6
DA:76,6
DA:77,6
DA:78,6
DA:79,10
DA:80,2
LF:53
LH:53
end_of_record
TN:
SF:/Applications/Xcode.app/Contents/Developer/Toolchains/XcodeDefault.xctoolchain/usr/include/c++/v1/__bit_reference
FN:56,_ZNSt3__115__bit_referenceINS_6vectorIbNS_9allocatorIbEEEELb1EEaSEb
FN:74,_ZNSt3__115__bit_referenceINS_6vectorIbNS_9allocatorIbEEEELb1EEC1EPmm
FN:74,_ZNSt3__115__bit_referenceINS_6vectorIbNS_9allocatorIbEEEELb1EEC2EPmm
FN:139,_ZNKSt3__121__bit_const_referenceINS_6vectorIbNS_9allocatorIbEEEEEcvbEv
FN:147,_ZNSt3__121__bit_const_referenceINS_6vectorIbNS_9allocatorIbEEEEEC2EPKmm
FN:147,_ZNSt3__121__bit_const_referenceINS_6vectorIbNS_9allocatorIbEEEEEC1EPKmm
FN:404,_ZNSt3__114__copy_alignedINS_6vectorIbNS_9allocatorIbEEEELb1EEENS_14__bit_iteratorIT_Lb0EXLi0EEEENS5_IS6_XT0_EXLi0EEEES8_S7_
FN:453,_ZNSt3__116__copy_unalignedINS_6vectorIbNS_9allocatorIbEEEELb1EEENS_14__bit_iteratorIT_Lb0EXLi0EEEENS5_IS6_XT0_EXLi0EEEES8_S7_
FN:532,_ZNSt3__14copyINS_6vectorIbNS_9allocatorIbEEEELb1EEENS_14__bit_iteratorIT_Lb0EXLi0EEEENS5_IS6_XT0_EXLi0EEEES8_S7_
FN:951,_ZNSt3__117__equal_unalignedINS_6vectorIbNS_9allocatorIbEEEELb1ELb1EEEbNS_14__bit_iteratorIT_XT0_EXLi0EEEES7_NS5_IS6_XT1_EXLi0EEEE
FN:1033,_ZNSt3__115__equal_alignedINS_6vectorIbNS_9allocatorIbEEEELb1ELb1EEEbNS_14__bit_iteratorIT_XT0_EXLi0EEEES7_NS5_IS6_XT1_EXLi0EEEE
FN:1077,_ZNSt3__15equalINS_6vectorIbNS_9allocatorIbEEEELb1ELb1EEEbNS_14__bit_iteratorIT_XT0_EXLi0EEEES7_NS5_IS6_XT1_EXLi0EEEE
FN:1112,_ZNSt3__114__bit_iteratorINS_6vectorIbNS_9allocatorIbEEEELb0ELm0EEC2ERKS5_
FN:1112,_ZNSt3__114__bit_iteratorINS_6vectorIbNS_9allocatorIbEEEELb0ELm0EEC1ERKS5_
FN:1115,_ZNKSt3__114__bit_iteratorINS_6vectorIbNS_9allocatorIbEEEELb0ELm0EEdeEv
FN:1115,_ZNKSt3__114__bit_iteratorINS_6vectorIbNS_9allocatorIbEEEELb1ELm0EEdeEv
FN:1118,_ZNSt3__114__bit_iteratorINS_6vectorIbNS_9allocatorIbEEEELb0ELm0EEppEv
FN:1118,_ZNSt3__114__bit_iteratorINS_6vectorIbNS_9allocatorIbEEEELb1ELm0EEppEv
FN:1191,_ZNSt3__1miERKNS_14__bit_iteratorINS_6vectorIbNS_9allocatorIbEEEELb1ELm0EEES7_
FN:1196,_ZNSt3__1eqERKNS_14__bit_iteratorINS_6vectorIbNS_9allocatorIbEEEELb1ELm0EEES7_
FN:1199,_ZNSt3__1neERKNS_14__bit_iteratorINS_6vectorIbNS_9allocatorIbEEEELb1ELm0EEES7_
FN:1216,_ZNSt3__114__bit_iteratorINS_6vectorIbNS_9allocatorIbEEEELb0ELm0EEC1EPmj
FN:1216,_ZNSt3__114__bit_iteratorINS_6vectorIbNS_9allocatorIbEEEELb1ELm0EEC2EPKmj
FN:1216,_ZNSt3__114__bit_iteratorINS_6vectorIbNS_9allocatorIbEEEELb1ELm0EEC1EPKmj
FN:1216,_ZNSt3__114__bit_iteratorINS_6vectorIbNS_9allocatorIbEEEELb0ELm0EEC2EPmj
FNDA:0,_ZNSt3__115__bit_referenceINS_6vectorIbNS_9allocatorIbEEEELb1EEaSEb
FNDA:0,_ZNSt3__115__bit_referenceINS_6vectorIbNS_9allocatorIbEEEELb1EEC1EPmm
FNDA:0,_ZNSt3__115__bit_referenceINS_6vectorIbNS_9allocatorIbEEEELb1EEC2EPmm
FNDA:0,_ZNKSt3__121__bit_const_referenceINS_6vectorIbNS_9allocatorIbEEEEEcvbEv
FNDA:0,_ZNSt3__121__bit_const_referenceINS_6vectorIbNS_9allocatorIbEEEEEC1EPKmm
FNDA:0,_ZNSt3__121__bit_const_referenceINS_6vectorIbNS_9allocatorIbEEEEEC2EPKmm
FNDA:0,_ZNSt3__114__copy_alignedINS_6vectorIbNS_9allocatorIbEEEELb1EEENS_14__bit_iteratorIT_Lb0EXLi0EEEENS5_IS6_XT0_EXLi0EEEES8_S7_
FNDA:0,_ZNSt3__116__copy_unalignedINS_6vectorIbNS_9allocatorIbEEEELb1EEENS_14__bit_iteratorIT_Lb0EXLi0EEEENS5_IS6_XT0_EXLi0EEEES8_S7_
FNDA:0,_ZNSt3__14copyINS_6vectorIbNS_9allocatorIbEEEELb1EEENS_14__bit_iteratorIT_Lb0EXLi0EEEENS5_IS6_XT0_EXLi0EEEES8_S7_
FNDA:0,_ZNSt3__117__equal_unalignedINS_6vectorIbNS_9allocatorIbEEEELb1ELb1EEEbNS_14__bit_iteratorIT_XT0_EXLi0EEEES7_NS5_IS6_XT1_EXLi0EEEE
FNDA:0,_ZNSt3__115__equal_alignedINS_6vectorIbNS_9allocatorIbEEEELb1ELb1EEEbNS_14__bit_iteratorIT_XT0_EXLi0EEEES7_NS5_IS6_XT1_EXLi0EEEE
FNDA:0,_ZNSt3__15equalINS_6vectorIbNS_9allocatorIbEEEELb1ELb1EEEbNS_14__bit_iteratorIT_XT0_EXLi0EEEES7_NS5_IS6_XT1_EXLi0EEEE
FNDA:0,_ZNSt3__114__bit_iteratorINS_6vectorIbNS_9allocatorIbEEEELb0ELm0EEC1ERKS5_
FNDA:0,_ZNSt3__114__bit_iteratorINS_6vectorIbNS_9allocatorIbEEEELb0ELm0EEC2ERKS5_
FNDA:0,_ZNKSt3__114__bit_iteratorINS_6vectorIbNS_9allocatorIbEEEELb0ELm0EEdeEv
FNDA:0,_ZNKSt3__114__bit_iteratorINS_6vectorIbNS_9allocatorIbEEEELb1ELm0EEdeEv
FNDA:0,_ZNSt3__114__bit_iteratorINS_6vectorIbNS_9allocatorIbEEEELb0ELm0EEppEv
FNDA:0,_ZNSt3__114__bit_iteratorINS_6vectorIbNS_9allocatorIbEEEELb1ELm0EEppEv
FNDA:0,_ZNSt3__1miERKNS_14__bit_iteratorINS_6vectorIbNS_9allocatorIbEEEELb1ELm0EEES7_
FNDA:0,_ZNSt3__1eqERKNS_14__bit_iteratorINS_6vectorIbNS_9allocatorIbEEEELb1ELm0EEES7_
FNDA:0,_ZNSt3__1neERKNS_14__bit_iteratorINS_6vectorIbNS_9allocatorIbEEEELb1ELm0EEES7_
FNDA:0,_ZNSt3__114__bit_iteratorINS_6vectorIbNS_9allocatorIbEEEELb0ELm0EEC1EPmj
FNDA:0,_ZNSt3__114__bit_iteratorINS_6vectorIbNS_9allocatorIbEEEELb0ELm0EEC2EPmj
FNDA:0,_ZNSt3__114__bit_iteratorINS_6vectorIbNS_9allocatorIbEEEELb1ELm0EEC1EPKmj
FNDA:0,_ZNSt3__114__bit_iteratorINS_6vectorIbNS_9allocatorIbEEEELb1ELm0EEC2EPKmj
FNF:25
FNH:0
DA:58,0
DA:59,0
DA:61,0
DA:62,0
DA:75,0
DA:140,0
DA:148,0
DA:410,0
DA:411,0
DA:412,0
DA:415,0
DA:417,0
DA:418,0
DA:419,0
DA:420,0
DA:421,0
DA:422,0
DA:423,0
DA:424,0
DA:425,0
DA:426,0
DA:428,0
DA:431,0
DA:432,0
DA:433,0
DA:434,0
DA:435,0
DA:436,0
DA:438,0
DA:440,0
DA:441,0
DA:442,0
DA:443,0
DA:444,0
DA:445,0
DA:446,0
DA:447,0
DA:448,0
DA:460,0
DA:461,0
DA:464,0
DA:466,0
DA:467,0
DA:468,0
DA:469,0
DA:470,0
DA:471,0
DA:472,0
DA:473,0
DA:474,0
DA:475,0
DA:476,0
DA:478,0
DA:479,0
DA:480,0
DA:481,0
DA:482,0
DA:484,0
DA:485,0
DA:486,0
DA:487,0
DA:488,0
DA:489,0
DA:491,0
DA:494,0
DA:495,0
DA:496,0
DA:498,0
DA:499,0
DA:500,0
DA:501,0
DA:502,0
DA:503,0
DA:504,0
DA:506,0
DA:508,0
DA:509,0
DA:510,0
DA:511,0
DA:512,0
DA:513,0
DA:514,0
DA:515,0
DA:516,0
DA:517,0
DA:519,0
DA:520,0
DA:521,0
DA:522,0
DA:523,0
DA:524,0
DA:525,0
DA:526,0
DA:534,0
DA:535,0
DA:536,0
DA:537,0
DA:958,0
DA:959,0
DA:962,0
DA:964,0
DA:965,0
DA:966,0
DA:967,0
DA:968,0
DA:969,0
DA:970,0
DA:971,0
DA:972,0
DA:974,0
DA:975,0
DA:976,0
DA:979,0
DA:980,0
DA:982,0
DA:983,0
DA:984,0
DA:985,0
DA:987,0
DA:988,0
DA:989,0
DA:990,0
DA:991,0
DA:992,0
DA:994,0
DA:997,0
DA:998,0
DA:999,0
DA:1001,0
DA:1002,0
DA:1003,0
DA:1004,0
DA:1005,0
DA:1006,0
DA:1007,0
DA:1009,0
DA:1011,0
DA:1012,0
DA:1013,0
DA:1014,0
DA:1015,0
DA:1016,0
DA:1017,0
DA:1018,0
DA:1019,0
DA:1020,0
DA:1022,0
DA:1023,0
DA:1024,0
DA:1025,0
DA:1026,0
DA:1027,0
DA:1028,0
DA:1029,0
DA:1040,0
DA:1041,0
DA:1044,0
DA:1046,0
DA:1047,0
DA:1048,0
DA:1049,0
DA:1050,0
DA:1051,0
DA:1052,0
DA:1053,0
DA:1056,0
DA:1060,0
DA:1061,0
DA:1062,0
DA:1064,0
DA:1066,0
DA:1067,0
DA:1068,0
DA:1069,0
DA:1070,0
DA:1071,0
DA:1072,0
DA:1079,0
DA:1080,0
DA:1081,0
DA:1082,0
DA:1113,0
DA:1116,0
DA:1120,0
DA:1121,0
DA:1124,0
DA:1125,0
DA:1127,0
DA:1192,0
DA:1197,0
DA:1200,0
DA:1217,0
LF:192
LH:0
end_of_record
SF:/Applications/Xcode.app/Contents/Developer/Toolchains/XcodeDefault.xctoolchain/usr/include/c++/v1/__locale
FN:210,_ZNSt3__19use_facetINS_5ctypeIcEEEERKT_RKNS_6localeE
FN:625,_ZNKSt3__15ctypeIcE5widenEc
FNDA:0,_ZNSt3__19use_facetINS_5ctypeIcEEEERKT_RKNS_6localeE
FNDA:0,_ZNKSt3__15ctypeIcE5widenEc
FNF:2
FNH:0
DA:212,0
DA:627,0
LF:2
LH:0
end_of_record
SF:/Applications/Xcode.app/Contents/Developer/Toolchains/XcodeDefault.xctoolchain/usr/include/c++/v1/__string
FN:208,_ZNSt3__111char_traitsIcE6assignERcRKc
FN:209,_ZNSt3__111char_traitsIcE2eqEcc
FN:217,_ZNSt3__111char_traitsIcE6lengthEPKc
FN:230,_ZNSt3__111char_traitsIcE7not_eofEi
FN:232,_ZNSt3__111char_traitsIcE12to_char_typeEi
FN:234,_ZNSt3__111char_traitsIcE11to_int_typeEc
FN:236,_ZNSt3__111char_traitsIcE11eq_int_typeEii
FN:238,_ZNSt3__111char_traitsIcE3eofEv
FNDA:0,_ZNSt3__111char_traitsIcE6assignERcRKc
FNDA:0,_ZNSt3__111char_traitsIcE2eqEcc
FNDA:0,_ZNSt3__111char_traitsIcE6lengthEPKc
FNDA:0,_ZNSt3__111char_traitsIcE7not_eofEi
FNDA:0,_ZNSt3__111char_traitsIcE12to_char_typeEi
FNDA:0,_ZNSt3__111char_traitsIcE11to_int_typeEc
FNDA:0,_ZNSt3__111char_traitsIcE11eq_int_typeEii
FNDA:0,_ZNSt3__111char_traitsIcE3eofEv
FNF:8
FNH:0
DA:208,0
DA:210,0
DA:217,0
DA:231,0
DA:233,0
DA:235,0
DA:237,0
DA:239,0
LF:8
LH:0
end_of_record
SF:/Applications/Xcode.app/Contents/Developer/Toolchains/XcodeDefault.xctoolchain/usr/include/c++/v1/algorithm
FN:682,_ZNKSt3__110__equal_toINS_6vectorIbNS_9allocatorIbEEEES4_EclERKS4_S7_
FN:719,_ZNKSt3__16__lessIllEclERKlS3_
FN:719,_ZNKSt3__16__lessImmEclERKmS3_
FN:719,_ZNKSt3__16__lessIPcS1_EclERKS1_S4_
FN:1322,_ZNSt3__15equalINS_11__wrap_iterIPKNS_6vectorIbNS_9allocatorIbEEEEEES8_NS_10__equal_toIS5_S5_EEEEbT_SB_T0_T1_
FN:1333,_ZNSt3__15equalINS_11__wrap_iterIPKNS_6vectorIbNS_9allocatorIbEEEEEES8_EEbT_S9_T0_
FN:1759,_ZNSt3__113__unwrap_iterINS_14__bit_iteratorINS_6vectorIbNS_9allocatorIbEEEELb0ELm0EEEEET_S7_
FN:1759,_ZNSt3__113__unwrap_iterIPKbEET_S3_
FN:1809,_ZNSt3__16__copyIPKbNS_14__bit_iteratorINS_6vectorIbNS_9allocatorIbEEEELb0ELm0EEEEET0_T_SA_S9_
FN:1835,_ZNSt3__14copyIPKbNS_14__bit_iteratorINS_6vectorIbNS_9allocatorIbEEEELb0ELm0EEEEET0_T_SA_S9_
FN:2644,_ZNSt3__13minIlNS_6__lessIllEEEERKT_S5_S5_T0_
FN:2644,_ZNSt3__13minImNS_6__lessImmEEEERKT_S5_S5_T0_
FN:2652,_ZNSt3__13minImEERKT_S3_S3_
FN:2652,_ZNSt3__13minIlEERKT_S3_S3_
FN:2709,_ZNSt3__13maxIPcNS_6__lessIS1_S1_EEEERKT_S6_S6_T0_
FN:2717,_ZNSt3__13maxIPcEERKT_S4_S4_
FNDA:0,_ZNKSt3__110__equal_toINS_6vectorIbNS_9allocatorIbEEEES4_EclERKS4_S7_
FNDA:0,_ZNKSt3__16__lessImmEclERKmS3_
FNDA:0,_ZNKSt3__16__lessIllEclERKlS3_
FNDA:0,_ZNKSt3__16__lessIPcS1_EclERKS1_S4_
FNDA:0,_ZNSt3__15equalINS_11__wrap_iterIPKNS_6vectorIbNS_9allocatorIbEEEEEES8_NS_10__equal_toIS5_S5_EEEEbT_SB_T0_T1_
FNDA:0,_ZNSt3__15equalINS_11__wrap_iterIPKNS_6vectorIbNS_9allocatorIbEEEEEES8_EEbT_S9_T0_
FNDA:0,_ZNSt3__113__unwrap_iterIPKbEET_S3_
FNDA:0,_ZNSt3__113__unwrap_iterINS_14__bit_iteratorINS_6vectorIbNS_9allocatorIbEEEELb0ELm0EEEEET_S7_
FNDA:0,_ZNSt3__16__copyIPKbNS_14__bit_iteratorINS_6vectorIbNS_9allocatorIbEEEELb0ELm0EEEEET0_T_SA_S9_
FNDA:0,_ZNSt3__14copyIPKbNS_14__bit_iteratorINS_6vectorIbNS_9allocatorIbEEEELb0ELm0EEEEET0_T_SA_S9_
FNDA:0,_ZNSt3__13minImNS_6__lessImmEEEERKT_S5_S5_T0_
FNDA:0,_ZNSt3__13minIlNS_6__lessIllEEEERKT_S5_S5_T0_
FNDA:0,_ZNSt3__13minImEERKT_S3_S3_
FNDA:0,_ZNSt3__13minIlEERKT_S3_S3_
FNDA:0,_ZNSt3__13maxIPcNS_6__lessIS1_S1_EEEERKT_S6_S6_T0_
FNDA:0,_ZNSt3__13maxIPcEERKT_S4_S4_
FNF:16
FNH:0
DA:682,0
DA:719,0
DA:1324,0
DA:1325,0
DA:1326,0
DA:1327,0
DA:1328,0
DA:1337,0
DA:1761,0
DA:1811,0
DA:1812,0
DA:1813,0
DA:1837,0
DA:2646,0
DA:2654,0
DA:2711,0
DA:2719,0
LF:17
LH:0
end_of_record
SF:/Applications/Xcode.app/Contents/Developer/Toolchains/XcodeDefault.xctoolchain/usr/include/c++/v1/initializer_list
FN:85,_ZNKSt16initializer_listINSt3__16vectorIbNS0_9allocatorIbEEEEE4sizeEv
FN:85,_ZNKSt16initializer_listIbE4sizeEv
FN:89,_ZNKSt16initializer_listIbE5beginEv
FN:89,_ZNKSt16initializer_listINSt3__16vectorIbNS0_9allocatorIbEEEEE5beginEv
FN:93,_ZNKSt16initializer_listINSt3__16vectorIbNS0_9allocatorIbEEEEE3endEv
FN:93,_ZNKSt16initializer_listIbE3endEv
FNDA:0,_ZNKSt16initializer_listIbE4sizeEv
FNDA:78,_ZNKSt16initializer_listINSt3__16vectorIbNS0_9allocatorIbEEEEE4sizeEv
FNDA:0,_ZNKSt16initializer_listIbE5beginEv
FNDA:26,_ZNKSt16initializer_listINSt3__16vectorIbNS0_9allocatorIbEEEEE5beginEv
FNDA:0,_ZNKSt16initializer_listIbE3endEv
FNDA:26,_ZNKSt16initializer_listINSt3__16vectorIbNS0_9allocatorIbEEEEE3endEv
FNF:6
FNH:3
DA:85,78
DA:89,26
DA:93,26
LF:3
LH:3
end_of_record
SF:/Applications/Xcode.app/Contents/Developer/Toolchains/XcodeDefault.xctoolchain/usr/include/c++/v1/ios
FN:336,_ZNSt3__18ios_baseC2Ev
FN:340,_ZNKSt3__18ios_base5rdbufEv
FN:440,_ZNKSt3__18ios_base5flagsEv
FN:502,_ZNKSt3__18ios_base5widthEv
FN:509,_ZNSt3__18ios_base5widthEl
FN:527,_ZNSt3__18ios_base8setstateEj
FN:611,_ZNSt3__19basic_iosIcNS_11char_traitsIcEEE8setstateEj
FN:653,_ZNSt3__19basic_iosIcNS_11char_traitsIcEEEC2Ev
FN:688,_ZNSt3__19basic_iosIcNS_11char_traitsIcEEE4initEPNS_15basic_streambufIcS2_EE
FN:716,_ZNKSt3__19basic_iosIcNS_11char_traitsIcEEE5rdbufEv
FN:754,_ZNKSt3__19basic_iosIcNS_11char_traitsIcEEE5widenEc
FN:762,_ZNKSt3__19basic_iosIcNS_11char_traitsIcEEE4fillEv
FNDA:0,_ZNSt3__18ios_baseC2Ev
FNDA:0,_ZNKSt3__18ios_base5rdbufEv
FNDA:0,_ZNKSt3__18ios_base5flagsEv
FNDA:0,_ZNKSt3__18ios_base5widthEv
FNDA:0,_ZNSt3__18ios_base5widthEl
FNDA:0,_ZNSt3__18ios_base8setstateEj
FNDA:0,_ZNSt3__19basic_iosIcNS_11char_traitsIcEEE8setstateEj
FNDA:0,_ZNSt3__19basic_iosIcNS_11char_traitsIcEEEC2Ev
FNDA:0,_ZNSt3__19basic_iosIcNS_11char_traitsIcEEE4initEPNS_15basic_streambufIcS2_EE
FNDA:0,_ZNKSt3__19basic_iosIcNS_11char_traitsIcEEE5rdbufEv
FNDA:0,_ZNKSt3__19basic_iosIcNS_11char_traitsIcEEE5widenEc
FNDA:0,_ZNKSt3__19basic_iosIcNS_11char_traitsIcEEE4fillEv
FNF:12
FNH:0
DA:336,0
DA:337,0
DA:340,0
DA:442,0
DA:504,0
DA:511,0
DA:512,0
DA:513,0
DA:529,0
DA:530,0
DA:611,0
DA:653,0
DA:654,0
DA:690,0
DA:691,0
DA:692,0
DA:693,0
DA:718,0
DA:756,0
DA:757,0
DA:764,0
DA:765,0
DA:766,0
LF:23
LH:0
end_of_record
SF:/Applications/Xcode.app/Contents/Developer/Toolchains/XcodeDefault.xctoolchain/usr/include/c++/v1/iosfwd
FN:117,_ZNSt3__115basic_stringbufIcNS_11char_traitsIcEENS_9allocatorIcEEED0Ev
FN:117,_ZNSt3__115basic_stringbufIcNS_11char_traitsIcEENS_9allocatorIcEEED2Ev
FN:117,_ZNSt3__115basic_stringbufIcNS_11char_traitsIcEENS_9allocatorIcEEED1Ev
FN:126,_ZNSt3__118basic_stringstreamIcNS_11char_traitsIcEENS_9allocatorIcEEED2Ev
FN:126,_ZNSt3__118basic_stringstreamIcNS_11char_traitsIcEENS_9allocatorIcEEED0Ev
FN:126,_ZNSt3__118basic_stringstreamIcNS_11char_traitsIcEENS_9allocatorIcEEED1Ev
FNDA:0,_ZNSt3__115basic_stringbufIcNS_11char_traitsIcEENS_9allocatorIcEEED1Ev
FNDA:0,_ZNSt3__115basic_stringbufIcNS_11char_traitsIcEENS_9allocatorIcEEED0Ev
FNDA:0,_ZNSt3__115basic_stringbufIcNS_11char_traitsIcEENS_9allocatorIcEEED2Ev
FNDA:0,_ZNSt3__118basic_stringstreamIcNS_11char_traitsIcEENS_9allocatorIcEEED1Ev
FNDA:0,_ZNSt3__118basic_stringstreamIcNS_11char_traitsIcEENS_9allocatorIcEEED0Ev
FNDA:0,_ZNSt3__118basic_stringstreamIcNS_11char_traitsIcEENS_9allocatorIcEEED2Ev
FNF:6
FNH:0
DA:117,0
DA:126,0
LF:2
LH:0
end_of_record
SF:/Applications/Xcode.app/Contents/Developer/Toolchains/XcodeDefault.xctoolchain/usr/include/c++/v1/istream
FN:190,_ZNSt3__113basic_istreamIcNS_11char_traitsIcEEEC2EPNS_15basic_streambufIcS2_EE
FN:1461,_ZNSt3__114basic_iostreamIcNS_11char_traitsIcEEEC2EPNS_15basic_streambufIcS2_EE
FNDA:0,_ZNSt3__113basic_istreamIcNS_11char_traitsIcEEEC2EPNS_15basic_streambufIcS2_EE
FNDA:0,_ZNSt3__114basic_iostreamIcNS_11char_traitsIcEEEC2EPNS_15basic_streambufIcS2_EE
FNF:2
FNH:0
DA:190,0
DA:191,0
DA:1461,0
DA:1462,0
DA:1463,0
LF:5
LH:0
end_of_record
SF:/Applications/Xcode.app/Contents/Developer/Toolchains/XcodeDefault.xctoolchain/usr/include/c++/v1/iterator
FN:592,_ZNSt3__110__distanceIPKbEENS_15iterator_traitsIT_E15difference_typeES4_S4_NS_26random_access_iterator_tagE
FN:592,_ZNSt3__110__distanceIPcEENS_15iterator_traitsIT_E15difference_typeES3_S3_NS_26random_access_iterator_tagE
FN:592,_ZNSt3__110__distanceINS_14__bit_iteratorINS_6vectorIbNS_9allocatorIbEEEELb1ELm0EEEEENS_15iterator_traitsIT_E15difference_typeES8_S8_NS_26random_access_iterator_tagE
FN:600,_ZNSt3__18distanceINS_14__bit_iteratorINS_6vectorIbNS_9allocatorIbEEEELb1ELm0EEEEENS_15iterator_traitsIT_E15difference_typeES8_S8_
FN:600,_ZNSt3__18distanceIPcEENS_15iterator_traitsIT_E15difference_typeES3_S3_
FN:600,_ZNSt3__18distanceIPKbEENS_15iterator_traitsIT_E15difference_typeES4_S4_
FN:1031,_ZNSt3__119ostreambuf_iteratorIcNS_11char_traitsIcEEEC2ERNS_13basic_ostreamIcS2_EE
FN:1031,_ZNSt3__119ostreambuf_iteratorIcNS_11char_traitsIcEEEC1ERNS_13basic_ostreamIcS2_EE
FN:1044,_ZNKSt3__119ostreambuf_iteratorIcNS_11char_traitsIcEEE6failedEv
FN:1331,_ZNKSt3__111__wrap_iterIPKNS_6vectorIbNS_9allocatorIbEEEEEdeEv
FN:1347,_ZNSt3__111__wrap_iterIPKNS_6vectorIbNS_9allocatorIbEEEEEppEv
FN:1393,_ZNKSt3__111__wrap_iterIPKNS_6vectorIbNS_9allocatorIbEEEEE4baseEv
FN:1402,_ZNSt3__111__wrap_iterIPKNS_6vectorIbNS_9allocatorIbEEEEEC2ES6_
FN:1402,_ZNSt3__111__wrap_iterIPKNS_6vectorIbNS_9allocatorIbEEEEEC1ES6_
FN:1486,_ZNSt3__1eqIPKNS_6vectorIbNS_9allocatorIbEEEES6_EEbRKNS_11__wrap_iterIT_EERKNS7_IT0_EE
FN:1538,_ZNSt3__1neIPKNS_6vectorIbNS_9allocatorIbEEEEEEbRKNS_11__wrap_iterIT_EESB_
FNDA:0,_ZNSt3__110__distanceIPKbEENS_15iterator_traitsIT_E15difference_typeES4_S4_NS_26random_access_iterator_tagE
FNDA:0,_ZNSt3__110__distanceINS_14__bit_iteratorINS_6vectorIbNS_9allocatorIbEEEELb1ELm0EEEEENS_15iterator_traitsIT_E15difference_typeES8_S8_NS_26random_access_iterator_tagE
FNDA:0,_ZNSt3__110__distanceIPcEENS_15iterator_traitsIT_E15difference_typeES3_S3_NS_26random_access_iterator_tagE
FNDA:0,_ZNSt3__18distanceIPKbEENS_15iterator_traitsIT_E15difference_typeES4_S4_
FNDA:0,_ZNSt3__18distanceINS_14__bit_iteratorINS_6vectorIbNS_9allocatorIbEEEELb1ELm0EEEEENS_15iterator_traitsIT_E15difference_typeES8_S8_
FNDA:0,_ZNSt3__18distanceIPcEENS_15iterator_traitsIT_E15difference_typeES3_S3_
FNDA:0,_ZNSt3__119ostreambuf_iteratorIcNS_11char_traitsIcEEEC1ERNS_13basic_ostreamIcS2_EE
FNDA:0,_ZNSt3__119ostreambuf_iteratorIcNS_11char_traitsIcEEEC2ERNS_13basic_ostreamIcS2_EE
FNDA:0,_ZNKSt3__119ostreambuf_iteratorIcNS_11char_traitsIcEEE6failedEv
FNDA:0,_ZNKSt3__111__wrap_iterIPKNS_6vectorIbNS_9allocatorIbEEEEEdeEv
FNDA:0,_ZNSt3__111__wrap_iterIPKNS_6vectorIbNS_9allocatorIbEEEEEppEv
FNDA:0,_ZNKSt3__111__wrap_iterIPKNS_6vectorIbNS_9allocatorIbEEEEE4baseEv
FNDA:0,_ZNSt3__111__wrap_iterIPKNS_6vectorIbNS_9allocatorIbEEEEEC1ES6_
FNDA:0,_ZNSt3__111__wrap_iterIPKNS_6vectorIbNS_9allocatorIbEEEEEC2ES6_
FNDA:0,_ZNSt3__1eqIPKNS_6vectorIbNS_9allocatorIbEEEES6_EEbRKNS_11__wrap_iterIT_EERKNS7_IT0_EE
FNDA:0,_ZNSt3__1neIPKNS_6vectorIbNS_9allocatorIbEEEEEEbRKNS_11__wrap_iterIT_EESB_
FNF:16
FNH:0
DA:594,0
DA:602,0
DA:1032,0
DA:1044,0
DA:1337,0
DA:1353,0
DA:1354,0
DA:1393,0
DA:1402,0
DA:1488,0
DA:1540,0
LF:11
LH:0
end_of_record
SF:/Applications/Xcode.app/Contents/Developer/Toolchains/XcodeDefault.xctoolchain/usr/include/c++/v1/limits
FN:213,_ZNSt3__123__libcpp_numeric_limitsImLb1EE3maxEv
FN:213,_ZNSt3__123__libcpp_numeric_limitsIlLb1EE3maxEv
FN:450,_ZNSt3__114numeric_limitsImE3maxEv
FN:450,_ZNSt3__114numeric_limitsIlE3maxEv
FNDA:0,_ZNSt3__123__libcpp_numeric_limitsImLb1EE3maxEv
FNDA:0,_ZNSt3__123__libcpp_numeric_limitsIlLb1EE3maxEv
FNDA:0,_ZNSt3__114numeric_limitsImE3maxEv
FNDA:0,_ZNSt3__114numeric_limitsIlE3maxEv
FNF:4
FNH:0
DA:213,0
DA:450,0
LF:2
LH:0
end_of_record
SF:/Applications/Xcode.app/Contents/Developer/Toolchains/XcodeDefault.xctoolchain/usr/include/c++/v1/locale
FN:1381,_ZNSt3__116__pad_and_outputIcNS_11char_traitsIcEEEENS_19ostreambuf_iteratorIT_T0_EES6_PKS4_S8_S8_RNS_8ios_baseES4_
FNDA:0,_ZNSt3__116__pad_and_outputIcNS_11char_traitsIcEEEENS_19ostreambuf_iteratorIT_T0_EES6_PKS4_S8_S8_RNS_8ios_baseES4_
FNF:1
FNH:0
DA:1385,0
DA:1386,0
DA:1387,0
DA:1388,0
DA:1389,0
DA:1390,0
DA:1392,0
DA:1393,0
DA:1394,0
DA:1396,0
DA:1398,0
DA:1399,0
DA:1401,0
DA:1402,0
DA:1404,0
DA:1405,0
DA:1407,0
DA:1408,0
DA:1410,0
DA:1411,0
DA:1412,0
DA:1414,0
DA:1416,0
DA:1417,0
DA:1419,0
DA:1420,0
DA:1421,0
DA:1422,0
LF:28
LH:0
end_of_record
SF:/Applications/Xcode.app/Contents/Developer/Toolchains/XcodeDefault.xctoolchain/usr/include/c++/v1/memory
FN:977,_ZNSt3__114pointer_traitsIPcE10pointer_toERc
FN:977,_ZNSt3__114pointer_traitsIPKcE10pointer_toERS1_
FN:1095,_ZNSt3__116__to_raw_pointerImEEPT_S2_
FN:1095,_ZNSt3__116__to_raw_pointerINS_6vectorIbNS_9allocatorIbEEEEEEPT_S6_
FN:1095,_ZNSt3__116__to_raw_pointerIKcEEPT_S3_
FN:1095,_ZNSt3__116__to_raw_pointerIKmEEPT_S3_
FN:1501,_ZNSt3__116allocator_traitsINS_9allocatorINS_6vectorIbNS1_IbEEEEEEE8allocateERS5_m
FN:1501,_ZNSt3__116allocator_traitsINS_9allocatorImEEE8allocateERS2_m
FN:1501,_ZNSt3__116allocator_traitsINS_9allocatorIcEEE8allocateERS2_m
FN:1509,_ZNSt3__116allocator_traitsINS_9allocatorINS_6vectorIbNS1_IbEEEEEEE10deallocateERS5_PS4_m
FN:1509,_ZNSt3__116allocator_traitsINS_9allocatorImEEE10deallocateERS2_Pmm
FN:1515,_ZNSt3__116allocator_traitsINS_9allocatorINS_6vectorIbNS1_IbEEEEEEE9constructIS4_JRS4_EEEvRS5_PT_DpOT0_
FN:1515,_ZNSt3__116allocator_traitsINS_9allocatorINS_6vectorIbNS1_IbEEEEEEE9constructIS4_JRKS4_EEEvRS5_PT_DpOT0_
FN:1549,_ZNSt3__116allocator_traitsINS_9allocatorINS_6vectorIbNS1_IbEEEEEEE7destroyIS4_EEvRS5_PT_
FN:1553,_ZNSt3__116allocator_traitsINS_9allocatorImEEE8max_sizeERKS2_
FN:1553,_ZNSt3__116allocator_traitsINS_9allocatorINS_6vectorIbNS1_IbEEEEEEE8max_sizeERKS5_
FN:1553,_ZNSt3__116allocator_traitsINS_9allocatorIcEEE8max_sizeERKS2_
FN:1558,_ZNSt3__116allocator_traitsINS_9allocatorINS_6vectorIbNS1_IbEEEEEEE37select_on_container_copy_constructionERKS5_
FN:1558,_ZNSt3__116allocator_traitsINS_9allocatorImEEE37select_on_container_copy_constructionERKS2_
FN:1597,_ZNSt3__116allocator_traitsINS_9allocatorINS_6vectorIbNS1_IbEEEEEEE25__construct_range_forwardIPS4_S8_EEvRS5_T_SA_RT0_
FN:1597,_ZNSt3__116allocator_traitsINS_9allocatorINS_6vectorIbNS1_IbEEEEEEE25__construct_range_forwardIPKS4_PS4_EEvRS5_T_SC_RT0_
FN:1669,_ZNSt3__116allocator_traitsINS_9allocatorINS_6vectorIbNS1_IbEEEEEEE11__constructIS4_JRKS4_EEEvNS_17integral_constantIbLb1EEERS5_PT_DpOT0_
FN:1669,_ZNSt3__116allocator_traitsINS_9allocatorINS_6vectorIbNS1_IbEEEEEEE11__constructIS4_JRS4_EEEvNS_17integral_constantIbLb1EEERS5_PT_DpOT0_
FN:1681,_ZNSt3__116allocator_traitsINS_9allocatorINS_6vectorIbNS1_IbEEEEEEE9__destroyIS4_EEvNS_17integral_constantIbLb1EEERS5_PT_
FN:1691,_ZNSt3__116allocator_traitsINS_9allocatorINS_6vectorIbNS1_IbEEEEEEE10__max_sizeENS_17integral_constantIbLb1EEERKS5_
FN:1691,_ZNSt3__116allocator_traitsINS_9allocatorIcEEE10__max_sizeENS_17integral_constantIbLb1EEERKS2_
FN:1691,_ZNSt3__116allocator_traitsINS_9allocatorImEEE10__max_sizeENS_17integral_constantIbLb1EEERKS2_
FN:1703,_ZNSt3__116allocator_traitsINS_9allocatorImEEE39__select_on_container_copy_constructionENS_17integral_constantIbLb0EEERKS2_
FN:1703,_ZNSt3__116allocator_traitsINS_9allocatorINS_6vectorIbNS1_IbEEEEEEE39__select_on_container_copy_constructionENS_17integral_constantIbLb0EEERKS5_
FN:1736,_ZNSt3__19allocatorIcEC2Ev
FN:1736,_ZNSt3__19allocatorINS_6vectorIbNS0_IbEEEEEC2Ev
FN:1736,_ZNSt3__19allocatorImEC2Ev
FN:1742,_ZNSt3__19allocatorINS_6vectorIbNS0_IbEEEEE8allocateEmPKv
FN:1742,_ZNSt3__19allocatorIcE8allocateEmPKv
FN:1742,_ZNSt3__19allocatorImE8allocateEmPKv
FN:1749,_ZNSt3__19allocatorImE10deallocateEPmm
FN:1749,_ZNSt3__19allocatorINS_6vectorIbNS0_IbEEEEE10deallocateEPS3_m
FN:1751,_ZNKSt3__19allocatorINS_6vectorIbNS0_IbEEEEE8max_sizeEv
FN:1751,_ZNKSt3__19allocatorIcE8max_sizeEv
FN:1751,_ZNKSt3__19allocatorImE8max_sizeEv
FN:1757,_ZNSt3__19allocatorINS_6vectorIbNS0_IbEEEEE9constructIS3_JRKS3_EEEvPT_DpOT0_
FN:1757,_ZNSt3__19allocatorINS_6vectorIbNS0_IbEEEEE9constructIS3_JRS3_EEEvPT_DpOT0_
FN:1814,_ZNSt3__19allocatorINS_6vectorIbNS0_IbEEEEE7destroyEPS3_
FN:2043,_ZNSt3__122__compressed_pair_elemINS_12basic_stringIcNS_11char_traitsIcEENS_9allocatorIcEEE5__repELi0ELb0EEC2Ev
FN:2050,_ZNSt3__122__compressed_pair_elemIPNS_6vectorIbNS_9allocatorIbEEEELi0ELb0EEC2IDnvEEOT_
FN:2050,_ZNSt3__122__compressed_pair_elemImLi0ELb0EEC2IivEEOT_
FN:2064,_ZNSt3__122__compressed_pair_elemImLi0ELb0EE5__getEv
FN:2064,_ZNSt3__122__compressed_pair_elemIPNS_6vectorIbNS_9allocatorIbEEEELi0ELb0EE5__getEv
FN:2064,_ZNSt3__122__compressed_pair_elemINS_12basic_stringIcNS_11char_traitsIcEENS_9allocatorIcEEE5__repELi0ELb0EE5__getEv
FN:2066,_ZNKSt3__122__compressed_pair_elemIPNS_6vectorIbNS_9allocatorIbEEEELi0ELb0EE5__getEv
FN:2066,_ZNKSt3__122__compressed_pair_elemINS_12basic_stringIcNS_11char_traitsIcEENS_9allocatorIcEEE5__repELi0ELb0EE5__getEv
FN:2080,_ZNSt3__122__compressed_pair_elemINS_9allocatorIcEELi1ELb1EEC2Ev
FN:2080,_ZNSt3__122__compressed_pair_elemINS_9allocatorImEELi1ELb1EEC2Ev
FN:2080,_ZNSt3__122__compressed_pair_elemINS_9allocatorINS_6vectorIbNS1_IbEEEEEELi1ELb1EEC2Ev
FN:2087,_ZNSt3__122__compressed_pair_elemINS_9allocatorIcEELi1ELb1EEC2IRKS2_vEEOT_
FN:2087,_ZNSt3__122__compressed_pair_elemINS_9allocatorINS_6vectorIbNS1_IbEEEEEELi1ELb1EEC2IRKS5_vEEOT_
FN:2087,_ZNSt3__122__compressed_pair_elemINS_9allocatorImEELi1ELb1EEC2IS2_vEEOT_
FN:2102,_ZNSt3__122__compressed_pair_elemINS_9allocatorINS_6vectorIbNS1_IbEEEEEELi1ELb1EE5__getEv
FN:2102,_ZNSt3__122__compressed_pair_elemINS_9allocatorImEELi1ELb1EE5__getEv
FN:2102,_ZNSt3__122__compressed_pair_elemINS_9allocatorIcEELi1ELb1EE5__getEv
FN:2104,_ZNKSt3__122__compressed_pair_elemINS_9allocatorIcEELi1ELb1EE5__getEv
FN:2104,_ZNKSt3__122__compressed_pair_elemINS_9allocatorImEELi1ELb1EE5__getEv
FN:2104,_ZNKSt3__122__compressed_pair_elemINS_9allocatorINS_6vectorIbNS1_IbEEEEEELi1ELb1EE5__getEv
FN:2134,_ZNSt3__117__compressed_pairINS_12basic_stringIcNS_11char_traitsIcEENS_9allocatorIcEEE5__repES5_EC1ILb1EvEEv
FN:2134,_ZNSt3__117__compressed_pairINS_12basic_stringIcNS_11char_traitsIcEENS_9allocatorIcEEE5__repES5_EC2ILb1EvEEv
FN:2140,_ZNSt3__117__compressed_pairIPNS_6vectorIbNS_9allocatorIbEEEENS2_IS4_EEEC2IDnLb1EEEOT_
FN:2140,_ZNSt3__117__compressed_pairImNS_9allocatorImEEEC2IiLb1EEEOT_
FN:2140,_ZNSt3__117__compressed_pairIPNS_6vectorIbNS_9allocatorIbEEEENS2_IS4_EEEC1IDnLb1EEEOT_
FN:2140,_ZNSt3__117__compressed_pairImNS_9allocatorImEEEC1IiLb1EEEOT_
FN:2145,_ZNSt3__117__compressed_pairINS_12basic_stringIcNS_11char_traitsIcEENS_9allocatorIcEEE5__repES5_EC1IRKS5_EENS_12__second_tagEOT_
FN:2145,_ZNSt3__117__compressed_pairINS_12basic_stringIcNS_11char_traitsIcEENS_9allocatorIcEEE5__repES5_EC2IRKS5_EENS_12__second_tagEOT_
FN:2150,_ZNSt3__117__compressed_pairImNS_9allocatorImEEEC2IiS2_EEOT_OT0_
FN:2150,_ZNSt3__117__compressed_pairIPNS_6vectorIbNS_9allocatorIbEEEENS2_IS4_EEEC2IDnRKS6_EEOT_OT0_
FN:2150,_ZNSt3__117__compressed_pairImNS_9allocatorImEEEC1IiS2_EEOT_OT0_
FN:2150,_ZNSt3__117__compressed_pairIPNS_6vectorIbNS_9allocatorIbEEEENS2_IS4_EEEC1IDnRKS6_EEOT_OT0_
FN:2179,_ZNSt3__117__compressed_pairINS_12basic_stringIcNS_11char_traitsIcEENS_9allocatorIcEEE5__repES5_E5firstEv
FN:2179,_ZNSt3__117__compressed_pairIPNS_6vectorIbNS_9allocatorIbEEEENS2_IS4_EEE5firstEv
FN:2179,_ZNSt3__117__compressed_pairImNS_9allocatorImEEE5firstEv
FN:2184,_ZNKSt3__117__compressed_pairIPNS_6vectorIbNS_9allocatorIbEEEENS2_IS4_EEE5firstEv
FN:2184,_ZNKSt3__117__compressed_pairINS_12basic_stringIcNS_11char_traitsIcEENS_9allocatorIcEEE5__repES5_E5firstEv
FN:2189,_ZNSt3__117__compressed_pairImNS_9allocatorImEEE6secondEv
FN:2189,_ZNSt3__117__compressed_pairIPNS_6vectorIbNS_9allocatorIbEEEENS2_IS4_EEE6secondEv
FN:2189,_ZNSt3__117__compressed_pairINS_12basic_stringIcNS_11char_traitsIcEENS_9allocatorIcEEE5__repES5_E6secondEv
FN:2194,_ZNKSt3__117__compressed_pairINS_12basic_stringIcNS_11char_traitsIcEENS_9allocatorIcEEE5__repES5_E6secondEv
FN:2194,_ZNKSt3__117__compressed_pairIPNS_6vectorIbNS_9allocatorIbEEEENS2_IS4_EEE6secondEv
FN:2194,_ZNKSt3__117__compressed_pairImNS_9allocatorImEEE6secondEv
FNDA:0,_ZNSt3__114pointer_traitsIPKcE10pointer_toERS1_
FNDA:0,_ZNSt3__114pointer_traitsIPcE10pointer_toERc
FNDA:0,_ZNSt3__116__to_raw_pointerIKcEEPT_S3_
FNDA:0,_ZNSt3__116__to_raw_pointerINS_6vectorIbNS_9allocatorIbEEEEEEPT_S6_
FNDA:0,_ZNSt3__116__to_raw_pointerImEEPT_S2_
FNDA:0,_ZNSt3__116__to_raw_pointerIKmEEPT_S3_
FNDA:0,_ZNSt3__116allocator_traitsINS_9allocatorImEEE8allocateERS2_m
FNDA:0,_ZNSt3__116allocator_traitsINS_9allocatorINS_6vectorIbNS1_IbEEEEEEE8allocateERS5_m
FNDA:0,_ZNSt3__116allocator_traitsINS_9allocatorIcEEE8allocateERS2_m
FNDA:0,_ZNSt3__116allocator_traitsINS_9allocatorINS_6vectorIbNS1_IbEEEEEEE10deallocateERS5_PS4_m
FNDA:0,_ZNSt3__116allocator_traitsINS_9allocatorImEEE10deallocateERS2_Pmm
FNDA:0,_ZNSt3__116allocator_traitsINS_9allocatorINS_6vectorIbNS1_IbEEEEEEE9constructIS4_JRKS4_EEEvRS5_PT_DpOT0_
FNDA:0,_ZNSt3__116allocator_traitsINS_9allocatorINS_6vectorIbNS1_IbEEEEEEE9constructIS4_JRS4_EEEvRS5_PT_DpOT0_
FNDA:0,_ZNSt3__116allocator_traitsINS_9allocatorINS_6vectorIbNS1_IbEEEEEEE7destroyIS4_EEvRS5_PT_
FNDA:0,_ZNSt3__116allocator_traitsINS_9allocatorImEEE8max_sizeERKS2_
FNDA:0,_ZNSt3__116allocator_traitsINS_9allocatorINS_6vectorIbNS1_IbEEEEEEE8max_sizeERKS5_
FNDA:0,_ZNSt3__116allocator_traitsINS_9allocatorIcEEE8max_sizeERKS2_
FNDA:0,_ZNSt3__116allocator_traitsINS_9allocatorImEEE37select_on_container_copy_constructionERKS2_
FNDA:0,_ZNSt3__116allocator_traitsINS_9allocatorINS_6vectorIbNS1_IbEEEEEEE37select_on_container_copy_constructionERKS5_
FNDA:0,_ZNSt3__116allocator_traitsINS_9allocatorINS_6vectorIbNS1_IbEEEEEEE25__construct_range_forwardIPKS4_PS4_EEvRS5_T_SC_RT0_
FNDA:0,_ZNSt3__116allocator_traitsINS_9allocatorINS_6vectorIbNS1_IbEEEEEEE25__construct_range_forwardIPS4_S8_EEvRS5_T_SA_RT0_
FNDA:0,_ZNSt3__116allocator_traitsINS_9allocatorINS_6vectorIbNS1_IbEEEEEEE11__constructIS4_JRKS4_EEEvNS_17integral_constantIbLb1EEERS5_PT_DpOT0_
FNDA:0,_ZNSt3__116allocator_traitsINS_9allocatorINS_6vectorIbNS1_IbEEEEEEE11__constructIS4_JRS4_EEEvNS_17integral_constantIbLb1EEERS5_PT_DpOT0_
FNDA:0,_ZNSt3__116allocator_traitsINS_9allocatorINS_6vectorIbNS1_IbEEEEEEE9__destroyIS4_EEvNS_17integral_constantIbLb1EEERS5_PT_
FNDA:0,_ZNSt3__116allocator_traitsINS_9allocatorImEEE10__max_sizeENS_17integral_constantIbLb1EEERKS2_
FNDA:0,_ZNSt3__116allocator_traitsINS_9allocatorINS_6vectorIbNS1_IbEEEEEEE10__max_sizeENS_17integral_constantIbLb1EEERKS5_
FNDA:0,_ZNSt3__116allocator_traitsINS_9allocatorIcEEE10__max_sizeENS_17integral_constantIbLb1EEERKS2_
FNDA:0,_ZNSt3__116allocator_traitsINS_9allocatorImEEE39__select_on_container_copy_constructionENS_17integral_constantIbLb0EEERKS2_
FNDA:0,_ZNSt3__116allocator_traitsINS_9allocatorINS_6vectorIbNS1_IbEEEEEEE39__select_on_container_copy_constructionENS_17integral_constantIbLb0EEERKS5_
FNDA:28,_ZNSt3__19allocatorIcEC2Ev
FNDA:0,_ZNSt3__19allocatorImEC2Ev
FNDA:26,_ZNSt3__19allocatorINS_6vectorIbNS0_IbEEEEEC2Ev
FNDA:0,_ZNSt3__19allocatorImE8allocateEmPKv
FNDA:0,_ZNSt3__19allocatorINS_6vectorIbNS0_IbEEEEE8allocateEmPKv
FNDA:0,_ZNSt3__19allocatorIcE8allocateEmPKv
FNDA:0,_ZNSt3__19allocatorINS_6vectorIbNS0_IbEEEEE10deallocateEPS3_m
FNDA:0,_ZNSt3__19allocatorImE10deallocateEPmm
FNDA:0,_ZNKSt3__19allocatorImE8max_sizeEv
FNDA:0,_ZNKSt3__19allocatorINS_6vectorIbNS0_IbEEEEE8max_sizeEv
FNDA:0,_ZNKSt3__19allocatorIcE8max_sizeEv
FNDA:0,_ZNSt3__19allocatorINS_6vectorIbNS0_IbEEEEE9constructIS3_JRKS3_EEEvPT_DpOT0_
FNDA:0,_ZNSt3__19allocatorINS_6vectorIbNS0_IbEEEEE9constructIS3_JRS3_EEEvPT_DpOT0_
FNDA:0,_ZNSt3__19allocatorINS_6vectorIbNS0_IbEEEEE7destroyEPS3_
FNDA:28,_ZNSt3__122__compressed_pair_elemINS_12basic_stringIcNS_11char_traitsIcEENS_9allocatorIcEEE5__repELi0ELb0EEC2Ev
FNDA:0,_ZNSt3__122__compressed_pair_elemImLi0ELb0EEC2IivEEOT_
FNDA:26,_ZNSt3__122__compressed_pair_elemIPNS_6vectorIbNS_9allocatorIbEEEELi0ELb0EEC2IDnvEEOT_
FNDA:0,_ZNSt3__122__compressed_pair_elemImLi0ELb0EE5__getEv
FNDA:0,_ZNSt3__122__compressed_pair_elemIPNS_6vectorIbNS_9allocatorIbEEEELi0ELb0EE5__getEv
FNDA:0,_ZNSt3__122__compressed_pair_elemINS_12basic_stringIcNS_11char_traitsIcEENS_9allocatorIcEEE5__repELi0ELb0EE5__getEv
FNDA:0,_ZNKSt3__122__compressed_pair_elemINS_12basic_stringIcNS_11char_traitsIcEENS_9allocatorIcEEE5__repELi0ELb0EE5__getEv
FNDA:0,_ZNKSt3__122__compressed_pair_elemIPNS_6vectorIbNS_9allocatorIbEEEELi0ELb0EE5__getEv
FNDA:28,_ZNSt3__122__compressed_pair_elemINS_9allocatorIcEELi1ELb1EEC2Ev
FNDA:0,_ZNSt3__122__compressed_pair_elemINS_9allocatorImEELi1ELb1EEC2Ev
FNDA:26,_ZNSt3__122__compressed_pair_elemINS_9allocatorINS_6vectorIbNS1_IbEEEEEELi1ELb1EEC2Ev
FNDA:0,_ZNSt3__122__compressed_pair_elemINS_9allocatorImEELi1ELb1EEC2IS2_vEEOT_
FNDA:0,_ZNSt3__122__compressed_pair_elemINS_9allocatorIcEELi1ELb1EEC2IRKS2_vEEOT_
FNDA:0,_ZNSt3__122__compressed_pair_elemINS_9allocatorINS_6vectorIbNS1_IbEEEEEELi1ELb1EEC2IRKS5_vEEOT_
FNDA:0,_ZNSt3__122__compressed_pair_elemINS_9allocatorINS_6vectorIbNS1_IbEEEEEELi1ELb1EE5__getEv
FNDA:0,_ZNSt3__122__compressed_pair_elemINS_9allocatorImEELi1ELb1EE5__getEv
FNDA:0,_ZNSt3__122__compressed_pair_elemINS_9allocatorIcEELi1ELb1EE5__getEv
FNDA:0,_ZNKSt3__122__compressed_pair_elemINS_9allocatorImEELi1ELb1EE5__getEv
FNDA:0,_ZNKSt3__122__compressed_pair_elemINS_9allocatorINS_6vectorIbNS1_IbEEEEEELi1ELb1EE5__getEv
FNDA:0,_ZNKSt3__122__compressed_pair_elemINS_9allocatorIcEELi1ELb1EE5__getEv
FNDA:28,_ZNSt3__117__compressed_pairINS_12basic_stringIcNS_11char_traitsIcEENS_9allocatorIcEEE5__repES5_EC1ILb1EvEEv
FNDA:28,_ZNSt3__117__compressed_pairINS_12basic_stringIcNS_11char_traitsIcEENS_9allocatorIcEEE5__repES5_EC2ILb1EvEEv
FNDA:0,_ZNSt3__117__compressed_pairImNS_9allocatorImEEEC1IiLb1EEEOT_
FNDA:0,_ZNSt3__117__compressed_pairImNS_9allocatorImEEEC2IiLb1EEEOT_
FNDA:26,_ZNSt3__117__compressed_pairIPNS_6vectorIbNS_9allocatorIbEEEENS2_IS4_EEEC1IDnLb1EEEOT_
FNDA:26,_ZNSt3__117__compressed_pairIPNS_6vectorIbNS_9allocatorIbEEEENS2_IS4_EEEC2IDnLb1EEEOT_
FNDA:0,_ZNSt3__117__compressed_pairINS_12basic_stringIcNS_11char_traitsIcEENS_9allocatorIcEEE5__repES5_EC1IRKS5_EENS_12__second_tagEOT_
FNDA:0,_ZNSt3__117__compressed_pairINS_12basic_stringIcNS_11char_traitsIcEENS_9allocatorIcEEE5__repES5_EC2IRKS5_EENS_12__second_tagEOT_
FNDA:0,_ZNSt3__117__compressed_pairImNS_9allocatorImEEEC1IiS2_EEOT_OT0_
FNDA:0,_ZNSt3__117__compressed_pairImNS_9allocatorImEEEC2IiS2_EEOT_OT0_
FNDA:0,_ZNSt3__117__compressed_pairIPNS_6vectorIbNS_9allocatorIbEEEENS2_IS4_EEEC1IDnRKS6_EEOT_OT0_
FNDA:0,_ZNSt3__117__compressed_pairIPNS_6vectorIbNS_9allocatorIbEEEENS2_IS4_EEEC2IDnRKS6_EEOT_OT0_
FNDA:0,_ZNSt3__117__compressed_pairImNS_9allocatorImEEE5firstEv
FNDA:0,_ZNSt3__117__compressed_pairIPNS_6vectorIbNS_9allocatorIbEEEENS2_IS4_EEE5firstEv
FNDA:0,_ZNSt3__117__compressed_pairINS_12basic_stringIcNS_11char_traitsIcEENS_9allocatorIcEEE5__repES5_E5firstEv
FNDA:0,_ZNKSt3__117__compressed_pairINS_12basic_stringIcNS_11char_traitsIcEENS_9allocatorIcEEE5__repES5_E5firstEv
FNDA:0,_ZNKSt3__117__compressed_pairIPNS_6vectorIbNS_9allocatorIbEEEENS2_IS4_EEE5firstEv
FNDA:0,_ZNSt3__117__compressed_pairIPNS_6vectorIbNS_9allocatorIbEEEENS2_IS4_EEE6secondEv
FNDA:0,_ZNSt3__117__compressed_pairImNS_9allocatorImEEE6secondEv
FNDA:0,_ZNSt3__117__compressed_pairINS_12basic_stringIcNS_11char_traitsIcEENS_9allocatorIcEEE5__repES5_E6secondEv
FNDA:0,_ZNKSt3__117__compressed_pairImNS_9allocatorImEEE6secondEv
FNDA:0,_ZNKSt3__117__compressed_pairIPNS_6vectorIbNS_9allocatorIbEEEENS2_IS4_EEE6secondEv
FNDA:0,_ZNKSt3__117__compressed_pairINS_12basic_stringIcNS_11char_traitsIcEENS_9allocatorIcEEE5__repES5_E6secondEv
FNF:86
FNH:10
DA:979,0
DA:1097,0
DA:1502,0
DA:1510,0
DA:1516,0
DA:1517,0
DA:1550,0
DA:1554,0
DA:1559,0
DA:1560,0
DA:1561,0
DA:1599,0
DA:1600,0
DA:1601,0
DA:1670,0
DA:1682,0
DA:1692,0
DA:1704,0
DA:1736,54
DA:1744,0
DA:1745,0
DA:1747,0
DA:1750,0
DA:1752,0
DA:1759,0
DA:1760,0
DA:1814,0
DA:2043,28
DA:2051,26
DA:2064,0
DA:2066,0
DA:2080,54
DA:2088,0
DA:2102,0
DA:2104,0
DA:2134,56
DA:2141,52
DA:2146,0
DA:2151,0
DA:2180,0
DA:2185,0
DA:2190,0
DA:2195,0
LF:43
LH:6
end_of_record
SF:/Applications/Xcode.app/Contents/Developer/Toolchains/XcodeDefault.xctoolchain/usr/include/c++/v1/new
FN:222,_ZNSt3__110__allocateEm
FN:230,_ZNSt3__119__libcpp_deallocateEPv
FNDA:0,_ZNSt3__110__allocateEm
FNDA:0,_ZNSt3__119__libcpp_deallocateEPv
FNF:2
FNH:0
DA:226,0
DA:234,0
DA:236,0
LF:3
LH:0
end_of_record
SF:/Applications/Xcode.app/Contents/Developer/Toolchains/XcodeDefault.xctoolchain/usr/include/c++/v1/ostream
FN:236,_ZNSt3__113basic_ostreamIcNS_11char_traitsIcEEEC2Ev
FN:254,_ZNKSt3__113basic_ostreamIcNS_11char_traitsIcEEE6sentrycvbEv
FN:714,_ZNSt3__124__put_character_sequenceIcNS_11char_traitsIcEEEERNS_13basic_ostreamIT_T0_EES7_PKS4_m
FN:788,_ZNSt3__1lsINS_11char_traitsIcEEEERNS_13basic_ostreamIcT_EES6_c
FN:862,_ZNSt3__1lsINS_11char_traitsIcEEEERNS_13basic_ostreamIcT_EES6_PKc
FNDA:0,_ZNSt3__113basic_ostreamIcNS_11char_traitsIcEEEC2Ev
FNDA:0,_ZNKSt3__113basic_ostreamIcNS_11char_traitsIcEEE6sentrycvbEv
FNDA:0,_ZNSt3__124__put_character_sequenceIcNS_11char_traitsIcEEEERNS_13basic_ostreamIT_T0_EES7_PKS4_m
FNDA:0,_ZNSt3__1lsINS_11char_traitsIcEEEERNS_13basic_ostreamIcT_EES6_c
FNDA:0,_ZNSt3__1lsINS_11char_traitsIcEEEERNS_13basic_ostreamIcT_EES6_PKc
FNF:5
FNH:0
DA:236,0
DA:254,0
DA:721,0
DA:722,0
DA:725,0
DA:726,0
DA:727,0
DA:728,0
DA:729,0
DA:730,0
DA:731,0
DA:732,0
DA:733,0
DA:734,0
DA:736,0
DA:739,0
DA:740,0
DA:742,0
DA:743,0
DA:790,0
DA:864,0
LF:21
LH:0
end_of_record
SF:/Applications/Xcode.app/Contents/Developer/Toolchains/XcodeDefault.xctoolchain/usr/include/c++/v1/sstream
FN:242,_ZNSt3__115basic_stringbufIcNS_11char_traitsIcEENS_9allocatorIcEEEC2Ej
FN:242,_ZNSt3__115basic_stringbufIcNS_11char_traitsIcEENS_9allocatorIcEEEC1Ej
FN:439,_ZNKSt3__115basic_stringbufIcNS_11char_traitsIcEENS_9allocatorIcEEE3strEv
FN:454,_ZNSt3__115basic_stringbufIcNS_11char_traitsIcEENS_9allocatorIcEEE3strERKNS_12basic_stringIcS2_S4_EE
FN:479,_ZNSt3__115basic_stringbufIcNS_11char_traitsIcEENS_9allocatorIcEEE9underflowEv
FN:495,_ZNSt3__115basic_stringbufIcNS_11char_traitsIcEENS_9allocatorIcEEE9pbackfailEi
FN:519,_ZNSt3__115basic_stringbufIcNS_11char_traitsIcEENS_9allocatorIcEEE8overflowEi
FN:561,_ZNSt3__115basic_stringbufIcNS_11char_traitsIcEENS_9allocatorIcEEE7seekoffExNS_8ios_base7seekdirEj
FN:612,_ZNSt3__115basic_stringbufIcNS_11char_traitsIcEENS_9allocatorIcEEE7seekposENS_4fposI11__mbstate_tEEj
FN:900,_ZNSt3__118basic_stringstreamIcNS_11char_traitsIcEENS_9allocatorIcEEEC1Ej
FN:961,_ZNKSt3__118basic_stringstreamIcNS_11char_traitsIcEENS_9allocatorIcEEE3strEv
FNDA:0,_ZNSt3__115basic_stringbufIcNS_11char_traitsIcEENS_9allocatorIcEEEC1Ej
FNDA:0,_ZNSt3__115basic_stringbufIcNS_11char_traitsIcEENS_9allocatorIcEEEC2Ej
FNDA:0,_ZNKSt3__115basic_stringbufIcNS_11char_traitsIcEENS_9allocatorIcEEE3strEv
FNDA:0,_ZNSt3__115basic_stringbufIcNS_11char_traitsIcEENS_9allocatorIcEEE3strERKNS_12basic_stringIcS2_S4_EE
FNDA:0,_ZNSt3__115basic_stringbufIcNS_11char_traitsIcEENS_9allocatorIcEEE9underflowEv
FNDA:0,_ZNSt3__115basic_stringbufIcNS_11char_traitsIcEENS_9allocatorIcEEE9pbackfailEi
FNDA:0,_ZNSt3__115basic_stringbufIcNS_11char_traitsIcEENS_9allocatorIcEEE8overflowEi
FNDA:0,_ZNSt3__115basic_stringbufIcNS_11char_traitsIcEENS_9allocatorIcEEE7seekoffExNS_8ios_base7seekdirEj
FNDA:0,_ZNSt3__115basic_stringbufIcNS_11char_traitsIcEENS_9allocatorIcEEE7seekposENS_4fposI11__mbstate_tEEj
FNDA:0,_ZNSt3__118basic_stringstreamIcNS_11char_traitsIcEENS_9allocatorIcEEEC1Ej
FNDA:0,_ZNKSt3__118basic_stringstreamIcNS_11char_traitsIcEENS_9allocatorIcEEE3strEv
FNF:11
FNH:0
DA:213,0
DA:243,0
DA:244,0
DA:245,0
DA:246,0
DA:247,0
DA:441,0
DA:443,0
DA:444,0
DA:445,0
DA:447,0
DA:448,0
DA:449,0
DA:450,0
DA:456,0
DA:457,0
DA:458,0
DA:460,0
DA:461,0
DA:462,0
DA:463,0
DA:464,0
DA:465,0
DA:467,0
DA:468,0
DA:469,0
DA:470,0
DA:471,0
DA:472,0
DA:473,0
DA:474,0
DA:475,0
DA:481,0
DA:482,0
DA:483,0
DA:485,0
DA:486,0
DA:487,0
DA:488,0
DA:489,0
DA:490,0
DA:491,0
DA:497,0
DA:498,0
DA:499,0
DA:501,0
DA:503,0
DA:504,0
DA:506,0
DA:507,0
DA:509,0
DA:510,0
DA:511,0
DA:513,0
DA:514,0
DA:515,0
DA:521,0
DA:523,0
DA:524,0
DA:526,0
DA:527,0
DA:532,0
DA:533,0
DA:534,0
DA:535,0
DA:536,0
DA:537,0
DA:538,0
DA:539,0
DA:541,0
DA:544,0
DA:545,0
DA:547,0
DA:548,0
DA:549,0
DA:551,0
DA:552,0
DA:553,0
DA:554,0
DA:556,0
DA:557,0
DA:565,0
DA:566,0
DA:567,0
DA:568,0
DA:569,0
DA:570,0
DA:571,0
DA:573,0
DA:576,0
DA:577,0
DA:579,0
DA:580,0
DA:582,0
DA:583,0
DA:585,0
DA:586,0
DA:588,0
DA:590,0
DA:591,0
DA:592,0
DA:593,0
DA:595,0
DA:596,0
DA:597,0
DA:598,0
DA:599,0
DA:600,0
DA:601,0
DA:602,0
DA:604,0
DA:605,0
DA:606,0
DA:607,0
DA:608,0
DA:615,0
DA:876,0
DA:901,0
DA:902,0
DA:903,0
DA:904,0
DA:963,0
LF:122
LH:0
end_of_record
SF:/Applications/Xcode.app/Contents/Developer/Toolchains/XcodeDefault.xctoolchain/usr/include/c++/v1/stdexcept
FN:136,_ZNSt12length_errorC2EPKc
FN:136,_ZNSt12length_errorC1EPKc
FN:222,_ZNSt3__120__throw_length_errorEPKc
FNDA:0,_ZNSt12length_errorC1EPKc
FNDA:0,_ZNSt12length_errorC2EPKc
FNDA:0,_ZNSt3__120__throw_length_errorEPKc
FNF:3
FNH:0
DA:136,0
DA:225,0
DA:230,0
LF:3
LH:0
end_of_record
SF:/Applications/Xcode.app/Contents/Developer/Toolchains/XcodeDefault.xctoolchain/usr/include/c++/v1/streambuf
FN:218,_ZNSt3__115basic_streambufIcNS_11char_traitsIcEEE5sputcEc
FN:226,_ZNSt3__115basic_streambufIcNS_11char_traitsIcEEE5sputnEPKcl
FN:236,_ZNKSt3__115basic_streambufIcNS_11char_traitsIcEEE5ebackEv
FN:237,_ZNKSt3__115basic_streambufIcNS_11char_traitsIcEEE4gptrEv
FN:238,_ZNKSt3__115basic_streambufIcNS_11char_traitsIcEEE5egptrEv
FN:244,_ZNSt3__115basic_streambufIcNS_11char_traitsIcEEE4setgEPcS4_S4_
FN:251,_ZNKSt3__115basic_streambufIcNS_11char_traitsIcEEE5pbaseEv
FN:252,_ZNKSt3__115basic_streambufIcNS_11char_traitsIcEEE4pptrEv
FN:253,_ZNKSt3__115basic_streambufIcNS_11char_traitsIcEEE5epptrEv
FN:256,_ZNSt3__115basic_streambufIcNS_11char_traitsIcEEE5pbumpEi
FN:259,_ZNSt3__115basic_streambufIcNS_11char_traitsIcEEE4setpEPcS4_
FNDA:0,_ZNSt3__115basic_streambufIcNS_11char_traitsIcEEE5sputcEc
FNDA:0,_ZNSt3__115basic_streambufIcNS_11char_traitsIcEEE5sputnEPKcl
FNDA:0,_ZNKSt3__115basic_streambufIcNS_11char_traitsIcEEE5ebackEv
FNDA:0,_ZNKSt3__115basic_streambufIcNS_11char_traitsIcEEE4gptrEv
FNDA:0,_ZNKSt3__115basic_streambufIcNS_11char_traitsIcEEE5egptrEv
FNDA:0,_ZNSt3__115basic_streambufIcNS_11char_traitsIcEEE4setgEPcS4_S4_
FNDA:0,_ZNKSt3__115basic_streambufIcNS_11char_traitsIcEEE5pbaseEv
FNDA:0,_ZNKSt3__115basic_streambufIcNS_11char_traitsIcEEE4pptrEv
FNDA:0,_ZNKSt3__115basic_streambufIcNS_11char_traitsIcEEE5epptrEv
FNDA:0,_ZNSt3__115basic_streambufIcNS_11char_traitsIcEEE5pbumpEi
FNDA:0,_ZNSt3__115basic_streambufIcNS_11char_traitsIcEEE4setpEPcS4_
FNF:11
FNH:0
DA:219,0
DA:220,0
DA:221,0
DA:222,0
DA:223,0
DA:227,0
DA:236,0
DA:237,0
DA:238,0
DA:245,0
DA:246,0
DA:247,0
DA:248,0
DA:251,0
DA:252,0
DA:253,0
DA:256,0
DA:260,0
DA:261,0
DA:262,0
LF:20
LH:0
end_of_record
SF:/Applications/Xcode.app/Contents/Developer/Toolchains/XcodeDefault.xctoolchain/usr/include/c++/v1/string
FN:508,_ZNSt3__14fposI11__mbstate_tEC2Ex
FN:508,_ZNSt3__14fposI11__mbstate_tEC1Ex
FN:510,_ZNKSt3__14fposI11__mbstate_tEcvxEv
FN:888,_ZNKSt3__112basic_stringIcNS_11char_traitsIcEENS_9allocatorIcEEE4sizeEv
FN:892,_ZNKSt3__112basic_stringIcNS_11char_traitsIcEENS_9allocatorIcEEE8capacityEv
FN:897,_ZNSt3__112basic_stringIcNS_11char_traitsIcEENS_9allocatorIcEEE6resizeEm
FN:1127,_ZNKSt3__112basic_stringIcNS_11char_traitsIcEENS_9allocatorIcEEE5c_strEv
FN:1129,_ZNKSt3__112basic_stringIcNS_11char_traitsIcEENS_9allocatorIcEEE4dataEv
FN:1136,_ZNKSt3__112basic_stringIcNS_11char_traitsIcEENS_9allocatorIcEEE13get_allocatorEv
FN:1220,_ZNKSt3__112basic_stringIcNS_11char_traitsIcEENS_9allocatorIcEEE9__is_longEv
FN:1234,_ZNSt3__112basic_stringIcNS_11char_traitsIcEENS_9allocatorIcEEE7__allocEv
FN:1237,_ZNKSt3__112basic_stringIcNS_11char_traitsIcEENS_9allocatorIcEEE7__allocEv
FN:1261,_ZNSt3__112basic_stringIcNS_11char_traitsIcEENS_9allocatorIcEEE16__set_short_sizeEm
FN:1269,_ZNKSt3__112basic_stringIcNS_11char_traitsIcEENS_9allocatorIcEEE16__get_short_sizeEv
FN:1279,_ZNSt3__112basic_stringIcNS_11char_traitsIcEENS_9allocatorIcEEE15__set_long_sizeEm
FN:1282,_ZNKSt3__112basic_stringIcNS_11char_traitsIcEENS_9allocatorIcEEE15__get_long_sizeEv
FN:1289,_ZNSt3__112basic_stringIcNS_11char_traitsIcEENS_9allocatorIcEEE14__set_long_capEm
FN:1292,_ZNKSt3__112basic_stringIcNS_11char_traitsIcEENS_9allocatorIcEEE14__get_long_capEv
FN:1296,_ZNSt3__112basic_stringIcNS_11char_traitsIcEENS_9allocatorIcEEE18__set_long_pointerEPc
FN:1302,_ZNKSt3__112basic_stringIcNS_11char_traitsIcEENS_9allocatorIcEEE18__get_long_pointerEv
FN:1305,_ZNSt3__112basic_stringIcNS_11char_traitsIcEENS_9allocatorIcEEE19__get_short_pointerEv
FN:1308,_ZNKSt3__112basic_stringIcNS_11char_traitsIcEENS_9allocatorIcEEE19__get_short_pointerEv
FN:1314,_ZNKSt3__112basic_stringIcNS_11char_traitsIcEENS_9allocatorIcEEE13__get_pointerEv
FN:1318,_ZNSt3__112basic_stringIcNS_11char_traitsIcEENS_9allocatorIcEEE6__zeroEv
FN:1327,_ZNSt3__112basic_stringIcNS_11char_traitsIcEENS_9allocatorIcEEE10__align_itILm16EEEmm
FN:1331,_ZNSt3__112basic_stringIcNS_11char_traitsIcEENS_9allocatorIcEEE11__recommendEm
FN:1492,_ZNSt3__112basic_stringIcNS_11char_traitsIcEENS_9allocatorIcEEEC2Ev
FN:1492,_ZNSt3__112basic_stringIcNS_11char_traitsIcEENS_9allocatorIcEEEC1Ev
FN:1503,_ZNSt3__112basic_stringIcNS_11char_traitsIcEENS_9allocatorIcEEEC1ERKS4_
FN:1503,_ZNSt3__112basic_stringIcNS_11char_traitsIcEENS_9allocatorIcEEEC2ERKS4_
FN:1568,_ZNSt3__112basic_stringIcNS_11char_traitsIcEENS_9allocatorIcEEEC2EPKc
FN:1568,_ZNSt3__112basic_stringIcNS_11char_traitsIcEENS_9allocatorIcEEEC1EPKc
FN:1706,_ZNSt3__112basic_stringIcNS_11char_traitsIcEENS_9allocatorIcEEEC2Emc
FN:1706,_ZNSt3__112basic_stringIcNS_11char_traitsIcEENS_9allocatorIcEEEC1Emc
FN:1824,_ZNSt3__112basic_stringIcNS_11char_traitsIcEENS_9allocatorIcEEE6__initIPcEENS_9enable_ifIXsr21__is_forward_iteratorIT_EE5valueEvE4typeES9_S9_
FN:1862,_ZNSt3__112basic_stringIcNS_11char_traitsIcEENS_9allocatorIcEEEC1IPcEET_S8_RKS4_
FN:1862,_ZNSt3__112basic_stringIcNS_11char_traitsIcEENS_9allocatorIcEEEC2IPcEET_S8_RKS4_
FN:2870,_ZNKSt3__112basic_stringIcNS_11char_traitsIcEENS_9allocatorIcEEE8max_sizeEv
FNDA:0,_ZNSt3__14fposI11__mbstate_tEC1Ex
FNDA:0,_ZNSt3__14fposI11__mbstate_tEC2Ex
FNDA:0,_ZNKSt3__14fposI11__mbstate_tEcvxEv
FNDA:0,_ZNKSt3__112basic_stringIcNS_11char_traitsIcEENS_9allocatorIcEEE4sizeEv
FNDA:0,_ZNKSt3__112basic_stringIcNS_11char_traitsIcEENS_9allocatorIcEEE8capacityEv
FNDA:0,_ZNSt3__112basic_stringIcNS_11char_traitsIcEENS_9allocatorIcEEE6resizeEm
FNDA:0,_ZNKSt3__112basic_stringIcNS_11char_traitsIcEENS_9allocatorIcEEE5c_strEv
FNDA:0,_ZNKSt3__112basic_stringIcNS_11char_traitsIcEENS_9allocatorIcEEE4dataEv
FNDA:0,_ZNKSt3__112basic_stringIcNS_11char_traitsIcEENS_9allocatorIcEEE13get_allocatorEv
FNDA:0,_ZNKSt3__112basic_stringIcNS_11char_traitsIcEENS_9allocatorIcEEE9__is_longEv
FNDA:0,_ZNSt3__112basic_stringIcNS_11char_traitsIcEENS_9allocatorIcEEE7__allocEv
FNDA:0,_ZNKSt3__112basic_stringIcNS_11char_traitsIcEENS_9allocatorIcEEE7__allocEv
FNDA:0,_ZNSt3__112basic_stringIcNS_11char_traitsIcEENS_9allocatorIcEEE16__set_short_sizeEm
FNDA:0,_ZNKSt3__112basic_stringIcNS_11char_traitsIcEENS_9allocatorIcEEE16__get_short_sizeEv
FNDA:0,_ZNSt3__112basic_stringIcNS_11char_traitsIcEENS_9allocatorIcEEE15__set_long_sizeEm
FNDA:0,_ZNKSt3__112basic_stringIcNS_11char_traitsIcEENS_9allocatorIcEEE15__get_long_sizeEv
FNDA:0,_ZNSt3__112basic_stringIcNS_11char_traitsIcEENS_9allocatorIcEEE14__set_long_capEm
FNDA:0,_ZNKSt3__112basic_stringIcNS_11char_traitsIcEENS_9allocatorIcEEE14__get_long_capEv
FNDA:0,_ZNSt3__112basic_stringIcNS_11char_traitsIcEENS_9allocatorIcEEE18__set_long_pointerEPc
FNDA:0,_ZNKSt3__112basic_stringIcNS_11char_traitsIcEENS_9allocatorIcEEE18__get_long_pointerEv
FNDA:0,_ZNSt3__112basic_stringIcNS_11char_traitsIcEENS_9allocatorIcEEE19__get_short_pointerEv
FNDA:0,_ZNKSt3__112basic_stringIcNS_11char_traitsIcEENS_9allocatorIcEEE19__get_short_pointerEv
FNDA:0,_ZNKSt3__112basic_stringIcNS_11char_traitsIcEENS_9allocatorIcEEE13__get_pointerEv
FNDA:0,_ZNSt3__112basic_stringIcNS_11char_traitsIcEENS_9allocatorIcEEE6__zeroEv
FNDA:0,_ZNSt3__112basic_stringIcNS_11char_traitsIcEENS_9allocatorIcEEE10__align_itILm16EEEmm
FNDA:0,_ZNSt3__112basic_stringIcNS_11char_traitsIcEENS_9allocatorIcEEE11__recommendEm
FNDA:0,_ZNSt3__112basic_stringIcNS_11char_traitsIcEENS_9allocatorIcEEEC1Ev
FNDA:0,_ZNSt3__112basic_stringIcNS_11char_traitsIcEENS_9allocatorIcEEEC2Ev
FNDA:0,_ZNSt3__112basic_stringIcNS_11char_traitsIcEENS_9allocatorIcEEEC1ERKS4_
FNDA:0,_ZNSt3__112basic_stringIcNS_11char_traitsIcEENS_9allocatorIcEEEC2ERKS4_
FNDA:28,_ZNSt3__112basic_stringIcNS_11char_traitsIcEENS_9allocatorIcEEEC1EPKc
FNDA:28,_ZNSt3__112basic_stringIcNS_11char_traitsIcEENS_9allocatorIcEEEC2EPKc
FNDA:0,_ZNSt3__112basic_stringIcNS_11char_traitsIcEENS_9allocatorIcEEEC1Emc
FNDA:0,_ZNSt3__112basic_stringIcNS_11char_traitsIcEENS_9allocatorIcEEEC2Emc
FNDA:0,_ZNSt3__112basic_stringIcNS_11char_traitsIcEENS_9allocatorIcEEE6__initIPcEENS_9enable_ifIXsr21__is_forward_iteratorIT_EE5valueEvE4typeES9_S9_
FNDA:0,_ZNSt3__112basic_stringIcNS_11char_traitsIcEENS_9allocatorIcEEEC1IPcEET_S8_RKS4_
FNDA:0,_ZNSt3__112basic_stringIcNS_11char_traitsIcEENS_9allocatorIcEEEC2IPcEET_S8_RKS4_
FNDA:0,_ZNKSt3__112basic_stringIcNS_11char_traitsIcEENS_9allocatorIcEEE8max_sizeEv
FNF:38
FNH:2
DA:508,0
DA:510,0
DA:750,0
DA:775,28
DA:783,0
DA:889,0
DA:893,0
DA:894,0
DA:897,0
DA:1127,0
DA:1129,0
DA:1136,0
DA:1221,0
DA:1235,0
DA:1238,0
DA:1265,0
DA:1273,0
DA:1280,0
DA:1283,0
DA:1290,0
DA:1293,0
DA:1297,0
DA:1303,0
DA:1306,0
DA:1309,0
DA:1315,0
DA:1320,0
DA:1321,0
DA:1322,0
DA:1323,0
DA:1328,0
DA:1332,0
DA:1333,0
DA:1334,0
DA:1494,0
DA:1498,0
DA:1499,0
DA:1509,0
DA:1510,0
DA:1514,0
DA:1515,0
DA:1569,56
DA:1571,28
DA:1575,56
DA:1707,0
DA:1708,0
DA:1712,0
DA:1826,0
DA:1827,0
DA:1828,0
DA:1830,0
DA:1832,0
DA:1833,0
DA:1834,0
DA:1837,0
DA:1838,0
DA:1839,0
DA:1840,0
DA:1841,0
DA:1843,0
DA:1844,0
DA:1845,0
DA:1846,0
DA:1864,0
DA:1865,0
DA:1866,0
DA:1870,0
DA:2872,0
DA:2876,0
LF:69
LH:4
end_of_record
SF:/Applications/Xcode.app/Contents/Developer/Toolchains/XcodeDefault.xctoolchain/usr/include/c++/v1/type_traits
FN:437,_ZNSt3__19addressofIKcEEPT_RS2_
FN:437,_ZNSt3__19addressofIcEEPT_RS1_
FN:2219,_ZNSt3__17forwardIRNS_6vectorIbNS_9allocatorIbEEEEEEOT_RNS_16remove_referenceIS6_E4typeE
FN:2219,_ZNSt3__17forwardIDnEEOT_RNS_16remove_referenceIS1_E4typeE
FN:2219,_ZNSt3__17forwardIiEEOT_RNS_16remove_referenceIS1_E4typeE
FN:2219,_ZNSt3__17forwardIRKNS_9allocatorIcEEEEOT_RNS_16remove_referenceIS5_E4typeE
FN:2219,_ZNSt3__17forwardIRKNS_9allocatorINS_6vectorIbNS1_IbEEEEEEEEOT_RNS_16remove_referenceIS8_E4typeE
FN:2219,_ZNSt3__17forwardIRKNS_6vectorIbNS_9allocatorIbEEEEEEOT_RNS_16remove_referenceIS7_E4typeE
FN:2219,_ZNSt3__17forwardINS_9allocatorImEEEEOT_RNS_16remove_referenceIS3_E4typeE
FNDA:0,_ZNSt3__19addressofIKcEEPT_RS2_
FNDA:0,_ZNSt3__19addressofIcEEPT_RS1_
FNDA:0,_ZNSt3__17forwardIiEEOT_RNS_16remove_referenceIS1_E4typeE
FNDA:52,_ZNSt3__17forwardIDnEEOT_RNS_16remove_referenceIS1_E4typeE
FNDA:0,_ZNSt3__17forwardIRKNS_6vectorIbNS_9allocatorIbEEEEEEOT_RNS_16remove_referenceIS7_E4typeE
FNDA:0,_ZNSt3__17forwardINS_9allocatorImEEEEOT_RNS_16remove_referenceIS3_E4typeE
FNDA:0,_ZNSt3__17forwardIRKNS_9allocatorIcEEEEOT_RNS_16remove_referenceIS5_E4typeE
FNDA:0,_ZNSt3__17forwardIRKNS_9allocatorINS_6vectorIbNS1_IbEEEEEEEEOT_RNS_16remove_referenceIS8_E4typeE
FNDA:0,_ZNSt3__17forwardIRNS_6vectorIbNS_9allocatorIbEEEEEEOT_RNS_16remove_referenceIS6_E4typeE
FNF:9
FNH:1
DA:439,0
DA:2221,52
LF:2
LH:1
end_of_record
SF:/Applications/Xcode.app/Contents/Developer/Toolchains/XcodeDefault.xctoolchain/usr/include/c++/v1/vector
FN:294,_ZNSt3__120__vector_base_commonILb1EEC2Ev
FN:337,_ZNSt3__113__vector_baseINS_6vectorIbNS_9allocatorIbEEEENS2_IS4_EEE7__allocEv
FN:340,_ZNKSt3__113__vector_baseINS_6vectorIbNS_9allocatorIbEEEENS2_IS4_EEE7__allocEv
